(dp1
S'n_obs'
p2
I87
sS'dispersion'
p3
cnumpy.core.multiarray
scalar
p4
(cnumpy
dtype
p5
(S'f8'
I0
I1
tRp6
(I3
S'<'
NNNI-1
I-1
I0
tbS'|J\x02?\xf27%@'
tRp7
sS'b'
F48
sS'n_cal'
p8
I9
sS'vel-center'
p9
g4
(g6
S'.\x00\x92\t\x95\x9d5\xc0'
tRp10
sS'rec-success'
p11
I01
sS'unixtime'
p12
F1399196009.2001221
sS'G_Right'
p13
g4
(g6
S'\xdeu\xdd\xbe\xb5M\xf9?'
tRp14
sS'l'
g4
(g6
S'|DU\x96\xde\xb7u@'
tRp15
sS'G_Left'
p16
g4
(g6
S'\xc5C\x8f\xd4\xfb;\xe4?'
tRp17
sS'T_Sys_Left'
p18
g4
(g6
S'\xca\xa2\xe3\x9d]\xe4o@'
tRp19
sS'jd'
p20
F2456781.8982523149
sS'lst'
p21
g4
(g6
S'\x00\x90\xb3\xc9=:0@'
tRp22
sS'vel-peaks'
p23
cnumpy.core.multiarray
_reconstruct
p24
(cnumpy
ndarray
p25
(I0
tS'b'
tRp26
(I1
(I1
tg6
I00
S'\xca/\xa0\xccK\xff1\xc0'
tbsS'grid'
p27
(I24
I46
tp28
sS'fname'
p29
S'data_l_347.49_b_048.00_grid_024_046'
p30
sS'time'
p31
ctime
struct_time
p32
((I2014
I5
I4
I2
I33
I29
I6
I124
I1
t(dtRp33
sS'f_low'
p34
F1268.9000000000001
sS'T_Sys_Right'
p35
g4
(g6
S'&C\x8b\xde\xf6\xa4p@'
tRp36
sS'f_high'
p37
F1271.9000000000001
sS'col-density'
p38
g4
(g6
S'\xbb\xf5\x86\x04\x04?@D'
tRp39
s.