(dp1
S'n_obs'
p2
I87
sS'dispersion'
p3
cnumpy.core.multiarray
scalar
p4
(cnumpy
dtype
p5
(S'f8'
I0
I1
tRp6
(I3
S'<'
NNNI-1
I-1
I0
tbS'\xde\x13\xca:,r!@'
tRp7
sS'b'
F52
sS'n_cal'
p8
I9
sS'vel-center'
p9
g4
(g6
S'|!\x9c\xca\xc3\xfc7@'
tRp10
sS'rec-success'
p11
I01
sS'unixtime'
p12
F1399105021.478379
sS'G_Right'
p13
g4
(g6
S'o6r\x80\xe7\xdb\x00@'
tRp14
sS'l'
g4
(g6
S'}\r\xeaZdgr@'
tRp15
sS'G_Left'
p16
g4
(g6
S'Ei\r\xbe\x99^\xde?'
tRp17
sS'T_Sys_Left'
p18
g4
(g6
S']\xd1\xd0%\x10\x8dp@'
tRp19
sS'jd'
p20
F2456780.8451504633
sS'lst'
p21
g4
(g6
S'\x00\x00b\x86\x89\xc4-@'
tRp22
sS'vel-peaks'
p23
cnumpy.core.multiarray
_reconstruct
p24
(cnumpy
ndarray
p25
(I0
tS'b'
tRp26
(I1
(I1
tg6
I00
S'\xe3\xb1Yu\xb5\t<@'
tbsS'grid'
p27
(I26
I26
tp28
sS'fname'
p29
S'data_l_294.46_b_052.00_grid_026_026'
p30
sS'time'
p31
ctime
struct_time
p32
((I2014
I5
I3
I1
I17
I1
I5
I123
I1
t(dtRp33
sS'f_low'
p34
F1268.9000000000001
sS'T_Sys_Right'
p35
g4
(g6
S'\x17\xab\x1a+3er@'
tRp36
sS'f_high'
p37
F1271.9000000000001
sS'col-density'
p38
g4
(g6
S'\x08#8\x97\xeeg1D'
tRp39
s.