(dp1
S'n_obs'
p2
I87
sS'dispersion'
p3
cnumpy.core.multiarray
scalar
p4
(cnumpy
dtype
p5
(S'f8'
I0
I1
tRp6
(I3
S'<'
NNNI-1
I-1
I0
tbS'\xd4\x18m\xf5W\xcf @'
tRp7
sS'b'
F28
sS'n_cal'
p8
I9
sS'vel-center'
p9
g4
(g6
S'b;\xb9\xa2\xbc[L\xc0'
tRp10
sS'rec-success'
p11
I01
sS'unixtime'
p12
F1398842450
sS'G_Right'
p13
g4
(g6
S'\xb1b\x1b\xc8i\xd4\xf9?'
tRp14
sS'l'
g4
(g6
S"@\xdf'\xec\x1f.*@"
tRp15
sS'G_Left'
p16
g4
(g6
S'\xd6\xc3\xb2\xfau\xd2\xe3?'
tRp17
sS'T_Sys_Left'
p18
g4
(g6
S'\x90%\xad+\xc0\x1c~@'
tRp19
sS'jd'
p20
F2456777.8061342593
sS'lst'
p21
g4
(g6
S'\x00@@\xf8\xdc~+@'
tRp22
sS'vel-peaks'
p23
cnumpy.core.multiarray
_reconstruct
p24
(cnumpy
ndarray
p25
(I0
tS'b'
tRp26
(I1
(I1
tg6
I00
S'Jd\x7f\xb2\x8c\xc4K\xc0'
tbsS'grid'
p27
(I14
I72
tp28
sS'fname'
p29
S'data_l_013.09_b_028.00_grid_014_072'
p30
sS'time'
p31
ctime
struct_time
p32
((I2014
I4
I30
I0
I20
I50
I2
I120
I1
t(dtRp33
sS'f_low'
p34
F1268.9000000000001
sS'T_Sys_Right'
p35
g4
(g6
S'\xf9\xa4\x14\x03\xc4iu@'
tRp36
sS'f_high'
p37
F1271.9000000000001
sS'col-density'
p38
g4
(g6
S'\xc2\xeda\xf1\x1c&SD'
tRp39
s.