(dp1
S'n_obs'
p2
I87
sS'dispersion'
p3
cnumpy.core.multiarray
scalar
p4
(cnumpy
dtype
p5
(S'f8'
I0
I1
tRp6
(I3
S'<'
NNNI-1
I-1
I0
tbS'/\xb7j\xbeq^+@'
tRp7
sS'b'
F44
sS'n_cal'
p8
I9
sS'vel-center'
p9
g4
(g6
S'\x00\xa2]i\x0f\xa5L@'
tRp10
sS'rec-success'
p11
I01
sS'unixtime'
p12
F1399097176.732759
sS'G_Right'
p13
g4
(g6
S'J\xc9jp\xd0y\x00@'
tRp14
sS'l'
g4
(g6
S'\xdaE\xf2)\x96\x1do@'
tRp15
sS'G_Left'
p16
g4
(g6
S'\x85\x1f\xe8ch\x13\xdf?'
tRp17
sS'T_Sys_Left'
p18
g4
(g6
S'\xb4\x82\xaf\xfat8r@'
tRp19
sS'jd'
p20
F2456780.754351852
sS'lst'
p21
g4
(g6
S'\x00\xc0\xa8\xc4\xbfe)@'
tRp22
sS'vel-peaks'
p23
cnumpy.core.multiarray
_reconstruct
p24
(cnumpy
ndarray
p25
(I0
tS'b'
tRp26
(I1
(I1
tg6
I00
S'\x18\xa5Z\x8f\xc7\xf4N@'
tbsS'grid'
p27
(I22
I14
tp28
sS'fname'
p29
S'data_l_248.92_b_044.00_grid_022_014'
p30
sS'time'
p31
ctime
struct_time
p32
((I2014
I5
I2
I23
I6
I16
I4
I122
I1
t(dtRp33
sS'f_low'
p34
F1268.9000000000001
sS'T_Sys_Right'
p35
g4
(g6
S';\x7f\xac\xcb\xcc\xe4q@'
tRp36
sS'f_high'
p37
F1271.9000000000001
sS'col-density'
p38
g4
(g6
S'\x80\xe1d+\x80\xe2:D'
tRp39
s.