(dp1
S'n_obs'
p2
I87
sS'dispersion'
p3
cnumpy.core.multiarray
scalar
p4
(cnumpy
dtype
p5
(S'f8'
I0
I1
tRp6
(I3
S'<'
NNNI-1
I-1
I0
tbS'\x1f\x8b\xc2(\xd2\xe3/@'
tRp7
sS'b'
F48
sS'n_cal'
p8
I9
sS'vel-center'
p9
g4
(g6
S'yq\x9e\xe3\xb2\xd8\x11@'
tRp10
sS'rec-success'
p11
I01
sS'unixtime'
p12
F1399194823.6107371
sS'G_Right'
p13
g4
(g6
S'\x8d\x87\xb9\x88\xfd;\xff?'
tRp14
sS'l'
g4
(g6
S' bz\x11\xa3\xd9s@'
tRp15
sS'G_Left'
p16
g4
(g6
S'w\xf7\xf3Ahd\xe0?'
tRp17
sS'T_Sys_Left'
p18
g4
(g6
S'\xcc\xd3\x05h5pp@'
tRp19
sS'jd'
p20
F2456781.884525463
sS'lst'
p21
g4
(g6
S'\x00 lhX\xcb/@'
tRp22
sS'vel-peaks'
p23
cnumpy.core.multiarray
_reconstruct
p24
(cnumpy
ndarray
p25
(I0
tS'b'
tRp26
(I1
(I1
tg6
I00
S'JH\xd1\x86Z\x01\x14@'
tbsS'grid'
p27
(I24
I36
tp28
sS'fname'
p29
S'data_l_317.60_b_048.00_grid_024_036'
p30
sS'time'
p31
ctime
struct_time
p32
((I2014
I5
I4
I2
I13
I43
I6
I124
I1
t(dtRp33
sS'f_low'
p34
F1268.9000000000001
sS'T_Sys_Right'
p35
g4
(g6
S'l\xa9\x84\xcd*\xf4p@'
tRp36
sS'f_high'
p37
F1271.9000000000001
sS'col-density'
p38
g4
(g6
S'\x9fg&\x9e\xd9\x00<D'
tRp39
s.