(dp1
S'n_obs'
p2
I87
sS'dispersion'
p3
cnumpy.core.multiarray
scalar
p4
(cnumpy
dtype
p5
(S'f8'
I0
I1
tRp6
(I3
S'<'
NNNI-1
I-1
I0
tbS'\xdc\xf9\xe1\xcd\x8aC$@'
tRp7
sS'b'
F64
sS'n_cal'
p8
I9
sS'vel-center'
p9
g4
(g6
S'5\xec\xb7\x85\xbd5%@'
tRp10
sS'rec-success'
p11
I01
sS'unixtime'
p12
F1399275791.1386039
sS'G_Right'
p13
g4
(g6
S'\xb2\xf3\x86\x96\xce3\xf6?'
tRp14
sS'l'
F210
sS'G_Left'
p15
g4
(g6
S'\x0c):}\x83\x0f\xe7?'
tRp16
sS'T_Sys_Left'
p17
g4
(g6
S'\x8f:\xdd\xf7\x02\x07p@'
tRp18
sS'jd'
p19
F2456782.8216550928
sS'lst'
p20
g4
(g6
S'\x00\x80\xa9\x8eR\xe6,@'
tRp21
sS'vel-peaks'
p22
cnumpy.core.multiarray
_reconstruct
p23
(cnumpy
ndarray
p24
(I0
tS'b'
tRp25
(I1
(I0
tg6
I00
S''
tbsS'grid'
p26
(I32
I0
tp27
sS'fname'
p28
S'data_l_210.00_b_064.00_grid_032_000'
p29
sS'time'
p30
ctime
struct_time
p31
((I2014
I5
I5
I0
I43
I11
I0
I125
I1
t(dtRp32
sS'f_low'
p33
F1268.9000000000001
sS'T_Sys_Right'
p34
g4
(g6
S'\xf7:i\x11\xd1=m@'
tRp35
sS'f_high'
p36
F1271.9000000000001
sS'col-density'
p37
g4
(g6
S'\x13<8\x97RS!D'
tRp38
s.