(dp1
S'n_obs'
p2
I87
sS'dispersion'
p3
cnumpy.core.multiarray
scalar
p4
(cnumpy
dtype
p5
(S'f8'
I0
I1
tRp6
(I3
S'<'
NNNI-1
I-1
I0
tbS'\xf3\x14\x9b\xfd!;)@'
tRp7
sS'b'
F20
sS'n_cal'
p8
I9
sS'vel-center'
p9
g4
(g6
S'\x90\t\xb0\x18&AV@'
tRp10
sS'rec-success'
p11
I01
sS'unixtime'
p12
F1399264240.727067
sS'G_Right'
p13
g4
(g6
S'\n\xef\x88\xd4\x92\xe4\xfe?'
tRp14
sS'l'
F210
sS'G_Left'
p15
g4
(g6
S'\x05\x18o\xbb\xca\x92\xe0?'
tRp16
sS'T_Sys_Left'
p17
g4
(g6
S'u\xe2(\x8a7\xc8n@'
tRp18
sS'jd'
p19
F2456782.6879629632
sS'lst'
p20
g4
(g6
S'\x00\x00\x8a\x07\x04w&@'
tRp21
sS'vel-peaks'
p22
cnumpy.core.multiarray
_reconstruct
p23
(cnumpy
ndarray
p24
(I0
tS'b'
tRp25
(I1
(I1
tg6
I00
S'\xe8\xdc\xceB\xceAU@'
tbsS'grid'
p26
(I10
I0
tp27
sS'fname'
p28
S'data_l_210.00_b_020.00_grid_010_000'
p29
sS'time'
p30
ctime
struct_time
p31
((I2014
I5
I4
I21
I30
I40
I6
I124
I1
t(dtRp32
sS'f_low'
p33
F1268.9000000000001
sS'T_Sys_Right'
p34
g4
(g6
S'w\xbf_\x80Feq@'
tRp35
sS'f_high'
p36
F1271.9000000000001
sS'col-density'
p37
g4
(g6
S'\xf1\xfa\xa3\x93\x17?3D'
tRp38
s.