(dp1
S'n_obs'
p2
I174
sS'dispersion'
p3
cnumpy.core.multiarray
scalar
p4
(cnumpy
dtype
p5
(S'f8'
I0
I1
tRp6
(I3
S'<'
NNNI-1
I-1
I0
tbS'\xa5\xd7E\x11\xffA5@'
tRp7
sS'b'
F4
sS'fname'
p8
S'data_l_218.02_b_004.00_grid_002_004'
p9
sS'vel-center'
p10
g4
(g6
S'[\xdc\x9a\x1f&|]@'
tRp11
sS'rec-success'
p12
I01
sS'unixtime'
p13
F1398647100
sS'G_Right'
p14
g4
(g6
S'I\xac]&\xc7\xdb\xfb?'
tRp15
sS'l'
g4
(g6
S'\x18f@\x08\xa0@k@'
tRp16
sS'G_Left'
p17
g4
(g6
S'\x1a\xa13\x11\xeb`\xe2?'
tRp18
sS'T_Sys_Left'
p19
g4
(g6
S'\xb9\xe9\xc4\xab\xa4fu@'
tRp20
sS'jd'
p21
F2456775.545138889
sS'lst'
p22
g4
(g6
S'\x00\x00Mk^W\x1d@'
tRp23
sS'vel-peaks'
p24
cnumpy.core.multiarray
_reconstruct
p25
(cnumpy
ndarray
p26
(I0
tS'b'
tRp27
(I1
(I2
tg6
I00
S'\x88\x14#p\x0e\xf1`@\xac\tkZ}MY@'
tbsS'grid'
p28
(I2
I4
tp29
sS'n_cal'
p30
I18
sS'time'
p31
ctime
struct_time
p32
((I2014
I4
I27
I18
I5
I0
I6
I117
I1
t(dtRp33
sS'f_low'
p34
F1268.9000000000001
sS'T_Sys_Right'
p35
g4
(g6
S'\x80h\xdf\xe17\x17p@'
tRp36
sS'f_high'
p37
F1271.9000000000001
sS'col-density'
p38
g4
(g6
S'>^V\x10#\x03hD'
tRp39
s.