(dp1
S'n_obs'
p2
I87
sS'dispersion'
p3
cnumpy.core.multiarray
scalar
p4
(cnumpy
dtype
p5
(S'f8'
I0
I1
tRp6
(I3
S'<'
NNNI-1
I-1
I0
tbS'FE\n\xa2\xb1\x8d$@'
tRp7
sS'b'
F48
sS'n_cal'
p8
I9
sS'vel-center'
p9
g4
(g6
S',\x14kb\x8di9@'
tRp10
sS'rec-success'
p11
I01
sS'unixtime'
p12
F1399194167.2018771
sS'G_Right'
p13
g4
(g6
S'{5\x84`<\x7f\xff?'
tRp14
sS'l'
g4
(g6
S'\x1c\xa7\x90\x8e\xb2\xbar@'
tRp15
sS'G_Left'
p16
g4
(g6
S'_|\xaa\x03iA\xe0?'
tRp17
sS'T_Sys_Left'
p18
g4
(g6
S'\xe2\xef\xe81\x90\x8fr@'
tRp19
sS'jd'
p20
F2456781.8769328706
sS'lst'
p21
g4
(g6
S'\x00\xe0\xd9\xc8\xcam/@'
tRp22
sS'vel-peaks'
p23
cnumpy.core.multiarray
_reconstruct
p24
(cnumpy
ndarray
p25
(I0
tS'b'
tRp26
(I1
(I1
tg6
I00
S'\x9eO/;bM6@'
tbsS'grid'
p27
(I24
I30
tp28
sS'fname'
p29
S'data_l_299.67_b_048.00_grid_024_030'
p30
sS'time'
p31
ctime
struct_time
p32
((I2014
I5
I4
I2
I2
I47
I6
I124
I1
t(dtRp33
sS'f_low'
p34
F1268.9000000000001
sS'T_Sys_Right'
p35
g4
(g6
S'w\x0cX\x10T\nq@'
tRp36
sS'f_high'
p37
F1271.9000000000001
sS'col-density'
p38
g4
(g6
S'\x9e\xf7\xe2~/\xca2D'
tRp39
s.