(dp1
S'n_obs'
p2
I87
sS'dispersion'
p3
cnumpy.core.multiarray
scalar
p4
(cnumpy
dtype
p5
(S'f8'
I0
I1
tRp6
(I3
S'<'
NNNI-1
I-1
I0
tbS'\xee\xf2\x95\x87\xfe\xc6#@'
tRp7
sS'b'
F14
sS'n_cal'
p8
I9
sS'vel-center'
p9
g4
(g6
S'\xf8\xeemH\xb7"N\xc0'
tRp10
sS'rec-success'
p11
I01
sS'unixtime'
p12
F1399288165.007884
sS'G_Right'
p13
g4
(g6
S'\xc0I\xa4\x11\x9f\xaa\x00@'
tRp14
sS'l'
g4
(g6
S'\x80\x90Uv\xf4\xa1+@'
tRp15
sS'G_Left'
p16
g4
(g6
S'\xac\xb7\x15Lg\xb8\xde?'
tRp17
sS'T_Sys_Left'
p18
g4
(g6
S'k\x8e\x8eP4\xebn@'
tRp19
sS'jd'
p20
F2456782.9648726853
sS'lst'
p21
g4
(g6
S'\x00P\x07\xd2\x7f\xe51@'
tRp22
sS'vel-peaks'
p23
cnumpy.core.multiarray
_reconstruct
p24
(cnumpy
ndarray
p25
(I0
tS'b'
tRp26
(I1
(I1
tg6
I00
S'~\x8d\xe1\x1b\xf3\xf4N\xc0'
tbsS'grid'
p27
(I7
I3
tp28
sS'fname'
p29
S'data_l_013.82_b_014.00_grid_007_003'
p30
sS'time'
p31
ctime
struct_time
p32
((I2014
I5
I5
I4
I9
I25
I0
I125
I1
t(dtRp33
sS'f_low'
p34
F1268.9000000000001
sS'T_Sys_Right'
p35
g4
(g6
S'U\x161C\xddOp@'
tRp36
sS'f_high'
p37
F1271.9000000000001
sS'col-density'
p38
g4
(g6
S'FG\xb4\x90W#WD'
tRp39
s.