(dp1
S'n_obs'
p2
I87
sS'dispersion'
p3
cnumpy.core.multiarray
scalar
p4
(cnumpy
dtype
p5
(S'f8'
I0
I1
tRp6
(I3
S'<'
NNNI-1
I-1
I0
tbS'\x82\x13\xf1\x98\xdb$1@'
tRp7
sS'b'
F60
sS'n_cal'
p8
I9
sS'vel-center'
p9
g4
(g6
S'eq~H\x006\x01\xc0'
tRp10
sS'rec-success'
p11
I01
sS'unixtime'
p12
F1399111668.7500589
sS'G_Right'
p13
g4
(g6
S'\xa7.\xbbg\xf2\xf2\xff?'
tRp14
sS'l'
g4
(g6
S'\x00\x00\x00\x00\x00 t@'
tRp15
sS'G_Left'
p16
g4
(g6
S'\x95\x9a\xc1v\x89\x06\xe0?'
tRp17
sS'T_Sys_Left'
p18
g4
(g6
S'\x0b\xe0$\xd7>~r@'
tRp19
sS'jd'
p20
F2456780.9220833331
sS'lst'
p21
g4
(g6
S'\x00\xa0"\x01=\xbc0@'
tRp22
sS'vel-peaks'
p23
cnumpy.core.multiarray
_reconstruct
p24
(cnumpy
ndarray
p25
(I0
tS'b'
tRp26
(I1
(I1
tg6
I00
S'R\x08\xac\xf5aZ\x1c@'
tbsS'grid'
p27
(I30
I28
tp28
sS'fname'
p29
S'data_l_322.00_b_060.00_grid_030_028'
p30
sS'time'
p31
ctime
struct_time
p32
((I2014
I5
I3
I3
I7
I48
I5
I123
I1
t(dtRp33
sS'f_low'
p34
F1268.9000000000001
sS'T_Sys_Right'
p35
g4
(g6
S'\x9a\xbcT\x073\x98p@'
tRp36
sS'f_high'
p37
F1271.9000000000001
sS'col-density'
p38
g4
(g6
S'\x19H\xbaz\xea\xab2D'
tRp39
s.