(dp1
S'n_obs'
p2
I87
sS'dispersion'
p3
cnumpy.core.multiarray
scalar
p4
(cnumpy
dtype
p5
(S'f8'
I0
I1
tRp6
(I3
S'<'
NNNI-1
I-1
I0
tbS'\xc08\xf8\x0e5\x171@'
tRp7
sS'b'
F56
sS'n_cal'
p8
I9
sS'vel-center'
p9
g4
(g6
S'\xc90\xd9\xa6t3;\xc0'
tRp10
sS'rec-success'
p11
I01
sS'unixtime'
p12
F1399110495.044589
sS'G_Right'
p13
g4
(g6
S'\x85C]3o\x9b\x01@'
tRp14
sS'l'
g4
(g6
S'h\xafih\x03\x11v@'
tRp15
sS'G_Left'
p16
g4
(g6
S'\xd9\xf8E\xef=\x14\xdd?'
tRp17
sS'T_Sys_Left'
p18
g4
(g6
S'\x03\xc1\xa5\xf7\x9c\x1cp@'
tRp19
sS'jd'
p20
F2456780.9085069443
sS'lst'
p21
g4
(g6
S'\x00 \xf5\xb9\x98h0@'
tRp22
sS'vel-peaks'
p23
cnumpy.core.multiarray
_reconstruct
p24
(cnumpy
ndarray
p25
(I0
tS'b'
tRp26
(I1
(I1
tg6
I00
S'\x0f\xe7/\x85\x90\x811\xc0'
tbsS'grid'
p27
(I28
I40
tp28
sS'fname'
p29
S'data_l_353.06_b_056.00_grid_028_040'
p30
sS'time'
p31
ctime
struct_time
p32
((I2014
I5
I3
I2
I48
I15
I5
I123
I1
t(dtRp33
sS'f_low'
p34
F1268.9000000000001
sS'T_Sys_Right'
p35
g4
(g6
S'fzT\xe0\x92#q@'
tRp36
sS'f_high'
p37
F1271.9000000000001
sS'col-density'
p38
g4
(g6
S'"\x9fG\xfdk\x945D'
tRp39
s.