(dp1
S'n_obs'
p2
I87
sS'dispersion'
p3
cnumpy.core.multiarray
scalar
p4
(cnumpy
dtype
p5
(S'f8'
I0
I1
tRp6
(I3
S'<'
NNNI-1
I-1
I0
tbS'\x8d"R\x18\xbd8(@'
tRp7
sS'b'
F60
sS'n_cal'
p8
I9
sS'vel-center'
p9
g4
(g6
S'\x98\xac\xd6\xdbYD0@'
tRp10
sS'rec-success'
p11
I01
sS'unixtime'
p12
F1399275526.1825099
sS'G_Right'
p13
g4
(g6
S'\x7f\x81\x1du\xa0!\x00@'
tRp14
sS'l'
g4
(g6
S'\x00\x00\x00\x00\x00\xa0r@'
tRp15
sS'G_Left'
p16
g4
(g6
S'%\ryGK\xbd\xdf?'
tRp17
sS'T_Sys_Left'
p18
g4
(g6
S'|e\xa2\xb4\x00Rp@'
tRp19
sS'jd'
p20
F2456782.818587963
sS'lst'
p21
g4
(g6
S'\x00@\xf5\xc8\x87\xc0,@'
tRp22
sS'vel-peaks'
p23
cnumpy.core.multiarray
_reconstruct
p24
(cnumpy
ndarray
p25
(I0
tS'b'
tRp26
(I1
(I1
tg6
I00
S'\xbcw\xcf\x16m\x839@'
tbsS'grid'
p27
(I30
I22
tp28
sS'fname'
p29
S'data_l_298.00_b_060.00_grid_030_022'
p30
sS'time'
p31
ctime
struct_time
p32
((I2014
I5
I5
I0
I38
I46
I0
I125
I1
t(dtRp33
sS'f_low'
p34
F1268.9000000000001
sS'T_Sys_Right'
p35
g4
(g6
S'\xbb\x88\x04k\x0cLp@'
tRp36
sS'f_high'
p37
F1271.9000000000001
sS'col-density'
p38
g4
(g6
S'\xdd\x87B\xacxc(D'
tRp39
s.