(dp1
S'n_obs'
p2
I87
sS'dispersion'
p3
cnumpy.core.multiarray
scalar
p4
(cnumpy
dtype
p5
(S'f8'
I0
I1
tRp6
(I3
S'<'
NNNI-1
I-1
I0
tbS'b\xfd\x05\xbdt\xea@@'
tRp7
sS'b'
F0
sS'n_cal'
p8
I9
sS'vel-center'
p9
g4
(g6
S'$\xc75\xdc\r,I\xc0'
tRp10
sS'rec-success'
p11
I01
sS'unixtime'
p12
F1399300338.9973631
sS'G_Right'
p13
g4
(g6
S'L\x9d}\xd8o\x03\xfb?'
tRp14
sS'l'
g4
(g6
S'\x00\x00\x00\x00\x00\x000@'
tRp15
sS'G_Left'
p16
g4
(g6
S'\x10\x8c\xa7\x1a\x1b\xf4\xe2?'
tRp17
sS'T_Sys_Left'
p18
g4
(g6
S'\x11\x171\x18,mp@'
tRp19
sS'jd'
p20
F2456783.1057638889
sS'lst'
p21
g4
(g6
S'\x00\xe0,@\x81I5@'
tRp22
sS'vel-peaks'
p23
cnumpy.core.multiarray
_reconstruct
p24
(cnumpy
ndarray
p25
(I0
tS'b'
tRp26
(I1
(I2
tg6
I00
S'\xbc\xe3K\xd2gsJ\xc0\x07$h\xce\xf4\nW\xc0'
tbsS'grid'
p27
(I0
I83
tp28
sS'fname'
p29
S'data_l_016.00_b_000.00_grid_000_083'
p30
sS'time'
p31
ctime
struct_time
p32
((I2014
I5
I5
I7
I32
I18
I0
I125
I1
t(dtRp33
sS'f_low'
p34
F1268.9000000000001
sS'T_Sys_Right'
p35
g4
(g6
S'a=\xd6\xbe\xaeCp@'
tRp36
sS'f_high'
p37
F1271.9000000000001
sS'col-density'
p38
g4
(g6
S'mvW\x934\xdb}D'
tRp39
s.