(dp1
S'n_obs'
p2
I87
sS'dispersion'
p3
cnumpy.core.multiarray
scalar
p4
(cnumpy
dtype
p5
(S'f8'
I0
I1
tRp6
(I3
S'<'
NNNI-1
I-1
I0
tbS"0\xd3U\xe1'+2@"
tRp7
sS'b'
F36
sS'n_cal'
p8
I9
sS'vel-center'
p9
g4
(g6
S'@0\x8f\xf3\xc6;Q@'
tRp10
sS'rec-success'
p11
I01
sS'unixtime'
p12
F1399091421.450604
sS'G_Right'
p13
g4
(g6
S'-\xfc\x0ch\x0cf\x00@'
tRp14
sS'l'
F210
sS'G_Left'
p15
g4
(g6
S'\xf0P\xa6G\xdd8\xdf?'
tRp16
sS'T_Sys_Left'
p17
g4
(g6
S'\xa4 \x81~\x836q@'
tRp18
sS'jd'
p19
F2456780.6877430556
sS'lst'
p20
g4
(g6
S'\x00\x80\xfd\xed\x041&@'
tRp21
sS'vel-peaks'
p22
cnumpy.core.multiarray
_reconstruct
p23
(cnumpy
ndarray
p24
(I0
tS'b'
tRp25
(I1
(I1
tg6
I00
S',\xe6,\xdc\x1d\x08S@'
tbsS'grid'
p26
(I18
I0
tp27
sS'fname'
p28
S'data_l_210.00_b_036.00_grid_018_000'
p29
sS'time'
p30
ctime
struct_time
p31
((I2014
I5
I2
I21
I30
I21
I4
I122
I1
t(dtRp32
sS'f_low'
p33
F1268.9000000000001
sS'T_Sys_Right'
p34
g4
(g6
S'\x8c\xf19\x94s3p@'
tRp35
sS'f_high'
p36
F1271.9000000000001
sS'col-density'
p37
g4
(g6
S'y\xbf\x08\x91\x12\xd43D'
tRp38
s.