(dp1
S'n_obs'
p2
I87
sS'dispersion'
p3
cnumpy.core.multiarray
scalar
p4
(cnumpy
dtype
p5
(S'f8'
I0
I1
tRp6
(I3
S'<'
NNNI-1
I-1
I0
tbS'q\x8a\x01\x8e\xe3\\\x1c@'
tRp7
sS'b'
F36
sS'n_cal'
p8
I9
sS'vel-center'
p9
g4
(g6
S'\xefDl]\x81\x99R@'
tRp10
sS'rec-success'
p11
I01
sS'unixtime'
p12
F1399185400.4073541
sS'G_Right'
p13
g4
(g6
S')\xbc\xf9\x87\xfc\x9b\xff?'
tRp14
sS'l'
g4
(g6
S'\xbc\xfbX\xdaL\xf5m@'
tRp15
sS'G_Left'
p16
g4
(g6
S'\xe8\xca^\xf5\x9f2\xe0?'
tRp17
sS'T_Sys_Left'
p18
g4
(g6
S'u>\xd3\x81r\xc3o@'
tRp19
sS'jd'
p20
F2456781.7754629632
sS'lst'
p21
g4
(g6
S'\x00@\xb5\x1f\x84\x8b*@'
tRp22
sS'vel-peaks'
p23
cnumpy.core.multiarray
_reconstruct
p24
(cnumpy
ndarray
p25
(I0
tS'b'
tRp26
(I1
(I1
tg6
I00
S'\x80K0hf~R@'
tbsS'grid'
p27
(I18
I12
tp28
sS'fname'
p29
S'data_l_239.67_b_036.00_grid_018_012'
p30
sS'time'
p31
ctime
struct_time
p32
((I2014
I5
I3
I23
I36
I40
I5
I123
I1
t(dtRp33
sS'f_low'
p34
F1268.9000000000001
sS'T_Sys_Right'
p35
g4
(g6
S'k\x0b(\xd0.\xbbo@'
tRp36
sS'f_high'
p37
F1271.9000000000001
sS'col-density'
p38
g4
(g6
S'\xcf=\xbf\x12u01D'
tRp39
s.