(dp1
S'n_obs'
p2
I174
sS'dispersion'
p3
cnumpy.core.multiarray
scalar
p4
(cnumpy
dtype
p5
(S'f8'
I0
I1
tRp6
(I3
S'<'
NNNI-1
I-1
I0
tbS'z\xdeA\xb9\xfc\xed4@'
tRp7
sS'b'
F4
sS'fname'
p8
S'data_l_216.01_b_004.00_grid_002_003'
p9
sS'vel-center'
p10
g4
(g6
S'\xf7A`0T\xba\\@'
tRp11
sS'rec-success'
p12
I01
sS'unixtime'
p13
F1398646620
sS'G_Right'
p14
g4
(g6
S'\xdbx\x9f\x05\xab\xb0\xfb?'
tRp15
sS'l'
g4
(g6
S'\x92L0\x06x\x00k@'
tRp16
sS'G_Left'
p17
g4
(g6
S'\xfc\xeb>\x02\x88}\xe2?'
tRp18
sS'T_Sys_Left'
p19
g4
(g6
S'7vEn\x83\x0f\x7f@'
tRp20
sS'jd'
p21
F2456775.5395833333
sS'lst'
p22
g4
(g6
S"\x00\x00'0v\xce\x1c@"
tRp23
sS'vel-peaks'
p24
cnumpy.core.multiarray
_reconstruct
p25
(cnumpy
ndarray
p26
(I0
tS'b'
tRp27
(I1
(I3
tg6
I00
S'\xa8\xb1\xa0\xe6\t\xa0`@\x08\x00\xe8\xb5\x07\xc3[@\x9c\x9f\xca`\xaa\xdbW@'
tbsS'grid'
p28
(I2
I3
tp29
sS'n_cal'
p30
I18
sS'time'
p31
ctime
struct_time
p32
((I2014
I4
I27
I17
I57
I0
I6
I117
I1
t(dtRp33
sS'f_low'
p34
F1268.9000000000001
sS'T_Sys_Right'
p35
g4
(g6
S'/Q\x95Ks6q@'
tRp36
sS'f_high'
p37
F1271.9000000000001
sS'col-density'
p38
g4
(g6
S'\x83,P\x18X\x08pD'
tRp39
s.