(dp1
S'n_obs'
p2
I87
sS'dispersion'
p3
cnumpy.core.multiarray
scalar
p4
(cnumpy
dtype
p5
(S'f8'
I0
I1
tRp6
(I3
S'<'
NNNI-1
I-1
I0
tbS'\xa4\x05\xd5\x801\xbf(@'
tRp7
sS'b'
F68
sS'n_cal'
p8
I9
sS'vel-center'
p9
g4
(g6
S'I\xd2\xe2\x00\xf4\xf92\xc0'
tRp10
sS'rec-success'
p11
I01
sS'unixtime'
p12
F1399198812.3925149
sS'G_Right'
p13
g4
(g6
S'\xdb\x9b\xf9\xb7\x0bo\xfd?'
tRp14
sS'l'
g4
(g6
S'@\xd9\xed\xfe\x07V$@'
tRp15
sS'G_Left'
p16
g4
(g6
S'\xa5JL\xaa\x1de\xe1?'
tRp17
sS'T_Sys_Left'
p18
g4
(g6
S')>\x1dybSm@'
tRp19
sS'jd'
p20
F2456781.9306944441
sS'lst'
p21
g4
(g6
S'\x00`o\x8d\x1c\x021@'
tRp22
sS'vel-peaks'
p23
cnumpy.core.multiarray
_reconstruct
p24
(cnumpy
ndarray
p25
(I0
tS'b'
tRp26
(I1
(I1
tg6
I00
S"\xed`a\xa2\xc9\xf3'\xc0"
tbsS'grid'
p27
(I34
I30
tp28
sS'fname'
p29
S'data_l_010.17_b_068.00_grid_034_030'
p30
sS'time'
p31
ctime
struct_time
p32
((I2014
I5
I4
I3
I20
I12
I6
I124
I1
t(dtRp33
sS'f_low'
p34
F1268.9000000000001
sS'T_Sys_Right'
p35
g4
(g6
S'pN\x18\xe41\xffo@'
tRp36
sS'f_high'
p37
F1271.9000000000001
sS'col-density'
p38
g4
(g6
S'\xac\x95\xa7\x15\x92w.D'
tRp39
s.