(dp1
S'n_obs'
p2
I87
sS'dispersion'
p3
cnumpy.core.multiarray
scalar
p4
(cnumpy
dtype
p5
(S'f8'
I0
I1
tRp6
(I3
S'<'
NNNI-1
I-1
I0
tbS'w6|\x8f\xd2#1@'
tRp7
sS'b'
F64
sS'n_cal'
p8
I9
sS'vel-center'
p9
g4
(g6
S'\xd0\xe3\x9b8\xfb\x9dA@'
tRp10
sS'rec-success'
p11
I01
sS'unixtime'
p12
F1399276987.8947339
sS'G_Right'
p13
g4
(g6
S"\x989e3'v\xf7?"
tRp14
sS'l'
g4
(g6
S'\x04\x8b\xd09\xf3\xf3o@'
tRp15
sS'G_Left'
p16
g4
(g6
S'\xb5\x1fp\x13\xad\xd2\xe5?'
tRp17
sS'T_Sys_Left'
p18
g4
(g6
S'\x9d\x9c\xe4\xab@!o@'
tRp19
sS'jd'
p20
F2456782.8354976852
sS'lst'
p21
g4
(g6
S'\x00@u\xcf\xe2\x90-@'
tRp22
sS'vel-peaks'
p23
cnumpy.core.multiarray
_reconstruct
p24
(cnumpy
ndarray
p25
(I0
tS'b'
tRp26
(I1
(I1
tg6
I00
S"j\xa5s#'\x9aG@"
tbsS'grid'
p27
(I32
I10
tp28
sS'fname'
p29
S'data_l_255.62_b_064.00_grid_032_010'
p30
sS'time'
p31
ctime
struct_time
p32
((I2014
I5
I5
I1
I3
I7
I0
I125
I1
t(dtRp33
sS'f_low'
p34
F1268.9000000000001
sS'T_Sys_Right'
p35
g4
(g6
S'\x00\xc2U`\xe4\xabn@'
tRp36
sS'f_high'
p37
F1271.9000000000001
sS'col-density'
p38
g4
(g6
S'p*\nb,A5D'
tRp39
s.