(dp1
S'n_obs'
p2
I87
sS'dispersion'
p3
cnumpy.core.multiarray
scalar
p4
(cnumpy
dtype
p5
(S'f8'
I0
I1
tRp6
(I3
S'<'
NNNI-1
I-1
I0
tbS'\x82\xad%EH\xe71@'
tRp7
sS'b'
F88
sS'n_cal'
p8
I9
sS'vel-center'
p9
g4
(g6
S'\xae;\x18\xac3\x89\x11\xc0'
tRp10
sS'rec-success'
p11
I01
sS'unixtime'
p12
F1399284979.4594281
sS'G_Right'
p13
g4
(g6
S'\x16\x8f\xe36\x94\xd1\xf5?'
tRp14
sS'l'
F210
sS'G_Left'
p15
g4
(g6
S'\xc7\x9d\xcc5Uw\xe7?'
tRp16
sS'T_Sys_Left'
p17
g4
(g6
S'\xad\x9cV\x9f^^p@'
tRp18
sS'jd'
p19
F2456782.927997685
sS'lst'
p20
g4
(g6
S'\x00\xb0\xbf\xa9Q\x021@'
tRp21
sS'vel-peaks'
p22
cnumpy.core.multiarray
_reconstruct
p23
(cnumpy
ndarray
p24
(I0
tS'b'
tRp25
(I1
(I0
tg6
I00
S''
tbsS'grid'
p26
(I44
I0
tp27
sS'fname'
p28
S'data_l_210.00_b_088.00_grid_044_000'
p29
sS'time'
p30
ctime
struct_time
p31
((I2014
I5
I5
I3
I16
I19
I0
I125
I1
t(dtRp32
sS'f_low'
p33
F1268.9000000000001
sS'T_Sys_Right'
p34
g4
(g6
S'\xd8%$\x0c\xbd\x07s@'
tRp35
sS'f_high'
p36
F1271.9000000000001
sS'col-density'
p37
g4
(g6
S'\xd1\x9c\xaa \x01\x8e1D'
tRp38
s.