(dp1
S'n_obs'
p2
I87
sS'dispersion'
p3
cnumpy.core.multiarray
scalar
p4
(cnumpy
dtype
p5
(S'f8'
I0
I1
tRp6
(I3
S'<'
NNNI-1
I-1
I0
tbS'\x7f\xfc\xc6\x84\xdbx4@'
tRp7
sS'b'
F2
sS'n_cal'
p8
I9
sS'vel-center'
p9
g4
(g6
S'w\xef-\xf4\xa8\xdeL\xc0'
tRp10
sS'rec-success'
p11
I01
sS'unixtime'
p12
F1399285765.1921141
sS'G_Right'
p13
g4
(g6
S'\xa7Z2\xcdO\xe8\x01@'
tRp14
sS'l'
g4
(g6
S'@l\xdf\x0e\xe1\xfc#@'
tRp15
sS'G_Left'
p16
g4
(g6
S'\xb583\x8fg\x97\xdc?'
tRp17
sS'T_Sys_Left'
p18
g4
(g6
S'\xd1\x9c.R\x17Zp@'
tRp19
sS'jd'
p20
F2456782.9370949073
sS'lst'
p21
g4
(g6
S'\x00\xd0G\x88]:1@'
tRp22
sS'vel-peaks'
p23
cnumpy.core.multiarray
_reconstruct
p24
(cnumpy
ndarray
p25
(I0
tS'b'
tRp26
(I1
(I2
tg6
I00
S'.@\x05\xc8\x8e\x04L\xc0L|\xfcV8ET\xc0'
tbsS'grid'
p27
(I1
I5
tp28
sS'fname'
p29
S'data_l_009.99_b_002.00_grid_001_005'
p30
sS'time'
p31
ctime
struct_time
p32
((I2014
I5
I5
I3
I29
I25
I0
I125
I1
t(dtRp33
sS'f_low'
p34
F1268.9000000000001
sS'T_Sys_Right'
p35
g4
(g6
S'\xd9\x15\\\x0f\xee\xbcp@'
tRp36
sS'f_high'
p37
F1271.9000000000001
sS'col-density'
p38
g4
(g6
S'\xc9\xd4\xe6\x85\x08BtD'
tRp39
s.