(dp1
S'n_obs'
p2
I87
sS'dispersion'
p3
cnumpy.core.multiarray
scalar
p4
(cnumpy
dtype
p5
(S'f8'
I0
I1
tRp6
(I3
S'<'
NNNI-1
I-1
I0
tbS'\xa0d\xed\xbfW\x04.@'
tRp7
sS'b'
F6
sS'n_cal'
p8
I9
sS'vel-center'
p9
g4
(g6
S'2\xb6\x90["9O\xc0'
tRp10
sS'rec-success'
p11
I01
sS'unixtime'
p12
F1399299158.279896
sS'G_Right'
p13
g4
(g6
S'\xb4\x06\x0c\xfb\x0c)\xfa?'
tRp14
sS'l'
F20
sS'G_Left'
p15
g4
(g6
S'\x91>\xb3fT\x92\xe3?'
tRp16
sS'T_Sys_Left'
p17
g4
(g6
S'VY\x16\x98\x80"q@'
tRp18
sS'jd'
p19
F2456783.0921064815
sS'lst'
p20
g4
(g6
S'\x000N1]\xf54@'
tRp21
sS'vel-peaks'
p22
cnumpy.core.multiarray
_reconstruct
p23
(cnumpy
ndarray
p24
(I0
tS'b'
tRp25
(I1
(I2
tg6
I00
S'\x1a\\\xc7\x11&\xd1L\xc0\xee\xb5\x9e\xf3i\tQ\xc0'
tbsS'grid'
p26
(I3
I0
tp27
sS'fname'
p28
S'data_l_020.00_b_006.00_grid_003_000'
p29
sS'time'
p30
ctime
struct_time
p31
((I2014
I5
I5
I7
I12
I38
I0
I125
I1
t(dtRp32
sS'f_low'
p33
F1268.9000000000001
sS'T_Sys_Right'
p34
g4
(g6
S'ymg\xa1\r\x8ep@'
tRp35
sS'f_high'
p36
F1271.9000000000001
sS'col-density'
p37
g4
(g6
S'Z\x81\xe6TD\xe8dD'
tRp38
s.