(dp1
S'n_obs'
p2
I87
sS'dispersion'
p3
cnumpy.core.multiarray
scalar
p4
(cnumpy
dtype
p5
(S'f8'
I0
I1
tRp6
(I3
S'<'
NNNI-1
I-1
I0
tbS'\x82\xbfL 3l+@'
tRp7
sS'b'
F36
sS'n_cal'
p8
I9
sS'vel-center'
p9
g4
(g6
S'<\r\x94N\xb62P@'
tRp10
sS'rec-success'
p11
I01
sS'unixtime'
p12
F1399186323.832799
sS'G_Right'
p13
g4
(g6
S':[\x16\x84\xf6\x1a\x00@'
tRp14
sS'l'
g4
(g6
S's|\x9f`\x157p@'
tRp15
sS'G_Left'
p16
g4
(g6
S'?S\xb6?m\xca\xdf?'
tRp17
sS'T_Sys_Left'
p18
g4
(g6
S'\xb7Q\r1K\xf8o@'
tRp19
sS'jd'
p20
F2456781.7861458333
sS'lst'
p21
g4
(g6
S'\x00\x80E\x89%\x0f+@'
tRp22
sS'vel-peaks'
p23
cnumpy.core.multiarray
_reconstruct
p24
(cnumpy
ndarray
p25
(I0
tS'b'
tRp26
(I1
(I1
tg6
I00
S'\xb8fF\x843\xe7M@'
tbsS'grid'
p27
(I18
I20
tp28
sS'fname'
p29
S'data_l_259.44_b_036.00_grid_018_020'
p30
sS'time'
p31
ctime
struct_time
p32
((I2014
I5
I3
I23
I52
I3
I5
I123
I1
t(dtRp33
sS'f_low'
p34
F1268.9000000000001
sS'T_Sys_Right'
p35
g4
(g6
S'{2\xd9J:\x1do@'
tRp36
sS'f_high'
p37
F1271.9000000000001
sS'col-density'
p38
g4
(g6
S'\xe4\xca\x1c\xe4\xa1\\@D'
tRp39
s.