(dp1
S'n_obs'
p2
I87
sS'dispersion'
p3
cnumpy.core.multiarray
scalar
p4
(cnumpy
dtype
p5
(S'f8'
I0
I1
tRp6
(I3
S'<'
NNNI-1
I-1
I0
tbS'\xc8p\xcc\xea1\xb70@'
tRp7
sS'b'
F32
sS'n_cal'
p8
I9
sS'vel-center'
p9
g4
(g6
S'\xa1\x15\xa9\x8b\xca\xddL@'
tRp10
sS'rec-success'
p11
I01
sS'unixtime'
p12
F1399091102.683641
sS'G_Right'
p13
g4
(g6
S'\x89JH@\xaa*\x00@'
tRp14
sS'l'
g4
(g6
S'\xe8\xc4S\xe8\x9b\xa9p@'
tRp15
sS'G_Left'
p16
g4
(g6
S'\x92\xf2\xbb\xb0\x8c\xab\xdf?'
tRp17
sS'T_Sys_Left'
p18
g4
(g6
S'az\xe8\xdc\xbb\x96q@'
tRp19
sS'jd'
p20
F2456780.684050926
sS'lst'
p21
g4
(g6
S'\x00`\xe0\xb1\x86\x03&@'
tRp22
sS'vel-peaks'
p23
cnumpy.core.multiarray
_reconstruct
p24
(cnumpy
ndarray
p25
(I0
tS'b'
tRp26
(I1
(I1
tg6
I00
S'\xc8V\xa9\x1a]\xddJ@'
tbsS'grid'
p27
(I16
I24
tp28
sS'fname'
p29
S'data_l_266.60_b_032.00_grid_016_024'
p30
sS'time'
p31
ctime
struct_time
p32
((I2014
I5
I2
I21
I25
I2
I4
I122
I1
t(dtRp33
sS'f_low'
p34
F1268.9000000000001
sS'T_Sys_Right'
p35
g4
(g6
S'\x9c\x92 &G\x06r@'
tRp36
sS'f_high'
p37
F1271.9000000000001
sS'col-density'
p38
g4
(g6
S'\x04\xcaG/\x80\x95AD'
tRp39
s.