(dp1
S'n_obs'
p2
I87
sS'dispersion'
p3
cnumpy.core.multiarray
scalar
p4
(cnumpy
dtype
p5
(S'f8'
I0
I1
tRp6
(I3
S'<'
NNNI-1
I-1
I0
tbS'\xcf\x10\xb9\xe3^\xc1(@'
tRp7
sS'b'
F8
sS'n_cal'
p8
I9
sS'vel-center'
p9
g4
(g6
S'\x08\xb0\xfd\x0fMVO\xc0'
tRp10
sS'rec-success'
p11
I01
sS'unixtime'
p12
F1399296406.1394329
sS'G_Right'
p13
g4
(g6
S'\xfc\xea\r\xdek\x99\xfc?'
tRp14
sS'l'
g4
(g6
S'@-\x8f\x0b\xaa\xa63@'
tRp15
sS'G_Left'
p16
g4
(g6
S'\xe5\x18\xd8\x83\x0c\xe7\xe1?'
tRp17
sS'T_Sys_Left'
p18
g4
(g6
S'\x96x\x12\x03E\x91n@'
tRp19
sS'jd'
p20
F2456783.0602546297
sS'lst'
p21
g4
(g6
S'\x00P_e!14@'
tRp22
sS'vel-peaks'
p23
cnumpy.core.multiarray
_reconstruct
p24
(cnumpy
ndarray
p25
(I0
tS'b'
tRp26
(I1
(I1
tg6
I00
S'\x97v\x83\xd3Z\xe6P\xc0'
tbsS'grid'
p27
(I4
I84
tp28
sS'fname'
p29
S'data_l_019.65_b_008.00_grid_004_084'
p30
sS'time'
p31
ctime
struct_time
p32
((I2014
I5
I5
I6
I26
I46
I0
I125
I1
t(dtRp33
sS'f_low'
p34
F1268.9000000000001
sS'T_Sys_Right'
p35
g4
(g6
S'\xef\xef\xdb\xf7X\x18p@'
tRp36
sS'f_high'
p37
F1271.9000000000001
sS'col-density'
p38
g4
(g6
S'\x0f\x9d\xcc%\xc9\xd6`D'
tRp39
s.