(dp1
S'n_obs'
p2
I87
sS'dispersion'
p3
cnumpy.core.multiarray
scalar
p4
(cnumpy
dtype
p5
(S'f8'
I0
I1
tRp6
(I3
S'<'
NNNI-1
I-1
I0
tbS'\x97\xc4\\\xc1\xf9>"@'
tRp7
sS'b'
F34
sS'n_cal'
p8
I9
sS'vel-center'
p9
g4
(g6
S'\xfc\xf9\xd2\x14[cG\xc0'
tRp10
sS'rec-success'
p11
I01
sS'unixtime'
p12
F1399293795.1855819
sS'G_Right'
p13
g4
(g6
S';\x0c\x9f\xc7\xfb]\xf6?'
tRp14
sS'l'
g4
(g6
S'\xb0\xa7\xde\x99j\x961@'
tRp15
sS'G_Left'
p16
g4
(g6
S'\xc4I\xbb\x89\x07\xe4\xe6?'
tRp17
sS'T_Sys_Left'
p18
g4
(g6
S',7\x0b\xfc\xe4-o@'
tRp19
sS'jd'
p20
F2456783.0300347223
sS'lst'
p21
g4
(g6
S'\x00@*t\xf3v3@'
tRp22
sS'vel-peaks'
p23
cnumpy.core.multiarray
_reconstruct
p24
(cnumpy
ndarray
p25
(I0
tS'b'
tRp26
(I1
(I1
tg6
I00
S'P~\x11\x13\xf4\xf5H\xc0'
tbsS'grid'
p27
(I17
I1
tp28
sS'fname'
p29
S'data_l_017.59_b_034.00_grid_017_001'
p30
sS'time'
p31
ctime
struct_time
p32
((I2014
I5
I5
I5
I43
I15
I0
I125
I1
t(dtRp33
sS'f_low'
p34
F1268.9000000000001
sS'T_Sys_Right'
p35
g4
(g6
S'\xafB\xf0\xee\x17<m@'
tRp36
sS'f_high'
p37
F1271.9000000000001
sS'col-density'
p38
g4
(g6
S'h\xce\x97h\xc3\x82=D'
tRp39
s.