(dp1
S'n_obs'
p2
I87
sS'dispersion'
p3
cnumpy.core.multiarray
scalar
p4
(cnumpy
dtype
p5
(S'f8'
I0
I1
tRp6
(I3
S'<'
NNNI-1
I-1
I0
tbS'\xab\x0f\xe6K\xb0\x93:@'
tRp7
sS'b'
F2
sS'n_cal'
p8
I9
sS'vel-center'
p9
g4
(g6
S'\xf8\x9e\xa8\x96N\xefK\xc0'
tRp10
sS'rec-success'
p11
I01
sS'unixtime'
p12
F1399285530.3115599
sS'G_Right'
p13
g4
(g6
S'\xc8\xc0\x85\xed\xb6\x1e\x01@'
tRp14
sS'l'
g4
(g6
S'\xc0\r\x86\xa2 \xfe+@'
tRp15
sS'G_Left'
p16
g4
(g6
S'\x8d\xafx\x92\x15\xe8\xdd?'
tRp17
sS'T_Sys_Left'
p18
g4
(g6
S'4\xc1\x10{\x02\xbeq@'
tRp19
sS'jd'
p20
F2456782.9343750002
sS'lst'
p21
g4
(g6
S'\x00`\x87\xc6\x9b)1@'
tRp22
sS'vel-peaks'
p23
cnumpy.core.multiarray
_reconstruct
p24
(cnumpy
ndarray
p25
(I0
tS'b'
tRp26
(I1
(I2
tg6
I00
S'\xd8\xe4!^\xae\xfaJ\xc0\xfd\x82\xe2\xca\xc0%V\xc0'
tbsS'grid'
p27
(I1
I3
tp28
sS'fname'
p29
S'data_l_014.00_b_002.00_grid_001_003'
p30
sS'time'
p31
ctime
struct_time
p32
((I2014
I5
I5
I3
I25
I30
I0
I125
I1
t(dtRp33
sS'f_low'
p34
F1268.9000000000001
sS'T_Sys_Right'
p35
g4
(g6
S'?\xdd\x15\x9f6\xa2q@'
tRp36
sS'f_high'
p37
F1271.9000000000001
sS'col-density'
p38
g4
(g6
S'z>\x8bL\xf2\xf8xD'
tRp39
s.