(dp1
S'n_obs'
p2
I87
sS'dispersion'
p3
cnumpy.core.multiarray
scalar
p4
(cnumpy
dtype
p5
(S'f8'
I0
I1
tRp6
(I3
S'<'
NNNI-1
I-1
I0
tbS'\x1a\xe3\x0f\r\xd3$!@'
tRp7
sS'b'
F56
sS'n_cal'
p8
I9
sS'vel-center'
p9
g4
(g6
S'_3\x13\x0f\xc1\xe8I@'
tRp10
sS'rec-success'
p11
I01
sS'unixtime'
p12
F1399271303.233834
sS'G_Right'
p13
g4
(g6
S'\xbb%Tj\x9f\x15\xfe?'
tRp14
sS'l'
g4
(g6
S'\x90\xac\x90\xf6\x9a\xd3m@'
tRp15
sS'G_Left'
p16
g4
(g6
S'`\x84\x18\xdf\xcc\x04\xe1?'
tRp17
sS'T_Sys_Left'
p18
g4
(g6
S'\xe9\xea\x97\x17I\xban@'
tRp19
sS'jd'
p20
F2456782.7697106479
sS'lst'
p21
g4
(g6
S'\x00 f\x14Hf*@'
tRp22
sS'vel-peaks'
p23
cnumpy.core.multiarray
_reconstruct
p24
(cnumpy
ndarray
p25
(I0
tS'b'
tRp26
(I1
(I1
tg6
I00
S'|\xbde\xe3\x0b\xdeI@'
tbsS'grid'
p27
(I28
I8
tp28
sS'fname'
p29
S'data_l_238.61_b_056.00_grid_028_008'
p30
sS'time'
p31
ctime
struct_time
p32
((I2014
I5
I4
I23
I28
I23
I6
I124
I1
t(dtRp33
sS'f_low'
p34
F1268.9000000000001
sS'T_Sys_Right'
p35
g4
(g6
S'\x1c\xcfS\xd7O$p@'
tRp36
sS'f_high'
p37
F1271.9000000000001
sS'col-density'
p38
g4
(g6
S'e3\xed^\xcdr+D'
tRp39
s.