(dp1
S'n_obs'
p2
I87
sS'dispersion'
p3
cnumpy.core.multiarray
scalar
p4
(cnumpy
dtype
p5
(S'f8'
I0
I1
tRp6
(I3
S'<'
NNNI-1
I-1
I0
tbS'4\xf3\x87s\x01\xe1#@'
tRp7
sS'b'
F18
sS'n_cal'
p8
I9
sS'vel-center'
p9
g4
(g6
S'\x90;\xdf\x01\xf8\xf8H\xc0'
tRp10
sS'rec-success'
p11
I01
sS'unixtime'
p12
F1399290006.3312521
sS'G_Right'
p13
g4
(g6
S'\xda\x05\x0f\xcc?\x02\xff?'
tRp14
sS'l'
g4
(g6
S'\x00*\xa8\n\xcb-\xf1?'
tRp15
sS'G_Left'
p16
g4
(g6
S'\xa9N\xd1X\xee\x82\xe0?'
tRp17
sS'T_Sys_Left'
p18
g4
(g6
S'\xe4\xaa\xb2\xc1\xa5|o@'
tRp19
sS'jd'
p20
F2456782.9861805555
sS'lst'
p21
g4
(g6
S'\x00p;\xf6\xc5h2@'
tRp22
sS'vel-peaks'
p23
cnumpy.core.multiarray
_reconstruct
p24
(cnumpy
ndarray
p25
(I0
tS'b'
tRp26
(I1
(I1
tg6
I00
S'\xa2\t/\xf1\xae\xc8H\xc0'
tbsS'grid'
p27
(I9
I9
tp28
sS'fname'
p29
S'data_l_001.07_b_018.00_grid_009_009'
p30
sS'time'
p31
ctime
struct_time
p32
((I2014
I5
I5
I4
I40
I6
I0
I125
I1
t(dtRp33
sS'f_low'
p34
F1268.9000000000001
sS'T_Sys_Right'
p35
g4
(g6
S"np\xc0H\x94'p@"
tRp36
sS'f_high'
p37
F1271.9000000000001
sS'col-density'
p38
g4
(g6
S'X\xfd\xc7\xc2\x07\x98TD'
tRp39
s.