(dp1
S'n_obs'
p2
I87
sS'dispersion'
p3
cnumpy.core.multiarray
scalar
p4
(cnumpy
dtype
p5
(S'f8'
I0
I1
tRp6
(I3
S'<'
NNNI-1
I-1
I0
tbS'\t\xc0\x88\xeds\x9a-@'
tRp7
sS'b'
F52
sS'n_cal'
p8
I9
sS'vel-center'
p9
g4
(g6
S'\xe3\xd3~lUBK@'
tRp10
sS'rec-success'
p11
I01
sS'unixtime'
p12
F1399269410.9043479
sS'G_Right'
p13
g4
(g6
S'vl\x03\x9e7"\xfd?'
tRp14
sS'l'
g4
(g6
S'\x9e\x9f\xfc\r\xe8\x0fk@'
tRp15
sS'G_Left'
p16
g4
(g6
S'\x94\xc4\xbf\xff\xfc\x92\xe1?'
tRp17
sS'T_Sys_Left'
p18
g4
(g6
S'\xae\xa3\x98\xe7\xc7\xf8m@'
tRp19
sS'jd'
p20
F2456782.7478009257
sS'lst'
p21
g4
(g6
S'\x00\xc0\xdeYQX)@'
tRp22
sS'vel-peaks'
p23
cnumpy.core.multiarray
_reconstruct
p24
(cnumpy
ndarray
p25
(I0
tS'b'
tRp26
(I1
(I1
tg6
I00
S'\x16\x1c\x14\xb0\xda\x88N@'
tbsS'grid'
p27
(I26
I2
tp28
sS'fname'
p29
S'data_l_216.50_b_052.00_grid_026_002'
p30
sS'time'
p31
ctime
struct_time
p32
((I2014
I5
I4
I22
I56
I50
I6
I124
I1
t(dtRp33
sS'f_low'
p34
F1268.9000000000001
sS'T_Sys_Right'
p35
g4
(g6
S'|/\x11l$\xb6o@'
tRp36
sS'f_high'
p37
F1271.9000000000001
sS'col-density'
p38
g4
(g6
S'e\xe9\xf2c\r\x050D'
tRp39
s.