(dp1
S'n_obs'
p2
I87
sS'dispersion'
p3
cnumpy.core.multiarray
scalar
p4
(cnumpy
dtype
p5
(S'f8'
I0
I1
tRp6
(I3
S'<'
NNNI-1
I-1
I0
tbS'-7O\x16\x11\xc12@'
tRp7
sS'b'
F52
sS'n_cal'
p8
I9
sS'vel-center'
p9
g4
(g6
S'/\x07=\xc5w\x08 \xc0'
tRp10
sS'rec-success'
p11
I01
sS'unixtime'
p12
F1399106256.002099
sS'G_Right'
p13
g4
(g6
S'\xcfdQ\xf0\\\xc0\x01@'
tRp14
sS'l'
g4
(g6
S'\x83\x9c\xe1}(ot@'
tRp15
sS'G_Left'
p16
g4
(g6
S'\xd7\xfb\xd0\x83\xbf\xd7\xdc?'
tRp17
sS'T_Sys_Left'
p18
g4
(g6
S'\x82\xc0\x9f1R(p@'
tRp19
sS'jd'
p20
F2456780.8594444445
sS'lst'
p21
g4
(g6
S'\x00\xe0\xac\x9c\xa9t.@'
tRp22
sS'vel-peaks'
p23
cnumpy.core.multiarray
_reconstruct
p24
(cnumpy
ndarray
p25
(I0
tS'b'
tRp26
(I1
(I1
tg6
I00
S'r)\x16\x7f\x13\x98\xfc\xbf'
tbsS'grid'
p27
(I26
I36
tp28
sS'fname'
p29
S'data_l_326.95_b_052.00_grid_026_036'
p30
sS'time'
p31
ctime
struct_time
p32
((I2014
I5
I3
I1
I37
I36
I5
I123
I1
t(dtRp33
sS'f_low'
p34
F1268.9000000000001
sS'T_Sys_Right'
p35
g4
(g6
S'\xd0Fv.\xc4\xd5p@'
tRp36
sS'f_high'
p37
F1271.9000000000001
sS'col-density'
p38
g4
(g6
S'\xd1\xce\x059\xb7\xbe6D'
tRp39
s.