(dp1
S'n_obs'
p2
I87
sS'dispersion'
p3
cnumpy.core.multiarray
scalar
p4
(cnumpy
dtype
p5
(S'f8'
I0
I1
tRp6
(I3
S'<'
NNNI-1
I-1
I0
tbS'\xf7\xc0\x1e\x08\x9eL#@'
tRp7
sS'b'
F24
sS'n_cal'
p8
I9
sS'vel-center'
p9
g4
(g6
S'\x1f\xb3\xbd+\xa3yU@'
tRp10
sS'rec-success'
p11
I01
sS'unixtime'
p12
F1399266758.706749
sS'G_Right'
p13
g4
(g6
S'^\x8d1{\x86`\xfb?'
tRp14
sS'l'
g4
(g6
S'\xb0e\x92*tpl@'
tRp15
sS'G_Left'
p16
g4
(g6
S'\xb4\xe5[\xcd\xa8\xb3\xe2?'
tRp17
sS'T_Sys_Left'
p18
g4
(g6
S'\x96\xa3`\x82\xb2\xe8n@'
tRp19
sS'jd'
p20
F2456782.7171064815
sS'lst'
p21
g4
(g6
S"\x00\xa0\xab\x9d\x1c\xde'@"
tRp22
sS'vel-peaks'
p23
cnumpy.core.multiarray
_reconstruct
p24
(cnumpy
ndarray
p25
(I0
tS'b'
tRp26
(I1
(I1
tg6
I00
S'\x94\x88yTj`U@'
tbsS'grid'
p27
(I12
I8
tp28
sS'fname'
p29
S'data_l_227.51_b_024.00_grid_012_008'
p30
sS'time'
p31
ctime
struct_time
p32
((I2014
I5
I4
I22
I12
I38
I6
I124
I1
t(dtRp33
sS'f_low'
p34
F1268.9000000000001
sS'T_Sys_Right'
p35
g4
(g6
S'\x9c\x8et\xe4\xca\xe8o@'
tRp36
sS'f_high'
p37
F1271.9000000000001
sS'col-density'
p38
g4
(g6
S'\xa6\x1c\xba\x9a)\x921D'
tRp39
s.