(dp1
S'n_obs'
p2
I87
sS'dispersion'
p3
cnumpy.core.multiarray
scalar
p4
(cnumpy
dtype
p5
(S'f8'
I0
I1
tRp6
(I3
S'<'
NNNI-1
I-1
I0
tbS'm8X]\xdc#/@'
tRp7
sS'b'
F48
sS'n_cal'
p8
I9
sS'vel-center'
p9
g4
(g6
S'\x02\xc7\xe5\xb2\xda\xdf(\xc0'
tRp10
sS'rec-success'
p11
I01
sS'unixtime'
p12
F1399195562.507201
sS'G_Right'
p13
g4
(g6
S'\x9d\x14k\xcf\xc6\x1e\x00@'
tRp14
sS'l'
g4
(g6
S'$\x1dd\x94\x93\xf8t@'
tRp15
sS'G_Left'
p16
g4
(g6
S'\x9c\xd3}\xe5\xe7\xc2\xdf?'
tRp17
sS'T_Sys_Left'
p18
g4
(g6
S'\x8e\xb9\x88\xcd\xd0\xcdo@'
tRp19
sS'jd'
p20
F2456781.8930787034
sS'lst'
p21
g4
(g6
S'\x00\xe0\n\x1f^\x1a0@'
tRp22
sS'vel-peaks'
p23
cnumpy.core.multiarray
_reconstruct
p24
(cnumpy
ndarray
p25
(I0
tS'b'
tRp26
(I1
(I1
tg6
I00
S'L\x98\x9f\x9a\x8f\xe7%\xc0'
tbsS'grid'
p27
(I24
I42
tp28
sS'fname'
p29
S'data_l_335.54_b_048.00_grid_024_042'
p30
sS'time'
p31
ctime
struct_time
p32
((I2014
I5
I4
I2
I26
I2
I6
I124
I1
t(dtRp33
sS'f_low'
p34
F1268.9000000000001
sS'T_Sys_Right'
p35
g4
(g6
S'\x8a\x8e\r@*\xdbp@'
tRp36
sS'f_high'
p37
F1271.9000000000001
sS'col-density'
p38
g4
(g6
S'N\xeas\x850\x87<D'
tRp39
s.