(dp1
S'n_obs'
p2
I87
sS'dispersion'
p3
cnumpy.core.multiarray
scalar
p4
(cnumpy
dtype
p5
(S'f8'
I0
I1
tRp6
(I3
S'<'
NNNI-1
I-1
I0
tbS'$\xa2\xca\xeb\xa0}0@'
tRp7
sS'b'
F40
sS'n_cal'
p8
I9
sS'vel-center'
p9
g4
(g6
S'&\xc2.\xdd^vP@'
tRp10
sS'rec-success'
p11
I01
sS'unixtime'
p12
F1399093646.5271139
sS'G_Right'
p13
g4
(g6
S'\xf6Rg\xe3\xdc\x8d\x01@'
tRp14
sS'l'
g4
(g6
S'd\xa4\x0f,/\x8ek@'
tRp15
sS'G_Left'
p16
g4
(g6
S'Mx\\A\xb9*\xdd?'
tRp17
sS'T_Sys_Left'
p18
g4
(g6
S'\x8f\xabf\xf2\xf1_m@'
tRp19
sS'jd'
p20
F2456780.7134953705
sS'lst'
p21
g4
(g6
S"\x00\xc0A\x81Tn'@"
tRp22
sS'vel-peaks'
p23
cnumpy.core.multiarray
_reconstruct
p24
(cnumpy
ndarray
p25
(I0
tS'b'
tRp26
(I1
(I1
tg6
I00
S'\x10\xfa\xcev\xf1\x9cR@'
tbsS'grid'
p27
(I20
I4
tp28
sS'fname'
p29
S'data_l_220.44_b_040.00_grid_020_004'
p30
sS'time'
p31
ctime
struct_time
p32
((I2014
I5
I2
I22
I7
I26
I4
I122
I1
t(dtRp33
sS'f_low'
p34
F1268.9000000000001
sS'T_Sys_Right'
p35
g4
(g6
S'\xf5\xd3K\xcb\xfeZq@'
tRp36
sS'f_high'
p37
F1271.9000000000001
sS'col-density'
p38
g4
(g6
S'\xee\xb6\x8c\xac\x10\xce5D'
tRp39
s.