(dp1
S'n_obs'
p2
I174
sS'dispersion'
p3
cnumpy.core.multiarray
scalar
p4
(cnumpy
dtype
p5
(S'f8'
I0
I1
tRp6
(I3
S'<'
NNNI-1
I-1
I0
tbS'\xb1\x1b\xd8\x8d\xebr<@'
tRp7
sS'b'
F6
sS'fname'
p8
S'data_l_237.22_b_006.00_grid_003_071'
p9
sS'vel-center'
p10
g4
(g6
S'\xe4+\xc5\x9ah\xa1]@'
tRp11
sS'rec-success'
p12
I01
sS'unixtime'
p13
F1398657000
sS'G_Right'
p14
g4
(g6
S'\x01(\xae\x0cVh\xf9?'
tRp15
sS'l'
g4
(g6
S'\x08\xa9\xabj\xf8\xa6m@'
tRp16
sS'G_Left'
p17
g4
(g6
S'\x90\xa8\x14f\xc7&\xe4?'
tRp18
sS'T_Sys_Left'
p19
g4
(g6
S'W|\x8fr\xac\x06s@'
tRp20
sS'jd'
p21
F2456775.659722222
sS'lst'
p22
g4
(g6
S'\x00\xa0!\x15\x8a/$@'
tRp23
sS'vel-peaks'
p24
cnumpy.core.multiarray
_reconstruct
p25
(cnumpy
ndarray
p26
(I0
tS'b'
tRp27
(I1
(I3
tg6
I00
S'\xeeeYvq\x9e_@\xdcS\x8f\x15\x8e\xf8X@w1\xc3\x05\xfbhT@'
tbsS'grid'
p28
(I3
I71
tp29
sS'n_cal'
p30
I18
sS'time'
p31
ctime
struct_time
p32
((I2014
I4
I27
I20
I50
I0
I6
I117
I1
t(dtRp33
sS'f_low'
p34
F1268.9000000000001
sS'T_Sys_Right'
p35
g4
(g6
S'\xdb/\xf7 \x83\xe3x@'
tRp36
sS'f_high'
p37
F1271.9000000000001
sS'col-density'
p38
g4
(g6
S'\xb0\x9f\x1ai\x0b\x89bD'
tRp39
s.