(dp1
S'n_obs'
p2
I87
sS'dispersion'
p3
cnumpy.core.multiarray
scalar
p4
(cnumpy
dtype
p5
(S'f8'
I0
I1
tRp6
(I3
S'<'
NNNI-1
I-1
I0
tbS"\xdf\x9a\x84\xd7\xa6#'@"
tRp7
sS'b'
F16
sS'n_cal'
p8
I9
sS'vel-center'
p9
g4
(g6
S'\x17\xd7\xdf\xf2\x87sV@'
tRp10
sS'rec-success'
p11
I01
sS'unixtime'
p12
F1399179628.324321
sS'G_Right'
p13
g4
(g6
S'\x9b^\x92i{v\xfe?'
tRp14
sS'l'
g4
(g6
S'>\xc10\xb9\x1b\xe4m@'
tRp15
sS'G_Left'
p16
g4
(g6
S'`@Z\x05\xb0\xce\xe0?'
tRp17
sS'T_Sys_Left'
p18
g4
(g6
S'\xec\x03b\xc8\x17Fn@'
tRp19
sS'jd'
p20
F2456781.7086574072
sS'lst'
p21
g4
(g6
S"\x00`v\xa3\\T'@"
tRp22
sS'vel-peaks'
p23
cnumpy.core.multiarray
_reconstruct
p24
(cnumpy
ndarray
p25
(I0
tS'b'
tRp26
(I1
(I1
tg6
I00
S'eG\xc2W\x0bXU@'
tbsS'grid'
p27
(I8
I14
tp28
sS'fname'
p29
S'data_l_239.13_b_016.00_grid_008_014'
p30
sS'time'
p31
ctime
struct_time
p32
((I2014
I5
I3
I22
I0
I28
I5
I123
I1
t(dtRp33
sS'f_low'
p34
F1268.9000000000001
sS'T_Sys_Right'
p35
g4
(g6
S'o\x8c8\x96\xbc"n@'
tRp36
sS'f_high'
p37
F1271.9000000000001
sS'col-density'
p38
g4
(g6
S'\xbd\xed\x18n\x99\xbf:D'
tRp39
s.