(dp1
S'n_obs'
p2
I87
sS'dispersion'
p3
cnumpy.core.multiarray
scalar
p4
(cnumpy
dtype
p5
(S'f8'
I0
I1
tRp6
(I3
S'<'
NNNI-1
I-1
I0
tbS'\xdf\xd5\x92\r\x17\x9d"@'
tRp7
sS'b'
F72
sS'n_cal'
p8
I9
sS'vel-center'
p9
g4
(g6
S"{\xefO\x82\x14G'@"
tRp10
sS'rec-success'
p11
I01
sS'unixtime'
p12
F1399281507.9748299
sS'G_Right'
p13
g4
(g6
S'#4#\xbe\xef=\xf5?'
tRp14
sS'l'
g4
(g6
S',\xfd\xe5\xe6\xdd\x98s@'
tRp15
sS'G_Left'
p16
g4
(g6
S'\x06+\xf4Go\x1a\xe8?'
tRp17
sS'T_Sys_Left'
p18
g4
(g6
S'\x9b\x04\x92\x8deno@'
tRp19
sS'jd'
p20
F2456782.8878124999
sS'lst'
p21
g4
(g6
S'\x00\x90\xba\xc7\xbe\n0@'
tRp22
sS'vel-peaks'
p23
cnumpy.core.multiarray
_reconstruct
p24
(cnumpy
ndarray
p25
(I0
tS'b'
tRp26
(I1
(I1
tg6
I00
S'\x0b\xb77*\x1f\x010@'
tbsS'grid'
p27
(I36
I16
tp28
sS'fname'
p29
S'data_l_313.55_b_072.00_grid_036_016'
p30
sS'time'
p31
ctime
struct_time
p32
((I2014
I5
I5
I2
I18
I27
I0
I125
I1
t(dtRp33
sS'f_low'
p34
F1268.9000000000001
sS'T_Sys_Right'
p35
g4
(g6
S'gF\xbe\x92E\xb4m@'
tRp36
sS'f_high'
p37
F1271.9000000000001
sS'col-density'
p38
g4
(g6
S'D\xf9I\x99\x81\xf5$D'
tRp39
s.