(dp1
S'n_obs'
p2
I87
sS'dispersion'
p3
cnumpy.core.multiarray
scalar
p4
(cnumpy
dtype
p5
(S'f8'
I0
I1
tRp6
(I3
S'<'
NNNI-1
I-1
I0
tbS'\xe5\x8b\xa32\xc8\x99-@'
tRp7
sS'b'
F68
sS'n_cal'
p8
I9
sS'vel-center'
p9
g4
(g6
S'\x0f\x97\xad\xfb\to2\xc0'
tRp10
sS'rec-success'
p11
I01
sS'unixtime'
p12
F1399198579.6084149
sS'G_Right'
p13
g4
(g6
S'M\xbc\xedFQ\x80\xfa?'
tRp14
sS'l'
g4
(g6
S'44+\xb3\xd7wv@'
tRp15
sS'G_Left'
p16
g4
(g6
S'\xc8\xc0\xdb\xb9\xe1Q\xe3?'
tRp17
sS'T_Sys_Left'
p18
g4
(g6
S"'\x8es\x10\x0f3m@"
tRp19
sS'jd'
p20
F2456781.927997685
sS'lst'
p21
g4
(g6
S'\x00\xf0\xd3M\x7f\xf10@'
tRp22
sS'vel-peaks'
p23
cnumpy.core.multiarray
_reconstruct
p24
(cnumpy
ndarray
p25
(I0
tS'b'
tRp26
(I1
(I1
tg6
I00
S'\xc6\x8fp\x93*\x1d\x15\xc0'
tbsS'grid'
p27
(I34
I28
tp28
sS'fname'
p29
S'data_l_359.49_b_068.00_grid_034_028'
p30
sS'time'
p31
ctime
struct_time
p32
((I2014
I5
I4
I3
I16
I19
I6
I124
I1
t(dtRp33
sS'f_low'
p34
F1268.9000000000001
sS'T_Sys_Right'
p35
g4
(g6
S"\xe8\xf2\xec$',q@"
tRp36
sS'f_high'
p37
F1271.9000000000001
sS'col-density'
p38
g4
(g6
S'o\x9d=\xe6\x84\x04-D'
tRp39
s.