(dp1
S'n_obs'
p2
I87
sS'dispersion'
p3
cnumpy.core.multiarray
scalar
p4
(cnumpy
dtype
p5
(S'f8'
I0
I1
tRp6
(I3
S'<'
NNNI-1
I-1
I0
tbS'g\xb2G\xb9(\xa0$@'
tRp7
sS'b'
F40
sS'n_cal'
p8
I9
sS'vel-center'
p9
g4
(g6
S'c\x10"\x8a\xc5v;\xc0'
tRp10
sS'rec-success'
p11
I01
sS'unixtime'
p12
F1399188785.21084
sS'G_Right'
p13
g4
(g6
S'\n\x83\x99\x10\x11\xdb\x00@'
tRp14
sS'l'
g4
(g6
S'\x91\x95ii\xbe\xefu@'
tRp15
sS'G_Left'
p16
g4
(g6
S'\xd8<\xbe\x19\x1c`\xde?'
tRp17
sS'T_Sys_Left'
p18
g4
(g6
S'$M\x83\xa0|\x96o@'
tRp19
sS'jd'
p20
F2456781.8146412037
sS'lst'
p21
g4
(g6
S'\x00\xa0\xb4\xa4An,@'
tRp22
sS'vel-peaks'
p23
cnumpy.core.multiarray
_reconstruct
p24
(cnumpy
ndarray
p25
(I0
tS'b'
tRp26
(I1
(I1
tg6
I00
S'\xe0c \x12\x11G;\xc0'
tbsS'grid'
p27
(I20
I54
tp28
sS'fname'
p29
S'data_l_350.98_b_040.00_grid_020_054'
p30
sS'time'
p31
ctime
struct_time
p32
((I2014
I5
I4
I0
I33
I5
I6
I124
I1
t(dtRp33
sS'f_low'
p34
F1268.9000000000001
sS'T_Sys_Right'
p35
g4
(g6
S'\xb2JLX\xfc\x80o@'
tRp36
sS'f_high'
p37
F1271.9000000000001
sS'col-density'
p38
g4
(g6
S'\xde\xfa\x17\t\xa6\x9fED'
tRp39
s.