(dp1
S'n_obs'
p2
I87
sS'dispersion'
p3
cnumpy.core.multiarray
scalar
p4
(cnumpy
dtype
p5
(S'f8'
I0
I1
tRp6
(I3
S'<'
NNNI-1
I-1
I0
tbS'\x840\xbb\x85&\xb3#@'
tRp7
sS'b'
F40
sS'n_cal'
p8
I9
sS'vel-center'
p9
g4
(g6
S'\xaf\xc9b\x98\n7C@'
tRp10
sS'rec-success'
p11
I01
sS'unixtime'
p12
F1399095060.7066419
sS'G_Right'
p13
g4
(g6
S'Y\xcbT\x12n\x99\x01@'
tRp14
sS'l'
g4
(g6
S'Y\xbf6\x1a\xa5\xb1q@'
tRp15
sS'G_Left'
p16
g4
(g6
S'\xf0\x95\xc6\xc4\x8d\x17\xdd?'
tRp17
sS'T_Sys_Left'
p18
g4
(g6
S'=@\xb9.S\x93o@'
tRp19
sS'jd'
p20
F2456780.7298611114
sS'lst'
p21
g4
(g6
S'\x00@\xbb\xa0\xfb7(@'
tRp22
sS'vel-peaks'
p23
cnumpy.core.multiarray
_reconstruct
p24
(cnumpy
ndarray
p25
(I0
tS'b'
tRp26
(I1
(I1
tg6
I00
S'\xda\xe6\x1d\xefo\x84C@'
tbsS'grid'
p27
(I20
I28
tp28
sS'fname'
p29
S'data_l_283.10_b_040.00_grid_020_028'
p30
sS'time'
p31
ctime
struct_time
p32
((I2014
I5
I2
I22
I31
I0
I4
I122
I1
t(dtRp33
sS'f_low'
p34
F1268.9000000000001
sS'T_Sys_Right'
p35
g4
(g6
S'8\xa3 \xb5\xcc\xb6q@'
tRp36
sS'f_high'
p37
F1271.9000000000001
sS'col-density'
p38
g4
(g6
S'\t\xbcm\xabA\x806D'
tRp39
s.