(dp1
S'n_obs'
p2
I87
sS'dispersion'
p3
cnumpy.core.multiarray
scalar
p4
(cnumpy
dtype
p5
(S'f8'
I0
I1
tRp6
(I3
S'<'
NNNI-1
I-1
I0
tbS'\x07\xa7\x90\x14yp.@'
tRp7
sS'b'
F64
sS'n_cal'
p8
I9
sS'vel-center'
p9
g4
(g6
S'\x9ep-\xf08\x88-\xc0'
tRp10
sS'rec-success'
p11
I01
sS'unixtime'
p12
F1399113759.6097679
sS'G_Right'
p13
g4
(g6
S'\x00\x9a\x14\xbd}\x18\xfd?'
tRp14
sS'l'
g4
(g6
S'\x86\xd0\xb8\xd6\xec\xadu@'
tRp15
sS'G_Left'
p16
g4
(g6
S'\x07\xddD\xeb\xdc\x98\xe1?'
tRp17
sS'T_Sys_Left'
p18
g4
(g6
S'f:\xbfe0\x02o@'
tRp19
sS'jd'
p20
F2456780.9462847221
sS'lst'
p21
g4
(g6
S'\x00\x00\xbc\xb7VQ1@'
tRp22
sS'vel-peaks'
p23
cnumpy.core.multiarray
_reconstruct
p24
(cnumpy
ndarray
p25
(I0
tS'b'
tRp26
(I1
(I1
tg6
I00
S'Rtj\xd6R\x80\x15\xc0'
tbsS'grid'
p27
(I32
I30
tp28
sS'fname'
p29
S'data_l_346.87_b_064.00_grid_032_030'
p30
sS'time'
p31
ctime
struct_time
p32
((I2014
I5
I3
I3
I42
I39
I5
I123
I1
t(dtRp33
sS'f_low'
p34
F1268.9000000000001
sS'T_Sys_Right'
p35
g4
(g6
S'F>\x11"\xea\xe8p@'
tRp36
sS'f_high'
p37
F1271.9000000000001
sS'col-density'
p38
g4
(g6
S'z\xcb\x98\x96\x89\xe40D'
tRp39
s.