(dp1
S'n_obs'
p2
I87
sS'dispersion'
p3
cnumpy.core.multiarray
scalar
p4
(cnumpy
dtype
p5
(S'f8'
I0
I1
tRp6
(I3
S'<'
NNNI-1
I-1
I0
tbS'?\xda\x7f_}\xf1 @'
tRp7
sS'b'
F30
sS'fname'
p8
S'data_l_001.52_b_030.00_grid_015_008'
p9
sS'vel-center'
p10
g4
(g6
S'\x9aH|\xf9orH\xc0'
tRp11
sS'rec-success'
p12
I01
sS'unixtime'
p13
F1398754024
sS'G_Right'
p14
g4
(g6
S'C\x92J\x10\xbe\x16\xff?'
tRp15
sS'l'
g4
(g6
S'\x00\xd0\xfc\xa6\x8be\xf8?'
tRp16
sS'G_Left'
p17
g4
(g6
S'\xae\xc5\xc7\x06\x0cx\xe0?'
tRp18
sS'T_Sys_Left'
p19
g4
(g6
S'\x06\xd6\xb7\n\xbaEf@'
tRp20
sS'jd'
p21
F2456776.7826388888
sS'lst'
p22
g4
(g6
S'\x00@\x01\xd9\xb7;*@'
tRp23
sS'vel-peaks'
p24
cnumpy.core.multiarray
_reconstruct
p25
(cnumpy
ndarray
p26
(I0
tS'b'
tRp27
(I1
(I1
tg6
I00
S'\xae<\xcf\x10W\x08H\xc0'
tbsS'grid'
p28
(I15
I8
tp29
sS'n_cal'
p30
I9
sS'time'
p31
ctime
struct_time
p32
((I2014
I4
I28
I23
I47
I4
I0
I118
I1
t(dtRp33
sS'f_low'
p34
F1268.9000000000001
sS'T_Sys_Right'
p35
g4
(g6
S'Y\xc3c4\x10K\x8f@'
tRp36
sS'f_high'
p37
F1271.9000000000001
sS'col-density'
p38
g4
(g6
S'\xf9\xcf\x19\xfa\xbf\xeebD'
tRp39
s.