(dp1
S'n_obs'
p2
I87
sS'dispersion'
p3
cnumpy.core.multiarray
scalar
p4
(cnumpy
dtype
p5
(S'f8'
I0
I1
tRp6
(I3
S'<'
NNNI-1
I-1
I0
tbS'\xe4\xdb\xe2\x12\xd9\x8c%@'
tRp7
sS'b'
F10
sS'n_cal'
p8
I9
sS'vel-center'
p9
g4
(g6
S'{\x9e7\xdc\xfbvN\xc0'
tRp10
sS'rec-success'
p11
I01
sS'unixtime'
p12
F1399299858.7500851
sS'G_Right'
p13
g4
(g6
S'(A\x0b/\x02\xb0\xf8?'
tRp14
sS'l'
g4
(g6
S'\x80\xb33\x03h\xe0/@'
tRp15
sS'G_Left'
p16
g4
(g6
S'\x17\xd2\x03\x08=\xbd\xe4?'
tRp17
sS'T_Sys_Left'
p18
g4
(g6
S'/\xa1CU1\x04p@'
tRp19
sS'jd'
p20
F2456783.1002083337
sS'lst'
p21
g4
(g6
S"\x00p\x931G'5@"
tRp22
sS'vel-peaks'
p23
cnumpy.core.multiarray
_reconstruct
p24
(cnumpy
ndarray
p25
(I0
tS'b'
tRp26
(I1
(I1
tg6
I00
S'k\x9a\xa7_2\xffO\xc0'
tbsS'grid'
p27
(I5
I2
tp28
sS'fname'
p29
S'data_l_015.94_b_010.00_grid_005_002'
p30
sS'time'
p31
ctime
struct_time
p32
((I2014
I5
I5
I7
I24
I18
I0
I125
I1
t(dtRp33
sS'f_low'
p34
F1268.9000000000001
sS'T_Sys_Right'
p35
g4
(g6
S'\xa7\xc7i\x8c?}o@'
tRp36
sS'f_high'
p37
F1271.9000000000001
sS'col-density'
p38
g4
(g6
S'\xe6\x82\xf2G\xe9\xcfZD'
tRp39
s.