(dp1
S'n_obs'
p2
I87
sS'dispersion'
p3
cnumpy.core.multiarray
scalar
p4
(cnumpy
dtype
p5
(S'f8'
I0
I1
tRp6
(I3
S'<'
NNNI-1
I-1
I0
tbS'\xcd`\x8e\xc5;J2@'
tRp7
sS'b'
F52
sS'n_cal'
p8
I9
sS'vel-center'
p9
g4
(g6
S'd3\x16\xcaC\xa0\x05\xc0'
tRp10
sS'rec-success'
p11
I01
sS'unixtime'
p12
F1399105998.750978
sS'G_Right'
p13
g4
(g6
S'\xe4F\xfd\xeb#\x1b\x01@'
tRp14
sS'l'
g4
(g6
S'\xb5L\xe3v4\x07t@'
tRp15
sS'G_Left'
p16
g4
(g6
S'\x86\xd9\xb8HU\xee\xdd?'
tRp17
sS'T_Sys_Left'
p18
g4
(g6
S'\x8a2\xb4\x85 \xcdp@'
tRp19
sS'jd'
p20
F2456780.8564583333
sS'lst'
p21
g4
(g6
S'\x00 [f\xdeO.@'
tRp22
sS'vel-peaks'
p23
cnumpy.core.multiarray
_reconstruct
p24
(cnumpy
ndarray
p25
(I0
tS'b'
tRp26
(I1
(I1
tg6
I00
S'\xe2\xd1\xe9\xed\x98\xb8\x0e@'
tbsS'grid'
p27
(I26
I34
tp28
sS'fname'
p29
S'data_l_320.45_b_052.00_grid_026_034'
p30
sS'time'
p31
ctime
struct_time
p32
((I2014
I5
I3
I1
I33
I18
I5
I123
I1
t(dtRp33
sS'f_low'
p34
F1268.9000000000001
sS'T_Sys_Right'
p35
g4
(g6
S'\xabT\x1fpP\xadp@'
tRp36
sS'f_high'
p37
F1271.9000000000001
sS'col-density'
p38
g4
(g6
S"`T\xd3\xc5'\xa52D"
tRp39
s.