(dp1
S'n_obs'
p2
I87
sS'dispersion'
p3
cnumpy.core.multiarray
scalar
p4
(cnumpy
dtype
p5
(S'f8'
I0
I1
tRp6
(I3
S'<'
NNNI-1
I-1
I0
tbS'\x1fr\xe0\x85a\xb5*@'
tRp7
sS'b'
F72
sS'n_cal'
p8
I9
sS'vel-center'
p9
g4
(g6
S'\x0b.s\xcc\xe5\x83+\xc0'
tRp10
sS'rec-success'
p11
I01
sS'unixtime'
p12
F1399199733.7410481
sS'G_Right'
p13
g4
(g6
S'C\xed\x8a\xde~~\xff?'
tRp14
sS'l'
g4
(g6
S'\xa0\xb6[s\x89F2@'
tRp15
sS'G_Left'
p16
g4
(g6
S'\xa4\x14\xdf\xd3\xcaA\xe0?'
tRp17
sS'T_Sys_Left'
p18
g4
(g6
S';\x81\x1f\x05\x86]n@'
tRp19
sS'jd'
p20
F2456781.9413541667
sS'lst'
p21
g4
(g6
S'\x00\xd0B\xc0\xc8C1@'
tRp22
sS'vel-peaks'
p23
cnumpy.core.multiarray
_reconstruct
p24
(cnumpy
ndarray
p25
(I0
tS'b'
tRp26
(I1
(I1
tg6
I00
S'\x06\x91\xeatT\x80 \xc0'
tbsS'grid'
p27
(I36
I26
tp28
sS'fname'
p29
S'data_l_018.28_b_072.00_grid_036_026'
p30
sS'time'
p31
ctime
struct_time
p32
((I2014
I5
I4
I3
I35
I33
I6
I124
I1
t(dtRp33
sS'f_low'
p34
F1268.9000000000001
sS'T_Sys_Right'
p35
g4
(g6
S'\x1e\xb4$C\x1e\x02p@'
tRp36
sS'f_high'
p37
F1271.9000000000001
sS'col-density'
p38
g4
(g6
S'\x15\xef,\xd0UV0D'
tRp39
s.