(dp1
S'n_obs'
p2
I87
sS'dispersion'
p3
cnumpy.core.multiarray
scalar
p4
(cnumpy
dtype
p5
(S'f8'
I0
I1
tRp6
(I3
S'<'
NNNI-1
I-1
I0
tbS'\x968*\xb4\xdf#3@'
tRp7
sS'b'
F12
sS'n_cal'
p8
I9
sS'vel-center'
p9
g4
(g6
S'\xc9Q\xf1\t\xdd\xa9X@'
tRp10
sS'rec-success'
p11
I01
sS'unixtime'
p12
F1399178658.064899
sS'G_Right'
p13
g4
(g6
S't\xd1#\x07\x82\xf4\xfc?'
tRp14
sS'l'
g4
(g6
S'\x98\xf4\xf4V(Qm@'
tRp15
sS'G_Left'
p16
g4
(g6
S'\xed?\xd79\xbb\xae\xe1?'
tRp17
sS'T_Sys_Left'
p18
g4
(g6
S'\x80\xafB_\x02Co@'
tRp19
sS'jd'
p20
F2456781.6974305557
sS'lst'
p21
g4
(g6
S'\x00\xa0\xdfR\x07\xca&@'
tRp22
sS'vel-peaks'
p23
cnumpy.core.multiarray
_reconstruct
p24
(cnumpy
ndarray
p25
(I0
tS'b'
tRp26
(I1
(I1
tg6
I00
S'4\xf9\xda\xc4\xc2\xa2U@'
tbsS'grid'
p27
(I6
I12
tp28
sS'fname'
p29
S'data_l_234.54_b_012.00_grid_006_012'
p30
sS'time'
p31
ctime
struct_time
p32
((I2014
I5
I3
I21
I44
I18
I5
I123
I1
t(dtRp33
sS'f_low'
p34
F1268.9000000000001
sS'T_Sys_Right'
p35
g4
(g6
S'A\x15cVM\x0bp@'
tRp36
sS'f_high'
p37
F1271.9000000000001
sS'col-density'
p38
g4
(g6
S'm\xc7s\xae\\\x0eFD'
tRp39
s.