(dp1
S'n_obs'
p2
I87
sS'dispersion'
p3
cnumpy.core.multiarray
scalar
p4
(cnumpy
dtype
p5
(S'f8'
I0
I1
tRp6
(I3
S'<'
NNNI-1
I-1
I0
tbS'TP86\x9f\xac(@'
tRp7
sS'b'
F52
sS'n_cal'
p8
I9
sS'vel-center'
p9
g4
(g6
S'\xa24\xc2]!TL@'
tRp10
sS'rec-success'
p11
I01
sS'unixtime'
p12
F1399269640.8915019
sS'G_Right'
p13
g4
(g6
S'L\xda\xc7\x13\x9a\x96\xfb?'
tRp14
sS'l'
g4
(g6
S'<?\xf9\x1b\xd0\xdfk@'
tRp15
sS'G_Left'
p16
g4
(g6
S'c\xe3\xd3a\x00\x8f\xe2?'
tRp17
sS'T_Sys_Left'
p18
g4
(g6
S'6\xc9f!\xe3Pq@'
tRp19
sS'jd'
p20
F2456782.7504629632
sS'lst'
p21
g4
(g6
S'\x00\x80\x07S\x1ey)@'
tRp22
sS'vel-peaks'
p23
cnumpy.core.multiarray
_reconstruct
p24
(cnumpy
ndarray
p25
(I0
tS'b'
tRp26
(I1
(I1
tg6
I00
S'\xbfE\x03D\x83\x86N@'
tbsS'grid'
p27
(I26
I4
tp28
sS'fname'
p29
S'data_l_222.99_b_052.00_grid_026_004'
p30
sS'time'
p31
ctime
struct_time
p32
((I2014
I5
I4
I23
I0
I40
I6
I124
I1
t(dtRp33
sS'f_low'
p34
F1268.9000000000001
sS'T_Sys_Right'
p35
g4
(g6
S'<\x06D\x06\xe5+o@'
tRp36
sS'f_high'
p37
F1271.9000000000001
sS'col-density'
p38
g4
(g6
S'\x87\x06\x96P\x8e\xf53D'
tRp39
s.