(dp1
S'n_obs'
p2
I87
sS'dispersion'
p3
cnumpy.core.multiarray
scalar
p4
(cnumpy
dtype
p5
(S'f8'
I0
I1
tRp6
(I3
S'<'
NNNI-1
I-1
I0
tbS'3\xf9`[S\x170@'
tRp7
sS'b'
F68
sS'n_cal'
p8
I9
sS'vel-center'
p9
g4
(g6
S'\xf9t.oDQ\x00\xc0'
tRp10
sS'rec-success'
p11
I01
sS'unixtime'
p12
F1399198118.2351229
sS'G_Right'
p13
g4
(g6
S'\xffM\x10\xa3\x1b\xc6\xfa?'
tRp14
sS'l'
g4
(g6
S'r\x84\xc6\x0cNwt@'
tRp15
sS'G_Left'
p16
g4
(g6
S'\xca\x88\xbdx\x85\x1f\xe3?'
tRp17
sS'T_Sys_Left'
p18
g4
(g6
S'\xe6\x91\xd7\xb2\xdb\xa3u@'
tRp19
sS'jd'
p20
F2456781.922662037
sS'lst'
p21
g4
(g6
S'\x00\x10\xf9\x13\xa0\xd00@'
tRp22
sS'vel-peaks'
p23
cnumpy.core.multiarray
_reconstruct
p24
(cnumpy
ndarray
p25
(I0
tS'b'
tRp26
(I1
(I1
tg6
I00
S'\xcd3\xfc\xef\xc3% @'
tbsS'grid'
p27
(I34
I22
tp28
sS'fname'
p29
S'data_l_327.46_b_068.00_grid_034_022'
p30
sS'time'
p31
ctime
struct_time
p32
((I2014
I5
I4
I3
I8
I38
I6
I124
I1
t(dtRp33
sS'f_low'
p34
F1268.9000000000001
sS'T_Sys_Right'
p35
g4
(g6
S'\x0b2\xac\x08\xd4zs@'
tRp36
sS'f_high'
p37
F1271.9000000000001
sS'col-density'
p38
g4
(g6
S'\xba\x86\xecU\xa1H5D'
tRp39
s.