(dp1
S'n_obs'
p2
I174
sS'dispersion'
p3
cnumpy.core.multiarray
scalar
p4
(cnumpy
dtype
p5
(S'f8'
I0
I1
tRp6
(I3
S'<'
NNNI-1
I-1
I0
tbS'l\x19d\x10\xc3\xf82@'
tRp7
sS'b'
F0
sS'fname'
p8
S'data_l_214.00_b_000.00_grid_000_002'
p9
sS'vel-center'
p10
g4
(g6
S"\xf1\x04\xed'B\xf3\\@"
tRp11
sS'rec-success'
p12
I01
sS'unixtime'
p13
F1398563640
sS'G_Right'
p14
g4
(g6
S"]'K\x0fJ\x07\xfd?"
tRp15
sS'l'
g4
(g6
S'\x00\x00\x00\x00\x00\xc0j@'
tRp16
sS'G_Left'
p17
g4
(g6
S']\x0b2pJ\xa3\xe1?'
tRp18
sS'T_Sys_Left'
p19
g4
(g6
S'\xe7\xdfn\x0c\xb1`r@'
tRp20
sS'jd'
p21
F2456774.5791666666
sS'lst'
p22
g4
(g6
S"\x00 '\xb2Q- @"
tRp23
sS'vel-peaks'
p24
cnumpy.core.multiarray
_reconstruct
p25
(cnumpy
ndarray
p26
(I0
tS'b'
tRp27
(I1
(I3
tg6
I00
S'\x9c>x\xa0\x85p`@&2T\xc3\x85\xee[@\x94\x9e\x91\x9d(KW@'
tbsS'grid'
p28
(I0
I2
tp29
sS'n_cal'
p30
I18
sS'time'
p31
ctime
struct_time
p32
((I2014
I4
I26
I18
I54
I0
I5
I116
I1
t(dtRp33
sS'f_low'
p34
F1268.9000000000001
sS'T_Sys_Right'
p35
g4
(g6
S'\xeb\x01\xdf\xe8\xa1\xe0p@'
tRp36
sS'f_high'
p37
F1271.9000000000001
sS'col-density'
p38
g4
(g6
S'#nn\x8f\xad\x10vD'
tRp39
s.