(dp1
S'n_obs'
p2
I87
sS'dispersion'
p3
cnumpy.core.multiarray
scalar
p4
(cnumpy
dtype
p5
(S'f8'
I0
I1
tRp6
(I3
S'<'
NNNI-1
I-1
I0
tbS'l\x81\x9b\xea?73@'
tRp7
sS'b'
F60
sS'n_cal'
p8
I9
sS'vel-center'
p9
g4
(g6
S'\x138\x8b\xe3!\x8e>@'
tRp10
sS'rec-success'
p11
I01
sS'unixtime'
p12
F1399272963.478344
sS'G_Right'
p13
g4
(g6
S'\xd1\xb4\xc6\xf1\xed2\x00@'
tRp14
sS'l'
F210
sS'G_Left'
p15
g4
(g6
S'/\xe3\x07[d\x9b\xdf?'
tRp16
sS'T_Sys_Left'
p17
g4
(g6
S'f\xc0\x7fK\xc2\x19o@'
tRp18
sS'jd'
p19
F2456782.7889236109
sS'lst'
p20
g4
(g6
S'\x00`\xb6O\x04S+@'
tRp21
sS'vel-peaks'
p22
cnumpy.core.multiarray
_reconstruct
p23
(cnumpy
ndarray
p24
(I0
tS'b'
tRp25
(I1
(I0
tg6
I00
S''
tbsS'grid'
p26
(I30
I0
tp27
sS'fname'
p28
S'data_l_210.00_b_060.00_grid_030_000'
p29
sS'time'
p30
ctime
struct_time
p31
((I2014
I5
I4
I23
I56
I3
I6
I124
I1
t(dtRp32
sS'f_low'
p33
F1268.9000000000001
sS'T_Sys_Right'
p34
g4
(g6
S'\xb8\xdfmd^Rp@'
tRp35
sS'f_high'
p36
F1271.9000000000001
sS'col-density'
p37
g4
(g6
S"\xd1\xbfv\x19\x99\xcb'D"
tRp38
s.