(dp1
S'n_obs'
p2
I87
sS'dispersion'
p3
cnumpy.core.multiarray
scalar
p4
(cnumpy
dtype
p5
(S'f8'
I0
I1
tRp6
(I3
S'<'
NNNI-1
I-1
I0
tbS"'\x0cOG\x800$@"
tRp7
sS'b'
F48
sS'n_cal'
p8
I9
sS'vel-center'
p9
g4
(g6
S't\xb0\xbb\xa6\xe7\x16N@'
tRp10
sS'rec-success'
p11
I01
sS'unixtime'
p12
F1399100194.5343699
sS'G_Right'
p13
g4
(g6
S'\xb3\xa94\x9d\xc6l\x00@'
tRp14
sS'l'
g4
(g6
S'\xc2\xc4\xb5\tw\xfcm@'
tRp15
sS'G_Left'
p16
g4
(g6
S'\xcbEn\x88\x13,\xdf?'
tRp17
sS'T_Sys_Left'
p18
g4
(g6
S'\xc0\x92U\x9e\xa3\xd4o@'
tRp19
sS'jd'
p20
F2456780.7892824076
sS'lst'
p21
g4
(g6
S'\x00\xa0_\xa4&\x14+@'
tRp22
sS'vel-peaks'
p23
cnumpy.core.multiarray
_reconstruct
p24
(cnumpy
ndarray
p25
(I0
tS'b'
tRp26
(I1
(I1
tg6
I00
S'\x8cQ\xd9}o9O@'
tbsS'grid'
p27
(I24
I10
tp28
sS'fname'
p29
S'data_l_239.89_b_048.00_grid_024_010'
p30
sS'time'
p31
ctime
struct_time
p32
((I2014
I5
I2
I23
I56
I34
I4
I122
I1
t(dtRp33
sS'f_low'
p34
F1268.9000000000001
sS'T_Sys_Right'
p35
g4
(g6
S'*\xc0\xac\x0b"\xacp@'
tRp36
sS'f_high'
p37
F1271.9000000000001
sS'col-density'
p38
g4
(g6
S'\x95\x98D\x0cu\xbd/D'
tRp39
s.