(dp1
S'n_obs'
p2
I87
sS'dispersion'
p3
cnumpy.core.multiarray
scalar
p4
(cnumpy
dtype
p5
(S'f8'
I0
I1
tRp6
(I3
S'<'
NNNI-1
I-1
I0
tbS'\xf9t\x1e\x99\xb0H"@'
tRp7
sS'b'
F40
sS'n_cal'
p8
I9
sS'vel-center'
p9
g4
(g6
S'\xb5\x94=\xa3\x08\x95L@'
tRp10
sS'rec-success'
p11
I01
sS'unixtime'
p12
F1399187495.4623859
sS'G_Right'
p13
g4
(g6
S'D\xe3y[n\xbe\xff?'
tRp14
sS'l'
g4
(g6
S"\xf9\x1a'\xeeucp@"
tRp15
sS'G_Left'
p16
g4
(g6
S'(i&\x8a\x0c!\xe0?'
tRp17
sS'T_Sys_Left'
p18
g4
(g6
S'\x17y\x07SrIo@'
tRp19
sS'jd'
p20
F2456781.7997106481
sS'lst'
p21
g4
(g6
S'\x00\x80{\x95I\xb6+@'
tRp22
sS'vel-peaks'
p23
cnumpy.core.multiarray
_reconstruct
p24
(cnumpy
ndarray
p25
(I0
tS'b'
tRp26
(I1
(I1
tg6
I00
S'\xfcS\x95\xea\x0f#L@'
tbsS'grid'
p27
(I20
I20
tp28
sS'fname'
p29
S'data_l_262.22_b_040.00_grid_020_020'
p30
sS'time'
p31
ctime
struct_time
p32
((I2014
I5
I4
I0
I11
I35
I6
I124
I1
t(dtRp33
sS'f_low'
p34
F1268.9000000000001
sS'T_Sys_Right'
p35
g4
(g6
S'F^5\xd5*\x91p@'
tRp36
sS'f_high'
p37
F1271.9000000000001
sS'col-density'
p38
g4
(g6
S'<!\x19~3\xde5D'
tRp39
s.