(dp1
S'n_obs'
p2
I87
sS'dispersion'
p3
cnumpy.core.multiarray
scalar
p4
(cnumpy
dtype
p5
(S'f8'
I0
I1
tRp6
(I3
S'<'
NNNI-1
I-1
I0
tbS'\xe2\t\xfb\xfe\x81b+@'
tRp7
sS'b'
F60
sS'n_cal'
p8
I9
sS'vel-center'
p9
g4
(g6
S'\x9d\xdc\xa5\xc1\x17\x8c"\xc0'
tRp10
sS'rec-success'
p11
I01
sS'unixtime'
p12
F1399112131.5213699
sS'G_Right'
p13
g4
(g6
S'~|\x9fU\xad\xe1\x00@'
tRp14
sS'l'
g4
(g6
S'\x00\x00\x00\x00\x00 u@'
tRp15
sS'G_Left'
p16
g4
(g6
S"\x12V\x82'7T\xde?"
tRp17
sS'T_Sys_Left'
p18
g4
(g6
S'\xa6`\x9cm\x9a\xd8o@'
tRp19
sS'jd'
p20
F2456780.9274421297
sS'lst'
p21
g4
(g6
S'\x00pR\xbd@\xdd0@'
tRp22
sS'vel-peaks'
p23
cnumpy.core.multiarray
_reconstruct
p24
(cnumpy
ndarray
p25
(I0
tS'b'
tRp26
(I1
(I1
tg6
I00
S'.\xb5,\xee\xc9\x17\x0c\xc0'
tbsS'grid'
p27
(I30
I32
tp28
sS'fname'
p29
S'data_l_338.00_b_060.00_grid_030_032'
p30
sS'time'
p31
ctime
struct_time
p32
((I2014
I5
I3
I3
I15
I31
I5
I123
I1
t(dtRp33
sS'f_low'
p34
F1268.9000000000001
sS'T_Sys_Right'
p35
g4
(g6
S'8\x95JBy\xe5o@'
tRp36
sS'f_high'
p37
F1271.9000000000001
sS'col-density'
p38
g4
(g6
S'\x8d\x04\x8c&\xaa\x9e2D'
tRp39
s.