(dp1
S'n_obs'
p2
I174
sS'dispersion'
p3
cnumpy.core.multiarray
scalar
p4
(cnumpy
dtype
p5
(S'f8'
I0
I1
tRp6
(I3
S'<'
NNNI-1
I-1
I0
tbS'%\x05\xff=E\xc55@'
tRp7
sS'b'
F4
sS'fname'
p8
S'data_l_220.02_b_004.00_grid_002_005'
p9
sS'vel-center'
p10
g4
(g6
S'\xc4\x7f\xdcG\x19\x08^@'
tRp11
sS'rec-success'
p12
I01
sS'unixtime'
p13
F1398647640
sS'G_Right'
p14
g4
(g6
S'\xa5\x98\xfd\t\xff\xac\xf9?'
tRp15
sS'l'
g4
(g6
S'\x9e\x7fP\n\xc8\x80k@'
tRp16
sS'G_Left'
p17
g4
(g6
S'\x13E\xb22\xe4\xf0\xe3?'
tRp18
sS'T_Sys_Left'
p19
g4
(g6
S'p\n\xb1%Z\x13u@'
tRp20
sS'jd'
p21
F2456775.5513888886
sS'lst'
p22
g4
(g6
S'\x00@\xff\xacc\xf1\x1d@'
tRp23
sS'vel-peaks'
p24
cnumpy.core.multiarray
_reconstruct
p25
(cnumpy
ndarray
p26
(I0
tS'b'
tRp27
(I1
(I3
tg6
I00
S"\xec\xb40zO\xada@\x90x\xac\x16\xd7vZ@\x1f\r\xd2'\xf3\x04V@"
tbsS'grid'
p28
(I2
I5
tp29
sS'n_cal'
p30
I18
sS'time'
p31
ctime
struct_time
p32
((I2014
I4
I27
I18
I14
I0
I6
I117
I1
t(dtRp33
sS'f_low'
p34
F1268.9000000000001
sS'T_Sys_Right'
p35
g4
(g6
S'\x0e\xdf\x12,,\xf5p@'
tRp36
sS'f_high'
p37
F1271.9000000000001
sS'col-density'
p38
g4
(g6
S'K\xce\xc4\xd7%\x0biD'
tRp39
s.