(dp1
S'n_obs'
p2
I87
sS'dispersion'
p3
cnumpy.core.multiarray
scalar
p4
(cnumpy
dtype
p5
(S'f8'
I0
I1
tRp6
(I3
S'<'
NNNI-1
I-1
I0
tbS'\x0e\xbb\x1fx\x07\x01,@'
tRp7
sS'b'
F44
sS'n_cal'
p8
I9
sS'vel-center'
p9
g4
(g6
S'\xf0\xda\xed^\xf6\xcdF@'
tRp10
sS'rec-success'
p11
I01
sS'unixtime'
p12
F1399097680.747788
sS'G_Right'
p13
g4
(g6
S'X\xa9\xcd\xd8\xa1Z\x01@'
tRp14
sS'l'
g4
(g6
S'\x08\x85\x86H\xa5Kq@'
tRp15
sS'G_Left'
p16
g4
(g6
S'-6N\xae\xd3\x80\xdd?'
tRp17
sS'T_Sys_Left'
p18
g4
(g6
S'9\xf4m:+\x8fq@'
tRp19
sS'jd'
p20
F2456780.7601851854
sS'lst'
p21
g4
(g6
S'\x00\x80\xd1\x16\xa0\xad)@'
tRp22
sS'vel-peaks'
p23
cnumpy.core.multiarray
_reconstruct
p24
(cnumpy
ndarray
p25
(I0
tS'b'
tRp26
(I1
(I1
tg6
I00
S'@\xa5&\x9a-`D@'
tbsS'grid'
p27
(I22
I24
tp28
sS'fname'
p29
S'data_l_276.73_b_044.00_grid_022_024'
p30
sS'time'
p31
ctime
struct_time
p32
((I2014
I5
I2
I23
I14
I40
I4
I122
I1
t(dtRp33
sS'f_low'
p34
F1268.9000000000001
sS'T_Sys_Right'
p35
g4
(g6
S'3\x80\x8ev\xf0\x1fr@'
tRp36
sS'f_high'
p37
F1271.9000000000001
sS'col-density'
p38
g4
(g6
S'\xff\xd0\xb1\x06\x10$:D'
tRp39
s.