(dp1
S'n_obs'
p2
I87
sS'dispersion'
p3
cnumpy.core.multiarray
scalar
p4
(cnumpy
dtype
p5
(S'f8'
I0
I1
tRp6
(I3
S'<'
NNNI-1
I-1
I0
tbS'w\x06\xfa]\x9f\xe4)@'
tRp7
sS'b'
F10
sS'n_cal'
p8
I9
sS'vel-center'
p9
g4
(g6
S'\x01\x07VDs\xeeL\xc0'
tRp10
sS'rec-success'
p11
I01
sS'unixtime'
p12
F1399287458.9917901
sS'G_Right'
p13
g4
(g6
S'\xae\x0c\xb9D;u\x00@'
tRp14
sS'l'
g4
(g6
S'\xc0@\x01\x08\x04\xb1#@'
tRp15
sS'G_Left'
p16
g4
(g6
S'\x19\xb1\x12\x91\x0f\x1c\xdf?'
tRp17
sS'T_Sys_Left'
p18
g4
(g6
S'S\x0e\x95\xcd\xce\xd9p@'
tRp19
sS'jd'
p20
F2456782.9566898146
sS'lst'
p21
g4
(g6
S'\x00\xf0\x10\n\x16\xb31@'
tRp22
sS'vel-peaks'
p23
cnumpy.core.multiarray
_reconstruct
p24
(cnumpy
ndarray
p25
(I0
tS'b'
tRp26
(I1
(I1
tg6
I00
S'r\xdb\x02\x82\x1a\xdcN\xc0'
tbsS'grid'
p27
(I5
I5
tp28
sS'fname'
p29
S'data_l_009.85_b_010.00_grid_005_005'
p30
sS'time'
p31
ctime
struct_time
p32
((I2014
I5
I5
I3
I57
I38
I0
I125
I1
t(dtRp33
sS'f_low'
p34
F1268.9000000000001
sS'T_Sys_Right'
p35
g4
(g6
S'\x03gG\xea\xdd\xaep@'
tRp36
sS'f_high'
p37
F1271.9000000000001
sS'col-density'
p38
g4
(g6
S'\xd7b\x86$\x01t]D'
tRp39
s.