(dp1
S'n_obs'
p2
I87
sS'dispersion'
p3
cnumpy.core.multiarray
scalar
p4
(cnumpy
dtype
p5
(S'f8'
I0
I1
tRp6
(I3
S'<'
NNNI-1
I-1
I0
tbS'F\xf4\x8b<f;#@'
tRp7
sS'b'
F52
sS'n_cal'
p8
I9
sS'vel-center'
p9
g4
(g6
S'\xf5\xf6!\xab\x85\xbfB\xc0'
tRp10
sS'rec-success'
p11
I01
sS'unixtime'
p12
F1399108119.6714051
sS'G_Right'
p13
g4
(g6
S'\x8eO\x81\x04B\xfe\x01@'
tRp14
sS'l'
g4
(g6
S'0\xafA]\x8b\xec2@'
tRp15
sS'G_Left'
p16
g4
(g6
S'\xea&\xd5#\x88t\xdc?'
tRp17
sS'T_Sys_Left'
p18
g4
(g6
S'\xf7\x96\xa2, \x81p@'
tRp19
sS'jd'
p20
F2456780.8810069445
sS'lst'
p21
g4
(g6
S'\x00 a\x15Y~/@'
tRp22
sS'vel-peaks'
p23
cnumpy.core.multiarray
_reconstruct
p24
(cnumpy
ndarray
p25
(I0
tS'b'
tRp26
(I1
(I1
tg6
I00
S'`\xfd\x986,\xfdA\xc0'
tbsS'grid'
p27
(I26
I52
tp28
sS'fname'
p29
S'data_l_018.92_b_052.00_grid_026_052'
p30
sS'time'
p31
ctime
struct_time
p32
((I2014
I5
I3
I2
I8
I39
I5
I123
I1
t(dtRp33
sS'f_low'
p34
F1268.9000000000001
sS'T_Sys_Right'
p35
g4
(g6
S'\x06\xab[\x08\x98\xcdr@'
tRp36
sS'f_high'
p37
F1271.9000000000001
sS'col-density'
p38
g4
(g6
S'7[\r?M;5D'
tRp39
s.