(dp1
S'n_obs'
p2
I87
sS'dispersion'
p3
cnumpy.core.multiarray
scalar
p4
(cnumpy
dtype
p5
(S'f8'
I0
I1
tRp6
(I3
S'<'
NNNI-1
I-1
I0
tbS'$\xc3D\xd3\xeex&@'
tRp7
sS'b'
F36
sS'n_cal'
p8
I9
sS'vel-center'
p9
g4
(g6
S'\xbeW\xcb:\xf0 S@'
tRp10
sS'rec-success'
p11
I01
sS'unixtime'
p12
F1399091882.12432
sS'G_Right'
p13
g4
(g6
S'h\x89\xb3&k\xe5\x00@'
tRp14
sS'l'
g4
(g6
S'\x94\xfer\xf3n|k@'
tRp15
sS'G_Left'
p16
g4
(g6
S'\xb5O\x85\xda\x7fM\xde?'
tRp17
sS'T_Sys_Left'
p18
g4
(g6
S'\x97C\xb7 \x829p@'
tRp19
sS'jd'
p20
F2456780.6930787037
sS'lst'
p21
g4
(g6
S'\x00@\xb3a\xc3r&@'
tRp22
sS'vel-peaks'
p23
cnumpy.core.multiarray
_reconstruct
p24
(cnumpy
ndarray
p25
(I0
tS'b'
tRp26
(I1
(I1
tg6
I00
S'\n\xba\xc3C\x17=T@'
tbsS'grid'
p27
(I18
I4
tp28
sS'fname'
p29
S'data_l_219.89_b_036.00_grid_018_004'
p30
sS'time'
p31
ctime
struct_time
p32
((I2014
I5
I2
I21
I38
I2
I4
I122
I1
t(dtRp33
sS'f_low'
p34
F1268.9000000000001
sS'T_Sys_Right'
p35
g4
(g6
S'1\x06r\xceS(q@'
tRp36
sS'f_high'
p37
F1271.9000000000001
sS'col-density'
p38
g4
(g6
S'\x04\x12=\xb1f(6D'
tRp39
s.