(dp1
S'n_obs'
p2
I87
sS'dispersion'
p3
cnumpy.core.multiarray
scalar
p4
(cnumpy
dtype
p5
(S'f8'
I0
I1
tRp6
(I3
S'<'
NNNI-1
I-1
I0
tbS'zFd\x90\xc1K-@'
tRp7
sS'b'
F6
sS'n_cal'
p8
I9
sS'vel-center'
p9
g4
(g6
S'\xc5c\xae\x00\xf6\xffM\xc0'
tRp10
sS'rec-success'
p11
I01
sS'unixtime'
p12
F1399299387.589541
sS'G_Right'
p13
g4
(g6
S'\xd1\xf7\xf3\x87\xd6\xec\xf9?'
tRp14
sS'l'
g4
(g6
S'\x00W;\x13\xb8\xf4/@'
tRp15
sS'G_Left'
p16
g4
(g6
S'\xa8\tU0\xc9\xbf\xe3?'
tRp17
sS'T_Sys_Left'
p18
g4
(g6
S'\x97yp\x13\xc6\xb7q@'
tRp19
sS'jd'
p20
F2456783.0947569446
sS'lst'
p21
g4
(g6
S'\x00\x00\xa0l\xb1\x055@'
tRp22
sS'vel-peaks'
p23
cnumpy.core.multiarray
_reconstruct
p24
(cnumpy
ndarray
p25
(I0
tS'b'
tRp26
(I1
(I2
tg6
I00
S'\xe4\xdd\x8d\xef\xd2\xd3K\xc0\x00hxx\x8a\x9eP\xc0'
tbsS'grid'
p27
(I3
I2
tp28
sS'fname'
p29
S'data_l_015.98_b_006.00_grid_003_002'
p30
sS'time'
p31
ctime
struct_time
p32
((I2014
I5
I5
I7
I16
I27
I0
I125
I1
t(dtRp33
sS'f_low'
p34
F1268.9000000000001
sS'T_Sys_Right'
p35
g4
(g6
S'\xf4\xe2<f\x84Np@'
tRp36
sS'f_high'
p37
F1271.9000000000001
sS'col-density'
p38
g4
(g6
S'\xd6,#}\x87\xe1fD'
tRp39
s.