(dp1
S'n_obs'
p2
I87
sS'dispersion'
p3
cnumpy.core.multiarray
scalar
p4
(cnumpy
dtype
p5
(S'f8'
I0
I1
tRp6
(I3
S'<'
NNNI-1
I-1
I0
tbS'\x159\xc1\xed!f"@'
tRp7
sS'b'
F32
sS'n_cal'
p8
I9
sS'vel-center'
p9
g4
(g6
S'(\xcd\xa4W\n\xbfC\xc0'
tRp10
sS'rec-success'
p11
I01
sS'unixtime'
p12
F1398843704
sS'G_Right'
p13
g4
(g6
S'\x84\x15\xfdo\xbb\xf4\xff?'
tRp14
sS'l'
g4
(g6
S'Dl\xd1\xc4\x05\xf8u@'
tRp15
sS'G_Left'
p16
g4
(g6
S'\xfa{\x8fD\xa4\x05\xe0?'
tRp17
sS'T_Sys_Left'
p18
g4
(g6
S'-$_\xf2\xd3ag@'
tRp19
sS'jd'
p20
F2456777.8206481482
sS'lst'
p21
g4
(g6
S'\x00\xa0h\xb8\xb21,@'
tRp22
sS'vel-peaks'
p23
cnumpy.core.multiarray
_reconstruct
p24
(cnumpy
ndarray
p25
(I0
tS'b'
tRp26
(I1
(I1
tg6
I00
S'q\xb5K\xd5M\x9fC\xc0'
tbsS'grid'
p27
(I16
I60
tp28
sS'fname'
p29
S'data_l_351.50_b_032.00_grid_016_060'
p30
sS'time'
p31
ctime
struct_time
p32
((I2014
I4
I30
I0
I41
I44
I2
I120
I1
t(dtRp33
sS'f_low'
p34
F1268.9000000000001
sS'T_Sys_Right'
p35
g4
(g6
S'h\x96\x1dU\xf4l\x80@'
tRp36
sS'f_high'
p37
F1271.9000000000001
sS'col-density'
p38
g4
(g6
S'\xb0\xaa\xa6P0\xbePD'
tRp39
s.