(dp1
S'n_obs'
p2
I87
sS'dispersion'
p3
cnumpy.core.multiarray
scalar
p4
(cnumpy
dtype
p5
(S'f8'
I0
I1
tRp6
(I3
S'<'
NNNI-1
I-1
I0
tbS'Ei\xdf2\xe3\xe6)@'
tRp7
sS'b'
F48
sS'n_cal'
p8
I9
sS'vel-center'
p9
g4
(g6
S'=-\xd7\xfe\xdc\x8f?\xc0'
tRp10
sS'rec-success'
p11
I01
sS'unixtime'
p12
F1399196684.4828379
sS'G_Right'
p13
g4
(g6
S'E.u<\xfb\x06\xfc?'
tRp14
sS'l'
g4
(g6
S'\x00\xe0\xbfO\xc6\xb3\x15@'
tRp15
sS'G_Left'
p16
g4
(g6
S'\xc9;P\x88\x96D\xe2?'
tRp17
sS'T_Sys_Left'
p18
g4
(g6
S'5\xba%\xdb\x94mn@'
tRp19
sS'jd'
p20
F2456781.9060648149
sS'lst'
p21
g4
(g6
S'\x00Pkn_j0@'
tRp22
sS'vel-peaks'
p23
cnumpy.core.multiarray
_reconstruct
p24
(cnumpy
ndarray
p25
(I0
tS'b'
tRp26
(I1
(I1
tg6
I00
S'HG\xfd\xe4\xc3\xd3>\xc0'
tbsS'grid'
p27
(I24
I52
tp28
sS'fname'
p29
S'data_l_005.43_b_048.00_grid_024_052'
p30
sS'time'
p31
ctime
struct_time
p32
((I2014
I5
I4
I2
I44
I44
I6
I124
I1
t(dtRp33
sS'f_low'
p34
F1268.9000000000001
sS'T_Sys_Right'
p35
g4
(g6
S' Am\xc9q\xc4q@'
tRp36
sS'f_high'
p37
F1271.9000000000001
sS'col-density'
p38
g4
(g6
S'\xcc\xcd\xb7W*\x19<D'
tRp39
s.