(dp1
S'n_obs'
p2
I87
sS'dispersion'
p3
cnumpy.core.multiarray
scalar
p4
(cnumpy
dtype
p5
(S'f8'
I0
I1
tRp6
(I3
S'<'
NNNI-1
I-1
I0
tbS'w{\xe91L\xdb4@'
tRp7
sS'b'
F64
sS'n_cal'
p8
I9
sS'vel-center'
p9
g4
(g6
S'\xc6_\x90\xd86\x85=@'
tRp10
sS'rec-success'
p11
I01
sS'unixtime'
p12
F1399276527.238271
sS'G_Right'
p13
g4
(g6
S'\x83E;OT.\xf6?'
tRp14
sS'l'
g4
(g6
S'\x9c\x86\xe3U\xf8\xabm@'
tRp15
sS'G_Left'
p16
g4
(g6
S'.\x96\xa5`5\x15\xe7?'
tRp17
sS'T_Sys_Left'
p18
g4
(g6
S"\x14\x99\x98'\xebbo@"
tRp19
sS'jd'
p20
F2456782.8301736112
sS'lst'
p21
g4
(g6
S'\x00@\xe4\xddHO-@'
tRp22
sS'vel-peaks'
p23
cnumpy.core.multiarray
_reconstruct
p24
(cnumpy
ndarray
p25
(I0
tS'b'
tRp26
(I1
(I1
tg6
I00
S'S\x13\xd5\x86\x94_F@'
tbsS'grid'
p27
(I32
I6
tp28
sS'fname'
p29
S'data_l_237.37_b_064.00_grid_032_006'
p30
sS'time'
p31
ctime
struct_time
p32
((I2014
I5
I5
I0
I55
I27
I0
I125
I1
t(dtRp33
sS'f_low'
p34
F1268.9000000000001
sS'T_Sys_Right'
p35
g4
(g6
S'\xd2\x8c\x80\xc8a\x17o@'
tRp36
sS'f_high'
p37
F1271.9000000000001
sS'col-density'
p38
g4
(g6
S"\xc0\x96\x9a\x89\xfd 'D"
tRp39
s.