(dp1
S'n_obs'
p2
I87
sS'dispersion'
p3
cnumpy.core.multiarray
scalar
p4
(cnumpy
dtype
p5
(S'f8'
I0
I1
tRp6
(I3
S'<'
NNNI-1
I-1
I0
tbS'\xd32\xed\xc9\xfc\xc0 @'
tRp7
sS'b'
F64
sS'n_cal'
p8
I9
sS'vel-center'
p9
g4
(g6
S'7\xd2\xd5\t]\xafF@'
tRp10
sS'rec-success'
p11
I01
sS'unixtime'
p12
F1399276051.8838301
sS'G_Right'
p13
g4
(g6
S'\x85\x8a\xc7\xa2Sd\xf7?'
tRp14
sS'l'
g4
(g6
S'4\x82\xf6q\xfdck@'
tRp15
sS'G_Left'
p16
g4
(g6
S'\xbf\x94]\x8dN\xe3\xe5?'
tRp17
sS'T_Sys_Left'
p18
g4
(g6
S'h+{<H\xf1p@'
tRp19
sS'jd'
p20
F2456782.824664352
sS'lst'
p21
g4
(g6
S'\x00 E\xc9f\x0b-@'
tRp22
sS'vel-peaks'
p23
cnumpy.core.multiarray
_reconstruct
p24
(cnumpy
ndarray
p25
(I0
tS'b'
tRp26
(I1
(I0
tg6
I00
S''
tbsS'grid'
p27
(I32
I2
tp28
sS'fname'
p29
S'data_l_219.12_b_064.00_grid_032_002'
p30
sS'time'
p31
ctime
struct_time
p32
((I2014
I5
I5
I0
I47
I31
I0
I125
I1
t(dtRp33
sS'f_low'
p34
F1268.9000000000001
sS'T_Sys_Right'
p35
g4
(g6
S'\xb5\xcd\x12%\xa8\x16o@'
tRp36
sS'f_high'
p37
F1271.9000000000001
sS'col-density'
p38
g4
(g6
S'\x13\xb3@\x86\xc48\x13D'
tRp39
s.