(dp1
S'n_obs'
p2
I174
sS'dispersion'
p3
cnumpy.core.multiarray
scalar
p4
(cnumpy
dtype
p5
(S'f8'
I0
I1
tRp6
(I3
S'<'
NNNI-1
I-1
I0
tbS'0Q\xdd\xf9b\x044@'
tRp7
sS'b'
F4
sS'fname'
p8
S'data_l_214.01_b_004.00_grid_002_002'
p9
sS'vel-center'
p10
g4
(g6
S'w\x1b\x94\xe1J\xeb[@'
tRp11
sS'rec-success'
p12
I01
sS'unixtime'
p13
F1398646080
sS'G_Right'
p14
g4
(g6
S'\xa4\x87\xba\xf30l\xfb?'
tRp15
sS'l'
g4
(g6
S'\x0c3 \x04P\xc0j@'
tRp16
sS'G_Left'
p17
g4
(g6
S'\xf6\x98\x88\x13\xb4\xab\xe2?'
tRp18
sS'T_Sys_Left'
p19
g4
(g6
S'\\p\xe7\x00\xa5Xc@'
tRp20
sS'jd'
p21
F2456775.5333333332
sS'lst'
p22
g4
(g6
S'\x00\x00\xb4\xedp4\x1c@'
tRp23
sS'vel-peaks'
p24
cnumpy.core.multiarray
_reconstruct
p25
(cnumpy
ndarray
p26
(I0
tS'b'
tRp27
(I1
(I2
tg6
I00
S'\xcb-2\xeez>`@\xd9Y\x9c*\xc2\xc0W@'
tbsS'grid'
p28
(I2
I2
tp29
sS'n_cal'
p30
I18
sS'time'
p31
ctime
struct_time
p32
((I2014
I4
I27
I17
I48
I0
I6
I117
I1
t(dtRp33
sS'f_low'
p34
F1268.9000000000001
sS'T_Sys_Right'
p35
g4
(g6
S"6'\x0c4\x00\x96s@"
tRp36
sS'f_high'
p37
F1271.9000000000001
sS'col-density'
p38
g4
(g6
S' \xe5]\xccX}dD'
tRp39
s.