(dp1
S'n_obs'
p2
I87
sS'dispersion'
p3
cnumpy.core.multiarray
scalar
p4
(cnumpy
dtype
p5
(S'f8'
I0
I1
tRp6
(I3
S'<'
NNNI-1
I-1
I0
tbS'\xb2\x85%\x94\xf2v\x1e@'
tRp7
sS'b'
F28
sS'n_cal'
p8
I9
sS'vel-center'
p9
g4
(g6
S'z \xbd\xfd\xff\xbdU@'
tRp10
sS'rec-success'
p11
I01
sS'unixtime'
p12
F1399267789.1069801
sS'G_Right'
p13
g4
(g6
S'\xf7\xebS\xd1 3\xfd?'
tRp14
sS'l'
g4
(g6
S't#`\x1c\xf0ak@'
tRp15
sS'G_Left'
p16
g4
(g6
S'F\xc8\tl\xcf\x88\xe1?'
tRp17
sS'T_Sys_Left'
p18
g4
(g6
S'\xd7T\xb1\xec\x1b\xe7n@'
tRp19
sS'jd'
p20
F2456782.7290393519
sS'lst'
p21
g4
(g6
S'\x00\x00n\xf4$q(@'
tRp22
sS'vel-peaks'
p23
cnumpy.core.multiarray
_reconstruct
p24
(cnumpy
ndarray
p25
(I0
tS'b'
tRp26
(I1
(I1
tg6
I00
S'\xff\x81<\xe7r\xe6U@'
tbsS'grid'
p27
(I14
I4
tp28
sS'fname'
p29
S'data_l_219.06_b_028.00_grid_014_004'
p30
sS'time'
p31
ctime
struct_time
p32
((I2014
I5
I4
I22
I29
I49
I6
I124
I1
t(dtRp33
sS'f_low'
p34
F1268.9000000000001
sS'T_Sys_Right'
p35
g4
(g6
S'P\xab1\x0c\\\xc0o@'
tRp36
sS'f_high'
p37
F1271.9000000000001
sS'col-density'
p38
g4
(g6
S'\n\xd8a\xaf\x01\xb81D'
tRp39
s.