(dp1
S'n_obs'
p2
I87
sS'dispersion'
p3
cnumpy.core.multiarray
scalar
p4
(cnumpy
dtype
p5
(S'f8'
I0
I1
tRp6
(I3
S'<'
NNNI-1
I-1
I0
tbS'\x94\x82\xe4/3;#@'
tRp7
sS'b'
F18
sS'n_cal'
p8
I9
sS'vel-center'
p9
g4
(g6
S'\xf9\xfa\xb0\x03\xec9L\xc0'
tRp10
sS'rec-success'
p11
I01
sS'unixtime'
p12
F1399289547.0550511
sS'G_Right'
p13
g4
(g6
S'\xd9,\x7f\x97\xfd\x1c\xff?'
tRp14
sS'l'
g4
(g6
S'@X\xf6n\x83\xf8"@'
tRp15
sS'G_Left'
p16
g4
(g6
S'\xa3VP\\\xbdt\xe0?'
tRp17
sS'T_Sys_Left'
p18
g4
(g6
S'\xdf}\x8c_\xa1\xd4n@'
tRp19
sS'jd'
p20
F2456782.9808680555
sS'lst'
p21
g4
(g6
S'\x00p\x85>\x0bH2@'
tRp22
sS'vel-peaks'
p23
cnumpy.core.multiarray
_reconstruct
p24
(cnumpy
ndarray
p25
(I0
tS'b'
tRp26
(I1
(I1
tg6
I00
S'\xf0\x0b\xc2Bn\xdaK\xc0'
tbsS'grid'
p27
(I9
I5
tp28
sS'fname'
p29
S'data_l_009.49_b_018.00_grid_009_005'
p30
sS'time'
p31
ctime
struct_time
p32
((I2014
I5
I5
I4
I32
I27
I0
I125
I1
t(dtRp33
sS'f_low'
p34
F1268.9000000000001
sS'T_Sys_Right'
p35
g4
(g6
S'\xbfJ\x07\xc3N\x8bo@'
tRp36
sS'f_high'
p37
F1271.9000000000001
sS'col-density'
p38
g4
(g6
S'\xf0Ao\xb7\xce\xf0TD'
tRp39
s.