(dp1
S'n_obs'
p2
I87
sS'dispersion'
p3
cnumpy.core.multiarray
scalar
p4
(cnumpy
dtype
p5
(S'f8'
I0
I1
tRp6
(I3
S'<'
NNNI-1
I-1
I0
tbS'l\xcduc\xe1_>@'
tRp7
sS'b'
F48
sS'n_cal'
p8
I9
sS'vel-center'
p9
g4
(g6
S'/\xb2$\x8b>pq@'
tRp10
sS'rec-success'
p11
I01
sS'unixtime'
p12
F1399101581.450933
sS'G_Right'
p13
g4
(g6
S',\xa6\xf0\xfc"\'\x00@'
tRp14
sS'l'
g4
(g6
S'lX\xae\x8a\x1c<q@'
tRp15
sS'G_Left'
p16
g4
(g6
S'\xa6\xed\xf6\xabw\xb2\xdf?'
tRp17
sS'T_Sys_Left'
p18
g4
(g6
S'\xf2F\x9e\x9a+\x8bq@'
tRp19
sS'jd'
p20
F2456780.8053356484
sS'lst'
p21
g4
(g6
S'\x00\x80t\x08\xf4\xd9+@'
tRp22
sS'vel-peaks'
p23
cnumpy.core.multiarray
_reconstruct
p24
(cnumpy
ndarray
p25
(I0
tS'b'
tRp26
(I1
(I0
tg6
I00
S''
tbsS'grid'
p27
(I24
I22
tp28
sS'fname'
p29
S'data_l_275.76_b_048.00_grid_024_022'
p30
sS'time'
p31
ctime
struct_time
p32
((I2014
I5
I3
I0
I19
I41
I5
I123
I1
t(dtRp33
sS'f_low'
p34
F1268.9000000000001
sS'T_Sys_Right'
p35
g4
(g6
S'\x8d\xa2\xb6\xff-\xbdo@'
tRp36
sS'f_high'
p37
F1271.9000000000001
sS'col-density'
p38
g4
(g6
S'x\x07\xb8\x88\xfc\x83BD'
tRp39
s.