(dp1
S'n_obs'
p2
I87
sS'dispersion'
p3
cnumpy.core.multiarray
scalar
p4
(cnumpy
dtype
p5
(S'f8'
I0
I1
tRp6
(I3
S'<'
NNNI-1
I-1
I0
tbS'Qc\x9cb\x0b\xf02@'
tRp7
sS'b'
F68
sS'n_cal'
p8
I9
sS'vel-center'
p9
g4
(g6
S'\xc8:\xe7\xbe\xbb\xbe,@'
tRp10
sS'rec-success'
p11
I01
sS'unixtime'
p12
F1399279842.1370511
sS'G_Right'
p13
g4
(g6
S'\xf2\x8d\x1e\x87\xdc\x0f\xf6?'
tRp14
sS'l'
g4
(g6
S'\x1a\x9a\x95\xd9\xeb\xcbq@'
tRp15
sS'G_Left'
p16
g4
(g6
S'\x1e(]\x15\x165\xe7?'
tRp17
sS'T_Sys_Left'
p18
g4
(g6
S'\xeaF\xae\xf2`\x85n@'
tRp19
sS'jd'
p20
F2456782.8685416668
sS'lst'
p21
g4
(g6
S'\x00@l\xc9\n(/@'
tRp22
sS'vel-peaks'
p23
cnumpy.core.multiarray
_reconstruct
p24
(cnumpy
ndarray
p25
(I0
tS'b'
tRp26
(I1
(I1
tg6
I00
S'\xdd\xb3\xb02|\x11?@'
tbsS'grid'
p27
(I34
I14
tp28
sS'fname'
p29
S'data_l_284.75_b_068.00_grid_034_014'
p30
sS'time'
p31
ctime
struct_time
p32
((I2014
I5
I5
I1
I50
I42
I0
I125
I1
t(dtRp33
sS'f_low'
p34
F1268.9000000000001
sS'T_Sys_Right'
p35
g4
(g6
S'\x96\xa8VG\xa7tn@'
tRp36
sS'f_high'
p37
F1271.9000000000001
sS'col-density'
p38
g4
(g6
S'\xf7au:\x83\xc7)D'
tRp39
s.