(dp1
S'n_obs'
p2
I87
sS'dispersion'
p3
cnumpy.core.multiarray
scalar
p4
(cnumpy
dtype
p5
(S'f8'
I0
I1
tRp6
(I3
S'<'
NNNI-1
I-1
I0
tbS'm\x83\xd0\xba\xe5\xcc0@'
tRp7
sS'b'
F80
sS'n_cal'
p8
I9
sS'vel-center'
p9
g4
(g6
S'\xa7tc\x90\xab\xe5\x04\xc0'
tRp10
sS'rec-success'
p11
I01
sS'unixtime'
p12
F1399283988.9049399
sS'G_Right'
p13
g4
(g6
S'\xb2\xcdYAUf\xf8?'
tRp14
sS'l'
g4
(g6
S'rho,^\xc3u@'
tRp15
sS'G_Left'
p16
g4
(g6
S'\x8da9b\xdc\xfb\xe4?'
tRp17
sS'T_Sys_Left'
p18
g4
(g6
S'XE\x93Oi\x98o@'
tRp19
sS'jd'
p20
F2456782.9165277779
sS'lst'
p21
g4
(g6
S'\x00\xc0`\xaa\xa7\xbb0@'
tRp22
sS'vel-peaks'
p23
cnumpy.core.multiarray
_reconstruct
p24
(cnumpy
ndarray
p25
(I0
tS'b'
tRp26
(I1
(I1
tg6
I00
S'P\xc0\xc6J\x1d\xb2&@'
tbsS'grid'
p27
(I40
I12
tp28
sS'fname'
p29
S'data_l_348.21_b_080.00_grid_040_012'
p30
sS'time'
p31
ctime
struct_time
p32
((I2014
I5
I5
I2
I59
I48
I0
I125
I1
t(dtRp33
sS'f_low'
p34
F1268.9000000000001
sS'T_Sys_Right'
p35
g4
(g6
S'v\x029\xa7\x16\xffn@'
tRp36
sS'f_high'
p37
F1271.9000000000001
sS'col-density'
p38
g4
(g6
S'\x1ap!\\\xcd\xf5*D'
tRp39
s.