(dp1
S'n_obs'
p2
I87
sS'dispersion'
p3
cnumpy.core.multiarray
scalar
p4
(cnumpy
dtype
p5
(S'f8'
I0
I1
tRp6
(I3
S'<'
NNNI-1
I-1
I0
tbS'v\xd7\xd5_\xfc\x0c$@'
tRp7
sS'b'
F30
sS'n_cal'
p8
I9
sS'vel-center'
p9
g4
(g6
S'A"v\xc61\xc1F\xc0'
tRp10
sS'rec-success'
p11
I01
sS'unixtime'
p12
F1399293307.248749
sS'G_Right'
p13
g4
(g6
S'\xa989\xe2\xf5\x15\xf9?'
tRp14
sS'l'
g4
(g6
S'\x00\x9b\x0e\x19m\xac\x0e@'
tRp15
sS'G_Left'
p16
g4
(g6
S'\xd6\xf2\xe5\x94\xf3h\xe4?'
tRp17
sS'T_Sys_Left'
p18
g4
(g6
S'\x81"W\xed\x7f\x85m@'
tRp19
sS'jd'
p20
F2456783.024386574
sS'lst'
p21
g4
(g6
S"\x00 \x9d\\'T3@"
tRp22
sS'vel-peaks'
p23
cnumpy.core.multiarray
_reconstruct
p24
(cnumpy
ndarray
p25
(I0
tS'b'
tRp26
(I1
(I1
tg6
I00
S',\x83f\xe0\xa7\xc3E\xc0'
tbsS'grid'
p27
(I15
I7
tp28
sS'fname'
p29
S'data_l_003.83_b_030.00_grid_015_007'
p30
sS'time'
p31
ctime
struct_time
p32
((I2014
I5
I5
I5
I35
I7
I0
I125
I1
t(dtRp33
sS'f_low'
p34
F1268.9000000000001
sS'T_Sys_Right'
p35
g4
(g6
S'\xf0\xfa]\xd9\xc1\xe1m@'
tRp36
sS'f_high'
p37
F1271.9000000000001
sS'col-density'
p38
g4
(g6
S'\x08\xc4\xf9j\x9b\xccMD'
tRp39
s.