(dp1
S'n_obs'
p2
I87
sS'dispersion'
p3
cnumpy.core.multiarray
scalar
p4
(cnumpy
dtype
p5
(S'f8'
I0
I1
tRp6
(I3
S'<'
NNNI-1
I-1
I0
tbS'\xa4.G\xf6\x9c\xd0 @'
tRp7
sS'b'
F36
sS'n_cal'
p8
I9
sS'vel-center'
p9
g4
(g6
S'\x92\x11~\xd7\x0exS@'
tRp10
sS'rec-success'
p11
I01
sS'unixtime'
p12
F1399092184.8134689
sS'G_Right'
p13
g4
(g6
S'-\x00t\n\x7f\xc7\x00@'
tRp14
sS'l'
g4
(g6
S'\xde},m\xa6\x1al@'
tRp15
sS'G_Left'
p16
g4
(g6
S'\x14\x8f%\xb7\x89\x83\xde?'
tRp17
sS'T_Sys_Left'
p18
g4
(g6
S'\xf3\xed\x15\xf1\x9d\x01o@'
tRp19
sS'jd'
p20
F2456780.6965740742
sS'lst'
p21
g4
(g6
S'\x00\xe0\x9c\xf8\xd4\x9d&@'
tRp22
sS'vel-peaks'
p23
cnumpy.core.multiarray
_reconstruct
p24
(cnumpy
ndarray
p25
(I0
tS'b'
tRp26
(I1
(I1
tg6
I00
S'j\xdc\xdb\xec\xa5BS@'
tbsS'grid'
p27
(I18
I6
tp28
sS'fname'
p29
S'data_l_224.83_b_036.00_grid_018_006'
p30
sS'time'
p31
ctime
struct_time
p32
((I2014
I5
I2
I21
I43
I4
I4
I122
I1
t(dtRp33
sS'f_low'
p34
F1268.9000000000001
sS'T_Sys_Right'
p35
g4
(g6
S'D\xdc\xe0\xc8\xea@q@'
tRp36
sS'f_high'
p37
F1271.9000000000001
sS'col-density'
p38
g4
(g6
S'\xe4^\xa0\x84\xc9K4D'
tRp39
s.