(dp1
S'n_obs'
p2
I87
sS'dispersion'
p3
cnumpy.core.multiarray
scalar
p4
(cnumpy
dtype
p5
(S'f8'
I0
I1
tRp6
(I3
S'<'
NNNI-1
I-1
I0
tbS"\xfaSr'\x1eF&@"
tRp7
sS'b'
F40
sS'n_cal'
p8
I9
sS'vel-center'
p9
g4
(g6
S'\xe5\xdd\xc4\xea\xf7\xacD\xc0'
tRp10
sS'rec-success'
p11
I01
sS'unixtime'
p12
F1399189710.753876
sS'G_Right'
p13
g4
(g6
S'R\xf0\x02\xa1\xb53\x01@'
tRp14
sS'l'
g4
(g6
S" >'\xaf\xb2\xbd'@"
tRp15
sS'G_Left'
p16
g4
(g6
S'\x80\xe4\xf5]\x95\xc3\xdd?'
tRp17
sS'T_Sys_Left'
p18
g4
(g6
S'q\xe2)3 \xfdp@'
tRp19
sS'jd'
p20
F2456781.8253472224
sS'lst'
p21
g4
(g6
S'\x00\xe0\xee\x12,\xf2,@'
tRp22
sS'vel-peaks'
p23
cnumpy.core.multiarray
_reconstruct
p24
(cnumpy
ndarray
p25
(I0
tS'b'
tRp26
(I1
(I1
tg6
I00
S'\x8e\x861\xdf\xf1AF\xc0'
tbsS'grid'
p27
(I20
I62
tp28
sS'fname'
p29
S'data_l_011.87_b_040.00_grid_020_062'
p30
sS'time'
p31
ctime
struct_time
p32
((I2014
I5
I4
I0
I48
I30
I6
I124
I1
t(dtRp33
sS'f_low'
p34
F1268.9000000000001
sS'T_Sys_Right'
p35
g4
(g6
S'\xd0\xfc\x10\xf4\xa3&p@'
tRp36
sS'f_high'
p37
F1271.9000000000001
sS'col-density'
p38
g4
(g6
S's{\x9c\x05\xbc\xf2AD'
tRp39
s.