(dp1
S'n_obs'
p2
I87
sS'dispersion'
p3
cnumpy.core.multiarray
scalar
p4
(cnumpy
dtype
p5
(S'f8'
I0
I1
tRp6
(I3
S'<'
NNNI-1
I-1
I0
tbS'\x04\xfa\xb1Vn\x880@'
tRp7
sS'b'
F4
sS'n_cal'
p8
I9
sS'vel-center'
p9
g4
(g6
S'\xdctr\xc7\xcd\x86L\xc0'
tRp10
sS'rec-success'
p11
I01
sS'unixtime'
p12
F1399295255.502692
sS'G_Right'
p13
g4
(g6
S'/\xeb\xf3\x95\xca\x8d\xfd?'
tRp14
sS'l'
g4
(g6
S'\x00\x9e\x7fP\n\xc8$@'
tRp15
sS'G_Left'
p16
g4
(g6
S'\x18st\xfc\x04S\xe1?'
tRp17
sS'T_Sys_Left'
p18
g4
(g6
S'\x03\x0b\xcd\xeb\xc5uo@'
tRp19
sS'jd'
p20
F2456783.0469328705
sS'lst'
p21
g4
(g6
S'\x00\xe0W\xb6\x0e\xdf3@'
tRp22
sS'vel-peaks'
p23
cnumpy.core.multiarray
_reconstruct
p24
(cnumpy
ndarray
p25
(I0
tS'b'
tRp26
(I1
(I1
tg6
I00
S'=s3\xcb*qL\xc0'
tbsS'grid'
p27
(I2
I80
tp28
sS'fname'
p29
S'data_l_010.39_b_004.00_grid_002_080'
p30
sS'time'
p31
ctime
struct_time
p32
((I2014
I5
I5
I6
I7
I35
I0
I125
I1
t(dtRp33
sS'f_low'
p34
F1268.9000000000001
sS'T_Sys_Right'
p35
g4
(g6
S'\xa3\xcb\xa3\xc0\xe4Fp@'
tRp36
sS'f_high'
p37
F1271.9000000000001
sS'col-density'
p38
g4
(g6
S'5S\xf5\xc5W\xb5hD'
tRp39
s.