(dp1
S'n_obs'
p2
I87
sS'dispersion'
p3
cnumpy.core.multiarray
scalar
p4
(cnumpy
dtype
p5
(S'f8'
I0
I1
tRp6
(I3
S'<'
NNNI-1
I-1
I0
tbS'\xfa\x9e\xf2\x1b\x18\xbb*@'
tRp7
sS'b'
F60
sS'n_cal'
p8
I9
sS'vel-center'
p9
g4
(g6
S'\x93\x90\xb0Y\xad6/\xc0'
tRp10
sS'rec-success'
p11
I01
sS'unixtime'
p12
F1399112375.489989
sS'G_Right'
p13
g4
(g6
S'\x9e\x1b1\xee\xb3Y\x00@'
tRp14
sS'l'
g4
(g6
S'\x00\x00\x00\x00\x00\xa0u@'
tRp15
sS'G_Left'
p16
g4
(g6
S'#\xba\xa3hpP\xdf?'
tRp17
sS'T_Sys_Left'
p18
g4
(g6
S'\x86\xa8\xeb\x89\x0c\x12o@'
tRp19
sS'jd'
p20
F2456780.9302662038
sS'lst'
p21
g4
(g6
S'\x00\x00\x19\xc9\xa6\xee0@'
tRp22
sS'vel-peaks'
p23
cnumpy.core.multiarray
_reconstruct
p24
(cnumpy
ndarray
p25
(I0
tS'b'
tRp26
(I1
(I1
tg6
I00
S'\xf9t\xd1\xc3X\r \xc0'
tbsS'grid'
p27
(I30
I34
tp28
sS'fname'
p29
S'data_l_346.00_b_060.00_grid_030_034'
p30
sS'time'
p31
ctime
struct_time
p32
((I2014
I5
I3
I3
I19
I35
I5
I123
I1
t(dtRp33
sS'f_low'
p34
F1268.9000000000001
sS'T_Sys_Right'
p35
g4
(g6
S'\x05\xf5\xc4Gi\xa1q@'
tRp36
sS'f_high'
p37
F1271.9000000000001
sS'col-density'
p38
g4
(g6
S'\xde>v.\xf8\xd52D'
tRp39
s.