(dp1
S'n_obs'
p2
I87
sS'dispersion'
p3
cnumpy.core.multiarray
scalar
p4
(cnumpy
dtype
p5
(S'f8'
I0
I1
tRp6
(I3
S'<'
NNNI-1
I-1
I0
tbS'\x06\xcc\xbezX)+@'
tRp7
sS'b'
F32
sS'n_cal'
p8
I9
sS'vel-center'
p9
g4
(g6
S'\xc6\x1eq\xb4\xc36P@'
tRp10
sS'rec-success'
p11
I01
sS'unixtime'
p12
F1399090669.971499
sS'G_Right'
p13
g4
(g6
S'M\x16JS\xa2f\x00@'
tRp14
sS'l'
g4
(g6
S'ly\xf0\x96\xac\x12p@'
tRp15
sS'G_Left'
p16
g4
(g6
S'\xaf\x15\xc8\xe1\xbf7\xdf?'
tRp17
sS'T_Sys_Left'
p18
g4
(g6
S'\xbf6\xfc\x14\xea\xe9q@'
tRp19
sS'jd'
p20
F2456780.6790393516
sS'lst'
p21
g4
(g6
S'\x00\xe0S{\xc6\xc5%@'
tRp22
sS'vel-peaks'
p23
cnumpy.core.multiarray
_reconstruct
p24
(cnumpy
ndarray
p25
(I0
tS'b'
tRp26
(I1
(I1
tg6
I00
S'\x16\x1a?\xfe\xe8bO@'
tbsS'grid'
p27
(I16
I20
tp28
sS'fname'
p29
S'data_l_257.17_b_032.00_grid_016_020'
p30
sS'time'
p31
ctime
struct_time
p32
((I2014
I5
I2
I21
I17
I49
I4
I122
I1
t(dtRp33
sS'f_low'
p34
F1268.9000000000001
sS'T_Sys_Right'
p35
g4
(g6
S']\x1f\xe9\x9b\x8a\x84q@'
tRp36
sS'f_high'
p37
F1271.9000000000001
sS'col-density'
p38
g4
(g6
S'\xe9\xef\xa9l\x97qAD'
tRp39
s.