(dp1
S'n_obs'
p2
I87
sS'dispersion'
p3
cnumpy.core.multiarray
scalar
p4
(cnumpy
dtype
p5
(S'f8'
I0
I1
tRp6
(I3
S'<'
NNNI-1
I-1
I0
tbS'?\x97/H\xc0+"@'
tRp7
sS'b'
F60
sS'n_cal'
p8
I9
sS'vel-center'
p9
g4
(g6
S'\xc4\xc5\xcc\xc2\x11\xc7F@'
tRp10
sS'rec-success'
p11
I01
sS'unixtime'
p12
F1399273666.0245481
sS'G_Right'
p13
g4
(g6
S'\x05X\xcckx\\\xff?'
tRp14
sS'l'
g4
(g6
S'\x00\x00\x00\x00\x00@m@'
tRp15
sS'G_Left'
p16
g4
(g6
S'\xb1n\x9f$nS\xe0?'
tRp17
sS'T_Sys_Left'
p18
g4
(g6
S'\xa5~\xc05\xd48o@'
tRp19
sS'jd'
p20
F2456782.7970601851
sS'lst'
p21
g4
(g6
S'\x00\x80\xaf\xd6E\xb7+@'
tRp22
sS'vel-peaks'
p23
cnumpy.core.multiarray
_reconstruct
p24
(cnumpy
ndarray
p25
(I0
tS'b'
tRp26
(I1
(I0
tg6
I00
S''
tbsS'grid'
p27
(I30
I6
tp28
sS'fname'
p29
S'data_l_234.00_b_060.00_grid_030_006'
p30
sS'time'
p31
ctime
struct_time
p32
((I2014
I5
I5
I0
I7
I46
I0
I125
I1
t(dtRp33
sS'f_low'
p34
F1268.9000000000001
sS'T_Sys_Right'
p35
g4
(g6
S'~\xc9o1\x8e\xd6o@'
tRp36
sS'f_high'
p37
F1271.9000000000001
sS'col-density'
p38
g4
(g6
S'\xfb\x0bX\xa8\xc8\x02&D'
tRp39
s.