(dp1
S'n_obs'
p2
I87
sS'dispersion'
p3
cnumpy.core.multiarray
scalar
p4
(cnumpy
dtype
p5
(S'f8'
I0
I1
tRp6
(I3
S'<'
NNNI-1
I-1
I0
tbS'\x0c\xfc,\x1e8/#@'
tRp7
sS'b'
F52
sS'n_cal'
p8
I9
sS'vel-center'
p9
g4
(g6
S'-\xf6-\xb5\x18AM@'
tRp10
sS'rec-success'
p11
I01
sS'unixtime'
p12
F1399269848.509867
sS'G_Right'
p13
g4
(g6
S'\x8a\xd4\xf5\xdc\xd08\xfd?'
tRp14
sS'l'
g4
(g6
S'\xda\xde\xf5)\xb8\xafl@'
tRp15
sS'G_Left'
p16
g4
(g6
S'0lz\xbbe\x85\xe1?'
tRp17
sS'T_Sys_Left'
p18
g4
(g6
S'\xac\x89\xbe~\xc8\x95n@'
tRp19
sS'jd'
p20
F2456782.7528703702
sS'lst'
p21
g4
(g6
S'\x00\xc0#\x1b\xc8\x96)@'
tRp22
sS'vel-peaks'
p23
cnumpy.core.multiarray
_reconstruct
p24
(cnumpy
ndarray
p25
(I0
tS'b'
tRp26
(I1
(I1
tg6
I00
S'\xb9a=nu\x80M@'
tbsS'grid'
p27
(I26
I6
tp28
sS'fname'
p29
S'data_l_229.49_b_052.00_grid_026_006'
p30
sS'time'
p31
ctime
struct_time
p32
((I2014
I5
I4
I23
I4
I8
I6
I124
I1
t(dtRp33
sS'f_low'
p34
F1268.9000000000001
sS'T_Sys_Right'
p35
g4
(g6
S'R,\xfc\x91\x1beo@'
tRp36
sS'f_high'
p37
F1271.9000000000001
sS'col-density'
p38
g4
(g6
S'\x7f\x19gik\x0f2D'
tRp39
s.