(dp1
S'n_obs'
p2
I87
sS'dispersion'
p3
cnumpy.core.multiarray
scalar
p4
(cnumpy
dtype
p5
(S'f8'
I0
I1
tRp6
(I3
S'<'
NNNI-1
I-1
I0
tbS"4\xe2\xffG\\\xb2'@"
tRp7
sS'b'
F44
sS'n_cal'
p8
I9
sS'vel-center'
p9
g4
(g6
S'"3\xc5O\xcc\xe8A\xc0'
tRp10
sS'rec-success'
p11
I01
sS'unixtime'
p12
F1399193391.9541979
sS'G_Right'
p13
g4
(g6
S'\xc2\xb8\x946\xc00\x00@'
tRp14
sS'l'
g4
(g6
S'\x00\xf2"\xf9\x14\xcb\x16@'
tRp15
sS'G_Left'
p16
g4
(g6
S'\xfe\xa1\xe6(\xa5\x9f\xdf?'
tRp17
sS'T_Sys_Left'
p18
g4
(g6
S'1\xd5t\x9c\xf0\x0ep@'
tRp19
sS'jd'
p20
F2456781.8679513889
sS'lst'
p21
g4
(g6
S'\x00\x80\x9a! \xff.@'
tRp22
sS'vel-peaks'
p23
cnumpy.core.multiarray
_reconstruct
p24
(cnumpy
ndarray
p25
(I0
tS'b'
tRp26
(I1
(I1
tg6
I00
S'\xea\x14\xfbp\x1bHA\xc0'
tbsS'grid'
p27
(I22
I56
tp28
sS'fname'
p29
S'data_l_005.70_b_044.00_grid_022_056'
p30
sS'time'
p31
ctime
struct_time
p32
((I2014
I5
I4
I1
I49
I51
I6
I124
I1
t(dtRp33
sS'f_low'
p34
F1268.9000000000001
sS'T_Sys_Right'
p35
g4
(g6
S'\x1c\xb7\xe8{(Eo@'
tRp36
sS'f_high'
p37
F1271.9000000000001
sS'col-density'
p38
g4
(g6
S'\xa9\xb8\xa8\x95\x98\x8d=D'
tRp39
s.