(dp1
S'n_obs'
p2
I87
sS'dispersion'
p3
cnumpy.core.multiarray
scalar
p4
(cnumpy
dtype
p5
(S'f8'
I0
I1
tRp6
(I3
S'<'
NNNI-1
I-1
I0
tbS'f\x0b\x03nF\x89"@'
tRp7
sS'b'
F20
sS'n_cal'
p8
I9
sS'vel-center'
p9
g4
(g6
S'\xd1W(\xbe|]L\xc0'
tRp10
sS'rec-success'
p11
I01
sS'unixtime'
p12
F1399298149.5711989
sS'G_Right'
p13
g4
(g6
S'\xb9\x0f}5=\x0f\xfb?'
tRp14
sS'l'
g4
(g6
S"\x80\xe9\xc5*\x92\x82'@"
tRp15
sS'G_Left'
p16
g4
(g6
S'\xda\x80\x16\xd3\xd6\xeb\xe2?'
tRp17
sS'T_Sys_Left'
p18
g4
(g6
S'@\xdd\xf3\xe0c:p@'
tRp19
sS'jd'
p20
F2456783.0804282408
sS'lst'
p21
g4
(g6
S'\x00\x10\x13\x9ej\xad4@'
tRp22
sS'vel-peaks'
p23
cnumpy.core.multiarray
_reconstruct
p24
(cnumpy
ndarray
p25
(I0
tS'b'
tRp26
(I1
(I1
tg6
I00
S"\x8e\xa9\xcc'\xb9\xc8K\xc0"
tbsS'grid'
p27
(I10
I76
tp28
sS'fname'
p29
S'data_l_011.76_b_020.00_grid_010_076'
p30
sS'time'
p31
ctime
struct_time
p32
((I2014
I5
I5
I6
I55
I49
I0
I125
I1
t(dtRp33
sS'f_low'
p34
F1268.9000000000001
sS'T_Sys_Right'
p35
g4
(g6
S'Xnry\x951p@'
tRp36
sS'f_high'
p37
F1271.9000000000001
sS'col-density'
p38
g4
(g6
S'SBJ\xc3\xfd\xc5RD'
tRp39
s.