(dp1
S'n_obs'
p2
I87
sS'dispersion'
p3
cnumpy.core.multiarray
scalar
p4
(cnumpy
dtype
p5
(S'f8'
I0
I1
tRp6
(I3
S'<'
NNNI-1
I-1
I0
tbS"\xf2\x7f(\x90R\xe5'@"
tRp7
sS'b'
F48
sS'n_cal'
p8
I9
sS'vel-center'
p9
g4
(g6
S'\x95\x16p\xe5\x85KJ@'
tRp10
sS'rec-success'
p11
I01
sS'unixtime'
p12
F1399100660.797884
sS'G_Right'
p13
g4
(g6
S'@\rS\xd2Q|\x00@'
tRp14
sS'l'
g4
(g6
S'v\x13\x98\r\r{o@'
tRp15
sS'G_Left'
p16
g4
(g6
S'2vK^\xaf\x0e\xdf?'
tRp17
sS'T_Sys_Left'
p18
g4
(g6
S'\x018({\x98no@'
tRp19
sS'jd'
p20
F2456780.7946759257
sS'lst'
p21
g4
(g6
S'\x00\xc0\xcd\xa2\x9bV+@'
tRp22
sS'vel-peaks'
p23
cnumpy.core.multiarray
_reconstruct
p24
(cnumpy
ndarray
p25
(I0
tS'b'
tRp26
(I1
(I1
tg6
I00
S'\x82H4\xdf\xf8\xf0L@'
tbsS'grid'
p27
(I24
I14
tp28
sS'fname'
p29
S'data_l_251.85_b_048.00_grid_024_014'
p30
sS'time'
p31
ctime
struct_time
p32
((I2014
I5
I3
I0
I4
I20
I5
I123
I1
t(dtRp33
sS'f_low'
p34
F1268.9000000000001
sS'T_Sys_Right'
p35
g4
(g6
S'\x15\xca\x02\\\xd1\xb8p@'
tRp36
sS'f_high'
p37
F1271.9000000000001
sS'col-density'
p38
g4
(g6
S'\xc6\xbeQs&\x858D'
tRp39
s.