(dp1
S'n_obs'
p2
I87
sS'dispersion'
p3
cnumpy.core.multiarray
scalar
p4
(cnumpy
dtype
p5
(S'f8'
I0
I1
tRp6
(I3
S'<'
NNNI-1
I-1
I0
tbS'\xfd\x9a\x0c\xf3\x96\xbd#@'
tRp7
sS'b'
F28
sS'n_cal'
p8
I9
sS'vel-center'
p9
g4
(g6
S'\x15\xb0J\xc1\x18\x0bH\xc0'
tRp10
sS'rec-success'
p11
I01
sS'unixtime'
p12
F1398841224
sS'G_Right'
p13
g4
(g6
S'$\x1f"\xe5A.\xfe?'
tRp14
sS'l'
g4
(g6
S'f$\x19\xea\xfcwv@'
tRp15
sS'G_Left'
p16
g4
(g6
S'\x87\xd2Z\xad\xe8\xf6\xe0?'
tRp17
sS'T_Sys_Left'
p18
g4
(g6
S'1 md7\x1fn@'
tRp19
sS'jd'
p20
F2456777.7919444442
sS'lst'
p21
g4
(g6
S'\x00@Au\x05\xd0*@'
tRp22
sS'vel-peaks'
p23
cnumpy.core.multiarray
_reconstruct
p24
(cnumpy
ndarray
p25
(I0
tS'b'
tRp26
(I1
(I1
tg6
I00
S'\xf9\x98F\xf4\xc6wG\xc0'
tbsS'grid'
p27
(I14
I66
tp28
sS'fname'
p29
S'data_l_359.50_b_028.00_grid_014_066'
p30
sS'time'
p31
ctime
struct_time
p32
((I2014
I4
I30
I0
I0
I24
I2
I120
I1
t(dtRp33
sS'f_low'
p34
F1268.9000000000001
sS'T_Sys_Right'
p35
g4
(g6
S'X\xf2\xd7d:m{@'
tRp36
sS'f_high'
p37
F1271.9000000000001
sS'col-density'
p38
g4
(g6
S'\xe8\x0e\x82\xa7\x0bjWD'
tRp39
s.