(dp1
S'n_obs'
p2
I87
sS'dispersion'
p3
cnumpy.core.multiarray
scalar
p4
(cnumpy
dtype
p5
(S'f8'
I0
I1
tRp6
(I3
S'<'
NNNI-1
I-1
I0
tbS'\xd4\x10\n\x90\x9d\xac*@'
tRp7
sS'b'
F68
sS'n_cal'
p8
I9
sS'vel-center'
p9
g4
(g6
S'\x94I\xb2\xf8I\xf6\x1c@'
tRp10
sS'rec-success'
p11
I01
sS'unixtime'
p12
F1399278442.6375339
sS'G_Right'
p13
g4
(g6
S'\xf0\x967\xcc2_\xf3?'
tRp14
sS'l'
F210
sS'G_Left'
p15
g4
(g6
S"\xbf^'\x93\x19n\xea?"
tRp16
sS'T_Sys_Left'
p17
g4
(g6
S'0\x98\x0e\x07\x07\xado@'
tRp18
sS'jd'
p19
F2456782.8523379629
sS'lst'
p20
g4
(g6
S'\x00\xa0\xb7\xc8b`.@'
tRp21
sS'vel-peaks'
p22
cnumpy.core.multiarray
_reconstruct
p23
(cnumpy
ndarray
p24
(I0
tS'b'
tRp25
(I1
(I0
tg6
I00
S''
tbsS'grid'
p26
(I34
I0
tp27
sS'fname'
p28
S'data_l_210.00_b_068.00_grid_034_000'
p29
sS'time'
p30
ctime
struct_time
p31
((I2014
I5
I5
I1
I27
I22
I0
I125
I1
t(dtRp32
sS'f_low'
p33
F1268.9000000000001
sS'T_Sys_Right'
p34
g4
(g6
S'.V\x07j\xbfbm@'
tRp35
sS'f_high'
p36
F1271.9000000000001
sS'col-density'
p37
g4
(g6
S'-4\xfe[\xf3\x88\x1cD'
tRp38
s.