(dp1
S'n_obs'
p2
I87
sS'dispersion'
p3
cnumpy.core.multiarray
scalar
p4
(cnumpy
dtype
p5
(S'f8'
I0
I1
tRp6
(I3
S'<'
NNNI-1
I-1
I0
tbS'h\x17\x1b\x91\x12\x1a,@'
tRp7
sS'b'
F8
sS'n_cal'
p8
I9
sS'vel-center'
p9
g4
(g6
S'\xfa\x95K\xe3\xc0wM\xc0'
tRp10
sS'rec-success'
p11
I01
sS'unixtime'
p12
F1399295920.9984961
sS'G_Right'
p13
g4
(g6
S'\r\xc5D\xf7\x94\xd2\xfc?'
tRp14
sS'l'
g4
(g6
S'\x00J5"\x13%\'@'
tRp15
sS'G_Left'
p16
g4
(g6
S'+\x8fNz\x8b\xc3\xe1?'
tRp17
sS'T_Sys_Left'
p18
g4
(g6
S'L\xe6\xceZ\x17@o@'
tRp19
sS'jd'
p20
F2456783.0546296295
sS'lst'
p21
g4
(g6
S'\x00\x10\xf7\xcfy\x0e4@'
tRp22
sS'vel-peaks'
p23
cnumpy.core.multiarray
_reconstruct
p24
(cnumpy
ndarray
p25
(I0
tS'b'
tRp26
(I1
(I1
tg6
I00
S'\x96\x83O\x98\x0e~O\xc0'
tbsS'grid'
p27
(I4
I80
tp28
sS'fname'
p29
S'data_l_011.57_b_008.00_grid_004_080'
p30
sS'time'
p31
ctime
struct_time
p32
((I2014
I5
I5
I6
I18
I40
I0
I125
I1
t(dtRp33
sS'f_low'
p34
F1268.9000000000001
sS'T_Sys_Right'
p35
g4
(g6
S'$\xd4\xe4\xc5\xf6\x16p@'
tRp36
sS'f_high'
p37
F1271.9000000000001
sS'col-density'
p38
g4
(g6
S'\xbb\x04\x9d9x\xec_D'
tRp39
s.