(dp1
S'n_obs'
p2
I87
sS'dispersion'
p3
cnumpy.core.multiarray
scalar
p4
(cnumpy
dtype
p5
(S'f8'
I0
I1
tRp6
(I3
S'<'
NNNI-1
I-1
I0
tbS'f\x8ex\xfd\xae(.@'
tRp7
sS'b'
F52
sS'n_cal'
p8
I9
sS'vel-center'
p9
g4
(g6
S'\x14R\xa5B\xe8\xbc8\xc0'
tRp10
sS'rec-success'
p11
I01
sS'unixtime'
p12
F1399107193.429095
sS'G_Right'
p13
g4
(g6
S'\xd8\x07fg\xde\xef\x01@'
tRp14
sS'l'
g4
(g6
S'\xbb\xdb\xda\x99\xf8\x0ev@'
tRp15
sS'G_Left'
p16
g4
(g6
S'\xad\xecR\xd1[\x8b\xdc?'
tRp17
sS'T_Sys_Left'
p18
g4
(g6
S'r\x04\x9f\x879\x98o@'
tRp19
sS'jd'
p20
F2456780.8702893518
sS'lst'
p21
g4
(g6
S'\x00\x00\x02%J\xfa.@'
tRp22
sS'vel-peaks'
p23
cnumpy.core.multiarray
_reconstruct
p24
(cnumpy
ndarray
p25
(I0
tS'b'
tRp26
(I1
(I1
tg6
I00
S'\t\x93\xb8tP\xac3\xc0'
tbsS'grid'
p27
(I26
I44
tp28
sS'fname'
p29
S'data_l_352.94_b_052.00_grid_026_044'
p30
sS'time'
p31
ctime
struct_time
p32
((I2014
I5
I3
I1
I53
I13
I5
I123
I1
t(dtRp33
sS'f_low'
p34
F1268.9000000000001
sS'T_Sys_Right'
p35
g4
(g6
S'\xd3\xef0\r\xcd\xa7p@'
tRp36
sS'f_high'
p37
F1271.9000000000001
sS'col-density'
p38
g4
(g6
S'IV\x11$h\xa1:D'
tRp39
s.