(dp1
S'n_obs'
p2
I87
sS'dispersion'
p3
cnumpy.core.multiarray
scalar
p4
(cnumpy
dtype
p5
(S'f8'
I0
I1
tRp6
(I3
S'<'
NNNI-1
I-1
I0
tbS'\xaf~\x1ahAk!@'
tRp7
sS'b'
F36
sS'n_cal'
p8
I9
sS'vel-center'
p9
g4
(g6
S"l\x97e'\x0bOG\xc0"
tRp10
sS'rec-success'
p11
I01
sS'unixtime'
p12
F1398849493
sS'G_Right'
p13
g4
(g6
S'\xab\xf9\xe3\xe6\r\xa6\xed?'
tRp14
sS'l'
g4
(g6
S'\xe0\x96\xfer\xf3n @'
tRp15
sS'G_Left'
p16
g4
(g6
S'8\xa8;\x97\xd7D\xf1?'
tRp17
sS'T_Sys_Left'
p18
g4
(g6
S'Af\x13\xf9\xd6\xf5\xb0@'
tRp19
sS'jd'
p20
F2456777.8876504628
sS'lst'
p21
g4
(g6
S'\x00\x80z\xd9Fk/@'
tRp22
sS'vel-peaks'
p23
cnumpy.core.multiarray
_reconstruct
p24
(cnumpy
ndarray
p25
(I0
tS'b'
tRp26
(I1
(I1
tg6
I00
S'\xf1\xa5l\x95\xaf\xbcG\xc0'
tbsS'grid'
p27
(I18
I64
tp28
sS'fname'
p29
S'data_l_008.22_b_036.00_grid_018_064'
p30
sS'time'
p31
ctime
struct_time
p32
((I2014
I4
I30
I2
I18
I13
I2
I120
I1
t(dtRp33
sS'f_low'
p34
F1268.9000000000001
sS'T_Sys_Right'
p35
g4
(g6
S'\xd8\xb6P[\x0e\x94\x90@'
tRp36
sS'f_high'
p37
F1271.9000000000001
sS'col-density'
p38
g4
(g6
S'\xbf\x80?5\xc2\xbb\x7fD'
tRp39
s.