(dp1
S'n_obs'
p2
I87
sS'dispersion'
p3
cnumpy.core.multiarray
scalar
p4
(cnumpy
dtype
p5
(S'f8'
I0
I1
tRp6
(I3
S'<'
NNNI-1
I-1
I0
tbS'F\x06\x8b\x13U\xd6=@'
tRp7
sS'b'
F0
sS'n_cal'
p8
I9
sS'vel-center'
p9
g4
(g6
S"'\xe7\xbehz\x19J\xc0"
tRp10
sS'rec-success'
p11
I01
sS'unixtime'
p12
F1399294759.176722
sS'G_Right'
p13
g4
(g6
S'\x93\x14\xf9r(\xa9\xfc?'
tRp14
sS'l'
g4
(g6
S'\x00\x00\x00\x00\x00\x00,@'
tRp15
sS'G_Left'
p16
g4
(g6
S'\xf7W\xc0\x1e8\xdd\xe1?'
tRp17
sS'T_Sys_Left'
p18
g4
(g6
S'\xaa\xd0P\xb1\xda@p@'
tRp19
sS'jd'
p20
F2456783.0411921297
sS'lst'
p21
g4
(g6
S'\x00\x10\x07\x96\xb0\xbb3@'
tRp22
sS'vel-peaks'
p23
cnumpy.core.multiarray
_reconstruct
p24
(cnumpy
ndarray
p25
(I0
tS'b'
tRp26
(I1
(I2
tg6
I00
S'\x1a\x80\xb4d&1K\xc0*b`U%\xd4U\xc0'
tbsS'grid'
p27
(I0
I82
tp28
sS'fname'
p29
S'data_l_014.00_b_000.00_grid_000_082'
p30
sS'time'
p31
ctime
struct_time
p32
((I2014
I5
I5
I5
I59
I19
I0
I125
I1
t(dtRp33
sS'f_low'
p34
F1268.9000000000001
sS'T_Sys_Right'
p35
g4
(g6
S',\xa0\xca!\x9c\x1ap@'
tRp36
sS'f_high'
p37
F1271.9000000000001
sS'col-density'
p38
g4
(g6
S'>m\x18\\.\xf9|D'
tRp39
s.