(dp1
S'n_obs'
p2
I87
sS'dispersion'
p3
cnumpy.core.multiarray
scalar
p4
(cnumpy
dtype
p5
(S'f8'
I0
I1
tRp6
(I3
S'<'
NNNI-1
I-1
I0
tbS'\x14\xc5=\xe7q\x8f\x1e@'
tRp7
sS'b'
F44
sS'n_cal'
p8
I9
sS'vel-center'
p9
g4
(g6
S'\x94\xd0\xc9.PXG@'
tRp10
sS'rec-success'
p11
I01
sS'unixtime'
p12
F1399190504.176259
sS'G_Right'
p13
g4
(g6
S'\xb8\xa17\xa3\x97\xde\xfc?'
tRp14
sS'l'
g4
(g6
S'\x9c\xa4\xd0\xd7\xac\xf2p@'
tRp15
sS'G_Left'
p16
g4
(g6
S"\x94\x0e\xca\x95'\xbc\xe1?"
tRp17
sS'T_Sys_Left'
p18
g4
(g6
S'\x01\xf3\xc9[\xae|p@'
tRp19
sS'jd'
p20
F2456781.8345370372
sS'lst'
p21
g4
(g6
S'\x00`\x86\xe1gc-@'
tRp22
sS'vel-peaks'
p23
cnumpy.core.multiarray
_reconstruct
p24
(cnumpy
ndarray
p25
(I0
tS'b'
tRp26
(I1
(I1
tg6
I00
S'\xec\x95\xaa\xee\xa2\x18G@'
tbsS'grid'
p27
(I22
I22
tp28
sS'fname'
p29
S'data_l_271.17_b_044.00_grid_022_022'
p30
sS'time'
p31
ctime
struct_time
p32
((I2014
I5
I4
I1
I1
I44
I6
I124
I1
t(dtRp33
sS'f_low'
p34
F1268.9000000000001
sS'T_Sys_Right'
p35
g4
(g6
S'\x82N\x90\x12\xd5\xa7q@'
tRp36
sS'f_high'
p37
F1271.9000000000001
sS'col-density'
p38
g4
(g6
S'\xe8\xafv)\x0c!7D'
tRp39
s.