(dp1
S'n_obs'
p2
I87
sS'dispersion'
p3
cnumpy.core.multiarray
scalar
p4
(cnumpy
dtype
p5
(S'f8'
I0
I1
tRp6
(I3
S'<'
NNNI-1
I-1
I0
tbS'a\xa5+4\xe6\xf7#@'
tRp7
sS'b'
F14
sS'n_cal'
p8
I9
sS'vel-center'
p9
g4
(g6
S'\x8a5\xf4\xb9\x10\xacK\xc0'
tRp10
sS'rec-success'
p11
I01
sS'unixtime'
p12
F1399288621.5122831
sS'G_Right'
p13
g4
(g6
S'Z\xed\x04:\x8e\xb3\xff?'
tRp14
sS'l'
g4
(g6
S'\x00M\x8f}\x1fI\x16@'
tRp15
sS'G_Left'
p16
g4
(g6
S'\xd0@,\x0e\x95&\xe0?'
tRp17
sS'T_Sys_Left'
p18
g4
(g6
S'\xac\x8c\x0eS\xed\no@'
tRp19
sS'jd'
p20
F2456782.9701504633
sS'lst'
p21
g4
(g6
S'\x00\x00\x86\xc6\x03\x062@'
tRp22
sS'vel-peaks'
p23
cnumpy.core.multiarray
_reconstruct
p24
(cnumpy
ndarray
p25
(I0
tS'b'
tRp26
(I1
(I1
tg6
I00
S'\x19&\xcd\x01\xa5\xe9K\xc0'
tbsS'grid'
p27
(I7
I7
tp28
sS'fname'
p29
S'data_l_005.57_b_014.00_grid_007_007'
p30
sS'time'
p31
ctime
struct_time
p32
((I2014
I5
I5
I4
I17
I1
I0
I125
I1
t(dtRp33
sS'f_low'
p34
F1268.9000000000001
sS'T_Sys_Right'
p35
g4
(g6
S'\xd7\x19\x9eunjp@'
tRp36
sS'f_high'
p37
F1271.9000000000001
sS'col-density'
p38
g4
(g6
S'\x97\xb45\xb4A\xccWD'
tRp39
s.