(dp1
S'n_obs'
p2
I87
sS'dispersion'
p3
cnumpy.core.multiarray
scalar
p4
(cnumpy
dtype
p5
(S'f8'
I0
I1
tRp6
(I3
S'<'
NNNI-1
I-1
I0
tbS'\x8cz\xfc\xa0\xc0C,@'
tRp7
sS'b'
F72
sS'n_cal'
p8
I9
sS'vel-center'
p9
g4
(g6
S'\xef`N\x1a\xd5\xb8,\xc0'
tRp10
sS'rec-success'
p11
I01
sS'unixtime'
p12
F1399199526.122447
sS'G_Right'
p13
g4
(g6
S'}\x08\x07/b\xa7\xff?'
tRp14
sS'l'
g4
(g6
S'\x00\xf1>\x966S\x15@'
tRp15
sS'G_Left'
p16
g4
(g6
S'\xb1`\x82\xf3\xca,\xe0?'
tRp17
sS'T_Sys_Left'
p18
g4
(g6
S'k7\xd0\xcb<nn@'
tRp19
sS'jd'
p20
F2456781.9389583333
sS'lst'
p21
g4
(g6
S'\x00\x00\x17\x1d\x0651@'
tRp22
sS'vel-peaks'
p23
cnumpy.core.multiarray
_reconstruct
p24
(cnumpy
ndarray
p25
(I0
tS'b'
tRp26
(I1
(I1
tg6
I00
S'\xa6n\xdf\xf1`F\x11\xc0'
tbsS'grid'
p27
(I36
I24
tp28
sS'fname'
p29
S'data_l_005.33_b_072.00_grid_036_024'
p30
sS'time'
p31
ctime
struct_time
p32
((I2014
I5
I4
I3
I32
I6
I6
I124
I1
t(dtRp33
sS'f_low'
p34
F1268.9000000000001
sS'T_Sys_Right'
p35
g4
(g6
S'\xd4u6j^\x14o@'
tRp36
sS'f_high'
p37
F1271.9000000000001
sS'col-density'
p38
g4
(g6
S"\xa0\xf6'\xa7Tc0D"
tRp39
s.