(dp1
S'n_obs'
p2
I87
sS'dispersion'
p3
cnumpy.core.multiarray
scalar
p4
(cnumpy
dtype
p5
(S'f8'
I0
I1
tRp6
(I3
S'<'
NNNI-1
I-1
I0
tbS'\x0f\x0f;?t0"@'
tRp7
sS'b'
F64
sS'n_cal'
p8
I9
sS'vel-center'
p9
g4
(g6
S'\x87\xb9e\x1ac\x12\x04@'
tRp10
sS'rec-success'
p11
I01
sS'unixtime'
p12
F1399197661.7552991
sS'G_Right'
p13
g4
(g6
S'\x9c\xcc\x88U\x0b\xab\xf8?'
tRp14
sS'l'
g4
(g6
S'RN\xc2d\xef\x89t@'
tRp15
sS'G_Left'
p16
g4
(g6
S'\xedN\x91xi\xc1\xe4?'
tRp17
sS'T_Sys_Left'
p18
g4
(g6
S'\xec\xbaG\xafd\xe6n@'
tRp19
sS'jd'
p20
F2456781.9173726849
sS'lst'
p21
g4
(g6
S'\x00\xf0g\xde\t\xb00@'
tRp22
sS'vel-peaks'
p23
cnumpy.core.multiarray
_reconstruct
p24
(cnumpy
ndarray
p25
(I0
tS'b'
tRp26
(I1
(I1
tg6
I00
S'\x80\xc57\xb6e2\x17@'
tbsS'grid'
p27
(I32
I26
tp28
sS'fname'
p29
S'data_l_328.62_b_064.00_grid_032_026'
p30
sS'time'
p31
ctime
struct_time
p32
((I2014
I5
I4
I3
I1
I1
I6
I124
I1
t(dtRp33
sS'f_low'
p34
F1268.9000000000001
sS'T_Sys_Right'
p35
g4
(g6
S'\x15\t^\xdc#\xf9l@'
tRp36
sS'f_high'
p37
F1271.9000000000001
sS'col-density'
p38
g4
(g6
S'}\x9b\xd1\x82\xd3z&D'
tRp39
s.