(dp1
S'n_obs'
p2
I87
sS'dispersion'
p3
cnumpy.core.multiarray
scalar
p4
(cnumpy
dtype
p5
(S'f8'
I0
I1
tRp6
(I3
S'<'
NNNI-1
I-1
I0
tbS'\xbe\xc4\xc1\xc2\xf0\xbb*@'
tRp7
sS'b'
F72
sS'n_cal'
p8
I9
sS'vel-center'
p9
g4
(g6
S'\x91-\x94\x89\xc8\xfd%\xc0'
tRp10
sS'rec-success'
p11
I01
sS'unixtime'
p12
F1399199284.9500489
sS'G_Right'
p13
g4
(g6
S'\xe0\xb5k.\xb3\xc8\xfd?'
tRp14
sS'l'
g4
(g6
S'\x1e<|\x1d1\x06v@'
tRp15
sS'G_Left'
p16
g4
(g6
S'\x02\xca{"\xc10\xe1?'
tRp17
sS'T_Sys_Left'
p18
g4
(g6
S'K\xf1-Z\xb8\xc2p@'
tRp19
sS'jd'
p20
F2456781.9361574072
sS'lst'
p21
g4
(g6
S'\x00Pu\x93\xc4#1@'
tRp22
sS'vel-peaks'
p23
cnumpy.core.multiarray
_reconstruct
p24
(cnumpy
ndarray
p25
(I0
tS'b'
tRp26
(I1
(I1
tg6
I00
S'h9\xc9@\xf0\xa6\xf1\xbf'
tbsS'grid'
p27
(I36
I22
tp28
sS'fname'
p29
S'data_l_352.39_b_072.00_grid_036_022'
p30
sS'time'
p31
ctime
struct_time
p32
((I2014
I5
I4
I3
I28
I4
I6
I124
I1
t(dtRp33
sS'f_low'
p34
F1268.9000000000001
sS'T_Sys_Right'
p35
g4
(g6
S'!lq\x02f\x16p@'
tRp36
sS'f_high'
p37
F1271.9000000000001
sS'col-density'
p38
g4
(g6
S'\x16l\x1d\xe1\xe7 ,D'
tRp39
s.