(dp1
S'n_obs'
p2
I87
sS'dispersion'
p3
cnumpy.core.multiarray
scalar
p4
(cnumpy
dtype
p5
(S'f8'
I0
I1
tRp6
(I3
S'<'
NNNI-1
I-1
I0
tbS'c\xfb\x15\x8e\xf45(@'
tRp7
sS'b'
F52
sS'n_cal'
p8
I9
sS'vel-center'
p9
g4
(g6
S'\x1dIq\x14-\x82<\xc0'
tRp10
sS'rec-success'
p11
I01
sS'unixtime'
p12
F1399107429.7082369
sS'G_Right'
p13
g4
(g6
S"\xd8\xbau'r\xe6\x01@"
tRp14
sS'l'
g4
(g6
S'\x89+\xd9\xa0\xecvv@'
tRp15
sS'G_Left'
p16
g4
(g6
S'\xe3\x8f\xca}b\x9a\xdc?'
tRp17
sS'T_Sys_Left'
p18
g4
(g6
S't\xd2=\x98\nOp@'
tRp19
sS'jd'
p20
F2456780.8730208334
sS'lst'
p21
g4
(g6
S'\x00\xe0\x07+\xf2\x1b/@'
tRp22
sS'vel-peaks'
p23
cnumpy.core.multiarray
_reconstruct
p24
(cnumpy
ndarray
p25
(I0
tS'b'
tRp26
(I1
(I1
tg6
I00
S'mh?\x07\xd8$9\xc0'
tbsS'grid'
p27
(I26
I46
tp28
sS'fname'
p29
S'data_l_359.43_b_052.00_grid_026_046'
p30
sS'time'
p31
ctime
struct_time
p32
((I2014
I5
I3
I1
I57
I9
I5
I123
I1
t(dtRp33
sS'f_low'
p34
F1268.9000000000001
sS'T_Sys_Right'
p35
g4
(g6
S'q\xfd\xe9\xf5pVq@'
tRp36
sS'f_high'
p37
F1271.9000000000001
sS'col-density'
p38
g4
(g6
S'\xf7\x8eOB\x8b\xbe8D'
tRp39
s.