(dp1
S'n_obs'
p2
I174
sS'dispersion'
p3
cnumpy.core.multiarray
scalar
p4
(cnumpy
dtype
p5
(S'f8'
I0
I1
tRp6
(I3
S'<'
NNNI-1
I-1
I0
tbS'\xba\xde1\xa0\xd7\xbc5@'
tRp7
sS'b'
F0
sS'fname'
p8
S'data_l_222.00_b_000.00_grid_000_006'
p9
sS'vel-center'
p10
g4
(g6
S'\xddr\xddO\x8e\x80^@'
tRp11
sS'rec-success'
p12
I01
sS'unixtime'
p13
F1398565620
sS'G_Right'
p14
g4
(g6
S'*\xf5\xb8%(\xa9\xfe?'
tRp15
sS'l'
g4
(g6
S'\x00\x00\x00\x00\x00\xc0k@'
tRp16
sS'G_Left'
p17
g4
(g6
S'\xbc\xffD\xbb\xe8\xb2\xe0?'
tRp18
sS'T_Sys_Left'
p19
g4
(g6
S'S\x89W\x87\x8e\x18q@'
tRp20
sS'jd'
p21
F2456774.6020833333
sS'lst'
p22
g4
(g6
S'\x00`\xb9\xab\xb0G!@'
tRp23
sS'vel-peaks'
p24
cnumpy.core.multiarray
_reconstruct
p25
(cnumpy
ndarray
p26
(I0
tS'b'
tRp27
(I1
(I3
tg6
I00
S"v\x87\xb4\xd7\x80\xd2a@r\x9e\x0f\x98\xf5'^@\xd0%5\xa9\x11\xb6Y@"
tbsS'grid'
p28
(I0
I6
tp29
sS'n_cal'
p30
I18
sS'time'
p31
ctime
struct_time
p32
((I2014
I4
I26
I19
I27
I0
I5
I116
I1
t(dtRp33
sS'f_low'
p34
F1268.9000000000001
sS'T_Sys_Right'
p35
g4
(g6
S'r\x063C\xd9\x99q@'
tRp36
sS'f_high'
p37
F1271.9000000000001
sS'col-density'
p38
g4
(g6
S'\x1c\x96\x94\xad\xd6\x17uD'
tRp39
s.