(dp1
S'n_obs'
p2
I174
sS'dispersion'
p3
cnumpy.core.multiarray
scalar
p4
(cnumpy
dtype
p5
(S'f8'
I0
I1
tRp6
(I3
S'<'
NNNI-1
I-1
I0
tbS'4\xaf\xd0\xc4g\x199@'
tRp7
sS'b'
F4
sS'fname'
p8
S'data_l_234.06_b_004.00_grid_002_012'
p9
sS'vel-center'
p10
g4
(g6
S'\x95=\xa5\x94\xd3E^@'
tRp11
sS'rec-success'
p12
I01
sS'unixtime'
p13
F1398655920
sS'G_Right'
p14
g4
(g6
S'\xba\xfa\x9b\x1c\xad\x12\xfa?'
tRp15
sS'l'
g4
(g6
S'H2\xc1\x18\xe0Am@'
tRp16
sS'G_Left'
p17
g4
(g6
S',\xe3 \x03 \xa3\xe3?'
tRp18
sS'T_Sys_Left'
p19
g4
(g6
S'E\xed\xa6\xb4\xbbUs@'
tRp20
sS'jd'
p21
F2456775.6472222223
sS'lst'
p22
g4
(g6
S'\x00 \x0f\xd3\x84\x95#@'
tRp23
sS'vel-peaks'
p24
cnumpy.core.multiarray
_reconstruct
p25
(cnumpy
ndarray
p26
(I0
tS'b'
tRp27
(I1
(I4
tg6
I00
S'vw\n\x12\x96Ac@\xec\xc1b\x8c\xcf\xab_@\xf0f\x9bqW\x12[@\xf7>h\x02#FU@'
tbsS'grid'
p28
(I2
I12
tp29
sS'n_cal'
p30
I18
sS'time'
p31
ctime
struct_time
p32
((I2014
I4
I27
I20
I32
I0
I6
I117
I1
t(dtRp33
sS'f_low'
p34
F1268.9000000000001
sS'T_Sys_Right'
p35
g4
(g6
S't[G\x9c\xe8kj@'
tRp36
sS'f_high'
p37
F1271.9000000000001
sS'col-density'
p38
g4
(g6
S'8\xfb^Q\xbc;hD'
tRp39
s.