(dp1
S'n_obs'
p2
I87
sS'dispersion'
p3
cnumpy.core.multiarray
scalar
p4
(cnumpy
dtype
p5
(S'f8'
I0
I1
tRp6
(I3
S'<'
NNNI-1
I-1
I0
tbS'\x16]\xac\xa0g\xf0*@'
tRp7
sS'b'
F32
sS'n_cal'
p8
I9
sS'vel-center'
p9
g4
(g6
S'\x98\xf2K\xbb~\xa3S@'
tRp10
sS'rec-success'
p11
I01
sS'unixtime'
p12
F1399089905.909574
sS'G_Right'
p13
g4
(g6
S'\x19}\x81\xab\x0e\x0f\x00@'
tRp14
sS'l'
F210
sS'G_Left'
p15
g4
(g6
S'\xb0k\x88\xe5\xfe\xe1\xdf?'
tRp16
sS'T_Sys_Left'
p17
g4
(g6
S'\xf8Z@\x1a\x13Yp@'
tRp18
sS'jd'
p19
F2456780.6701967595
sS'lst'
p20
g4
(g6
S'\x00\xe0\xef\xee\xd1X%@'
tRp21
sS'vel-peaks'
p22
cnumpy.core.multiarray
_reconstruct
p23
(cnumpy
ndarray
p24
(I0
tS'b'
tRp25
(I1
(I0
tg6
I00
S''
tbsS'grid'
p26
(I16
I0
tp27
sS'fname'
p28
S'data_l_210.00_b_032.00_grid_016_000'
p29
sS'time'
p30
ctime
struct_time
p31
((I2014
I5
I2
I21
I5
I5
I4
I122
I1
t(dtRp32
sS'f_low'
p33
F1268.9000000000001
sS'T_Sys_Right'
p34
g4
(g6
S'T\x16\x8a\xc1v\x0cq@'
tRp35
sS'f_high'
p36
F1271.9000000000001
sS'col-density'
p37
g4
(g6
S'\x02\x96\xf8\x19\xa4R3D'
tRp38
s.