(dp1
S'n_obs'
p2
I87
sS'dispersion'
p3
cnumpy.core.multiarray
scalar
p4
(cnumpy
dtype
p5
(S'f8'
I0
I1
tRp6
(I3
S'<'
NNNI-1
I-1
I0
tbS'M\xdb\xff\xd9/"\x1b@'
tRp7
sS'b'
F48
sS'n_cal'
p8
I9
sS'vel-center'
p9
g4
(g6
S'\x91\t\x1e\x9e\x89zF@'
tRp10
sS'rec-success'
p11
I01
sS'unixtime'
p12
F1399101342.3755341
sS'G_Right'
p13
g4
(g6
S'\xfe\x8eG\xb3\xfd\xac\x00@'
tRp14
sS'l'
g4
(g6
S'\xc0\xc4\xb5\tw\xdcp@'
tRp15
sS'G_Left'
p16
g4
(g6
S'\xfc(K\xc0\t\xb4\xde?'
tRp17
sS'T_Sys_Left'
p18
g4
(g6
S'\x8b\xeb\xdd$\x04\xf8n@'
tRp19
sS'jd'
p20
F2456780.8025694443
sS'lst'
p21
g4
(g6
S'\x00\xc0\x9f{\xde\xb7+@'
tRp22
sS'vel-peaks'
p23
cnumpy.core.multiarray
_reconstruct
p24
(cnumpy
ndarray
p25
(I0
tS'b'
tRp26
(I1
(I1
tg6
I00
S'JA\xd0\x9fG\xefF@'
tbsS'grid'
p27
(I24
I20
tp28
sS'fname'
p29
S'data_l_269.78_b_048.00_grid_024_020'
p30
sS'time'
p31
ctime
struct_time
p32
((I2014
I5
I3
I0
I15
I42
I5
I123
I1
t(dtRp33
sS'f_low'
p34
F1268.9000000000001
sS'T_Sys_Right'
p35
g4
(g6
S'qA\x18%\xb1\xdfq@'
tRp36
sS'f_high'
p37
F1271.9000000000001
sS'col-density'
p38
g4
(g6
S'\xbf\xb7\x10\x12\x89\x8c2D'
tRp39
s.