(dp1
S'n_obs'
p2
I87
sS'dispersion'
p3
cnumpy.core.multiarray
scalar
p4
(cnumpy
dtype
p5
(S'f8'
I0
I1
tRp6
(I3
S'<'
NNNI-1
I-1
I0
tbS'\xc0\xe8\xa0\xefd\xa8"@'
tRp7
sS'b'
F60
sS'n_cal'
p8
I9
sS'vel-center'
p9
g4
(g6
S'\x8a\x00\x1bQU\x16H@'
tRp10
sS'rec-success'
p11
I01
sS'unixtime'
p12
F1399273433.939362
sS'G_Right'
p13
g4
(g6
S'\x1f\xef\xc2*MO\x00@'
tRp14
sS'l'
g4
(g6
S'\x00\x00\x00\x00\x00@l@'
tRp15
sS'G_Left'
p16
g4
(g6
S'X+N\xd3hd\xdf?'
tRp17
sS'T_Sys_Left'
p18
g4
(g6
S'i\xe6\xe1\xfbC\x8cn@'
tRp19
sS'jd'
p20
F2456782.794363426
sS'lst'
p21
g4
(g6
S'\x00\x80xW\x0b\x96+@'
tRp22
sS'vel-peaks'
p23
cnumpy.core.multiarray
_reconstruct
p24
(cnumpy
ndarray
p25
(I0
tS'b'
tRp26
(I1
(I1
tg6
I00
S'\xf2{\xf0+\xd9\xc1J@'
tbsS'grid'
p27
(I30
I4
tp28
sS'fname'
p29
S'data_l_226.00_b_060.00_grid_030_004'
p30
sS'time'
p31
ctime
struct_time
p32
((I2014
I5
I5
I0
I3
I53
I0
I125
I1
t(dtRp33
sS'f_low'
p34
F1268.9000000000001
sS'T_Sys_Right'
p35
g4
(g6
S'h\xc0\x06pyZp@'
tRp36
sS'f_high'
p37
F1271.9000000000001
sS'col-density'
p38
g4
(g6
S'8\x886\xa0Z\xdc(D'
tRp39
s.