(dp1
S'n_obs'
p2
I87
sS'dispersion'
p3
cnumpy.core.multiarray
scalar
p4
(cnumpy
dtype
p5
(S'f8'
I0
I1
tRp6
(I3
S'<'
NNNI-1
I-1
I0
tbS'\xca$\xdf\x87\x80\xd3#@'
tRp7
sS'b'
F48
sS'n_cal'
p8
I9
sS'vel-center'
p9
g4
(g6
S'G\xe5\xf1Zo\x02A@'
tRp10
sS'rec-success'
p11
I01
sS'unixtime'
p12
F1399101814.933816
sS'G_Right'
p13
g4
(g6
S'\xff\x9d}@\xcf\xdf\x00@'
tRp14
sS'l'
g4
(g6
S'\x18\xec\xa6\x0b\xc2\x9bq@'
tRp15
sS'G_Left'
p16
g4
(g6
S'\xd2\x11\xc7o\x92W\xde?'
tRp17
sS'T_Sys_Left'
p18
g4
(g6
S'H\xb6\xb5%\xe0\x18o@'
tRp19
sS'jd'
p20
F2456780.8080324074
sS'lst'
p21
g4
(g6
S'\x00\xa0\xab\x87.\xfb+@'
tRp22
sS'vel-peaks'
p23
cnumpy.core.multiarray
_reconstruct
p24
(cnumpy
ndarray
p25
(I0
tS'b'
tRp26
(I1
(I1
tg6
I00
S'\x0e\xf2\xd6&\xdb\xa3B@'
tbsS'grid'
p27
(I24
I24
tp28
sS'fname'
p29
S'data_l_281.73_b_048.00_grid_024_024'
p30
sS'time'
p31
ctime
struct_time
p32
((I2014
I5
I3
I0
I23
I34
I5
I123
I1
t(dtRp33
sS'f_low'
p34
F1268.9000000000001
sS'T_Sys_Right'
p35
g4
(g6
S'\x10Z\xde\xfeq\xd0o@'
tRp36
sS'f_high'
p37
F1271.9000000000001
sS'col-density'
p38
g4
(g6
S"A1*\xe48\xe6'D"
tRp39
s.