(dp1
S'n_obs'
p2
I87
sS'dispersion'
p3
cnumpy.core.multiarray
scalar
p4
(cnumpy
dtype
p5
(S'f8'
I0
I1
tRp6
(I3
S'<'
NNNI-1
I-1
I0
tbS"\xff'\x8d\x8fY\xd61@"
tRp7
sS'b'
F72
sS'n_cal'
p8
I9
sS'vel-center'
p9
g4
(g6
S'\x9av\xc7a\xe5\x91-@'
tRp10
sS'rec-success'
p11
I01
sS'unixtime'
p12
F1399280846.672852
sS'G_Right'
p13
g4
(g6
S';\x9e\x97\xb5v\xf7\xf4?'
tRp14
sS'l'
g4
(g6
S':\xbeO\xb0\x8a+q@'
tRp15
sS'G_Left'
p16
g4
(g6
S'W\xbdi?sk\xe8?'
tRp17
sS'T_Sys_Left'
p18
g4
(g6
S'z\x1an\xcd\x97\x10o@'
tRp19
sS'jd'
p20
F2456782.880162037
sS'lst'
p21
g4
(g6
S'\x00 \xcad9\xb7/@'
tRp22
sS'vel-peaks'
p23
cnumpy.core.multiarray
_reconstruct
p24
(cnumpy
ndarray
p25
(I0
tS'b'
tRp26
(I1
(I0
tg6
I00
S''
tbsS'grid'
p27
(I36
I10
tp28
sS'fname'
p29
S'data_l_274.72_b_072.00_grid_036_010'
p30
sS'time'
p31
ctime
struct_time
p32
((I2014
I5
I5
I2
I7
I26
I0
I125
I1
t(dtRp33
sS'f_low'
p34
F1268.9000000000001
sS'T_Sys_Right'
p35
g4
(g6
S'\xcc(5%\xa4\x9an@'
tRp36
sS'f_high'
p37
F1271.9000000000001
sS'col-density'
p38
g4
(g6
S'\x858\xf1O\x01\xb0/D'
tRp39
s.