(dp1
S'n_obs'
p2
I87
sS'dispersion'
p3
cnumpy.core.multiarray
scalar
p4
(cnumpy
dtype
p5
(S'f8'
I0
I1
tRp6
(I3
S'<'
NNNI-1
I-1
I0
tbS'X``\xea\xf2i#@'
tRp7
sS'b'
F30
sS'n_cal'
p8
I9
sS'vel-center'
p9
g4
(g6
S'\x1b\xf6\x8e\x8f\x99\xf3I\xc0'
tRp10
sS'rec-success'
p11
I01
sS'unixtime'
p12
F1399292593.5180681
sS'G_Right'
p13
g4
(g6
S'X\x96\x131\x85\xde\xf8?'
tRp14
sS'l'
g4
(g6
S'\xa0\xf9M\x17\xcb\xb01@'
tRp15
sS'G_Left'
p16
g4
(g6
S'\xee`\x9fhs\x96\xe4?'
tRp17
sS'T_Sys_Left'
p18
g4
(g6
S'3]\x1c\xcc\xe81m@'
tRp19
sS'jd'
p20
F2456783.0161226853
sS'lst'
p21
g4
(g6
S'\x00\xa0%\xcd=!3@'
tRp22
sS'vel-peaks'
p23
cnumpy.core.multiarray
_reconstruct
p24
(cnumpy
ndarray
p25
(I0
tS'b'
tRp26
(I1
(I1
tg6
I00
S'\xe6\xe4\xe8\xb0\xa1\x0fJ\xc0'
tbsS'grid'
p27
(I15
I1
tp28
sS'fname'
p29
S'data_l_017.69_b_030.00_grid_015_001'
p30
sS'time'
p31
ctime
struct_time
p32
((I2014
I5
I5
I5
I23
I13
I0
I125
I1
t(dtRp33
sS'f_low'
p34
F1268.9000000000001
sS'T_Sys_Right'
p35
g4
(g6
S'\xfd\xc0\xe5\xdf\xa3\xb3p@'
tRp36
sS'f_high'
p37
F1271.9000000000001
sS'col-density'
p38
g4
(g6
S'\x1b,\xc7\xd8\xef\xa7AD'
tRp39
s.