(dp1
S'n_obs'
p2
I87
sS'dispersion'
p3
cnumpy.core.multiarray
scalar
p4
(cnumpy
dtype
p5
(S'f8'
I0
I1
tRp6
(I3
S'<'
NNNI-1
I-1
I0
tbS'\xc47\xa6\x0et-%@'
tRp7
sS'b'
F44
sS'n_cal'
p8
I9
sS'vel-center'
p9
g4
(g6
S'\x9e\\\xc7-\xcc\xe52\xc0'
tRp10
sS'rec-success'
p11
I01
sS'unixtime'
p12
F1399192458.7214069
sS'G_Right'
p13
g4
(g6
S'\x17W\x89\x1f\x0c\xc2\xff?'
tRp14
sS'l'
g4
(g6
S'\x18\n\r\x91Jwu@'
tRp15
sS'G_Left'
p16
g4
(g6
S'm\xce\xbd]6\x1f\xe0?'
tRp17
sS'T_Sys_Left'
p18
g4
(g6
S'\xb8\xbc\x0c\xe1Z\x16o@'
tRp19
sS'jd'
p20
F2456781.8571527777
sS'lst'
p21
g4
(g6
S'\x00 \xd9\xa1\x11z.@'
tRp22
sS'vel-peaks'
p23
cnumpy.core.multiarray
_reconstruct
p24
(cnumpy
ndarray
p25
(I0
tS'b'
tRp26
(I1
(I1
tg6
I00
S'\x8d\xe1RBlF3\xc0'
tbsS'grid'
p27
(I22
I48
tp28
sS'fname'
p29
S'data_l_343.46_b_044.00_grid_022_048'
p30
sS'time'
p31
ctime
struct_time
p32
((I2014
I5
I4
I1
I34
I18
I6
I124
I1
t(dtRp33
sS'f_low'
p34
F1268.9000000000001
sS'T_Sys_Right'
p35
g4
(g6
S'\x16y\xb13qDp@'
tRp36
sS'f_high'
p37
F1271.9000000000001
sS'col-density'
p38
g4
(g6
S'\xcc\xe04\xf2\xc9\xccDD'
tRp39
s.