(dp1
S'n_obs'
p2
I87
sS'dispersion'
p3
cnumpy.core.multiarray
scalar
p4
(cnumpy
dtype
p5
(S'f8'
I0
I1
tRp6
(I3
S'<'
NNNI-1
I-1
I0
tbS'\xb3\xc4\xe7c\xcff,@'
tRp7
sS'b'
F56
sS'n_cal'
p8
I9
sS'vel-center'
p9
g4
(g6
S'=/a\x1dh\xae<@'
tRp10
sS'rec-success'
p11
I01
sS'unixtime'
p12
F1399272458.764348
sS'G_Right'
p13
g4
(g6
S'\xa97\x9b\xb0\xeaP\xfe?'
tRp14
sS'l'
g4
(g6
S'"\xc2bU\x0e&q@'
tRp15
sS'G_Left'
p16
g4
(g6
S'8\x11^\x93\x83\xe3\xe0?'
tRp17
sS'T_Sys_Left'
p18
g4
(g6
S'>\x7fpK\xccPq@'
tRp19
sS'jd'
p20
F2456782.7830787036
sS'lst'
p21
g4
(g6
S'\x00\xc0h{\xff\n+@'
tRp22
sS'vel-peaks'
p23
cnumpy.core.multiarray
_reconstruct
p24
(cnumpy
ndarray
p25
(I0
tS'b'
tRp26
(I1
(I1
tg6
I00
S'\xfe\x16L~~TB@'
tbsS'grid'
p27
(I28
I18
tp28
sS'fname'
p29
S'data_l_274.38_b_056.00_grid_028_018'
p30
sS'time'
p31
ctime
struct_time
p32
((I2014
I5
I4
I23
I47
I38
I6
I124
I1
t(dtRp33
sS'f_low'
p34
F1268.9000000000001
sS'T_Sys_Right'
p35
g4
(g6
S'\xa2\x92.\x807So@'
tRp36
sS'f_high'
p37
F1271.9000000000001
sS'col-density'
p38
g4
(g6
S"'0\xc7\x906\xcf/D"
tRp39
s.