(dp1
S'n_obs'
p2
I87
sS'dispersion'
p3
cnumpy.core.multiarray
scalar
p4
(cnumpy
dtype
p5
(S'f8'
I0
I1
tRp6
(I3
S'<'
NNNI-1
I-1
I0
tbS'\xffj\xea\x17\x94$B@'
tRp7
sS'b'
F0
sS'n_cal'
p8
I9
sS'vel-center'
p9
g4
(g6
S'1\xc9\x1b\\[\x8dH\xc0'
tRp10
sS'rec-success'
p11
I01
sS'unixtime'
p12
F1399295019.223506
sS'G_Right'
p13
g4
(g6
S'T\xe2-\xb8E\x9d\xfd?'
tRp14
sS'l'
g4
(g6
S'\x00\x00\x00\x00\x00\x002@'
tRp15
sS'G_Left'
p16
g4
(g6
S'H\x82\xe0\x90\xf6I\xe1?'
tRp17
sS'T_Sys_Left'
p18
g4
(g6
S'\xc8pt\x0f\x05\xfcp@'
tRp19
sS'jd'
p20
F2456783.044201389
sS'lst'
p21
g4
(g6
S'\x00\xe0T\xb3:\xce3@'
tRp22
sS'vel-peaks'
p23
cnumpy.core.multiarray
_reconstruct
p24
(cnumpy
ndarray
p25
(I0
tS'b'
tRp26
(I1
(I3
tg6
I00
S'\xb2\xb8\xb2=\x14\x99J\xc05\x8f\xb8\x02\x89\xb4Q\xc0\x84\xf7\x90B\xbd<X\xc0'
tbsS'grid'
p27
(I0
I84
tp28
sS'fname'
p29
S'data_l_018.00_b_000.00_grid_000_084'
p30
sS'time'
p31
ctime
struct_time
p32
((I2014
I5
I5
I6
I3
I39
I0
I125
I1
t(dtRp33
sS'f_low'
p34
F1268.9000000000001
sS'T_Sys_Right'
p35
g4
(g6
S'\t\xfd!\x8dd\xe1p@'
tRp36
sS'f_high'
p37
F1271.9000000000001
sS'col-density'
p38
g4
(g6
S'\xba\x97\xdb|\xd5Y\x80D'
tRp39
s.