(dp1
S'n_obs'
p2
I87
sS'dispersion'
p3
cnumpy.core.multiarray
scalar
p4
(cnumpy
dtype
p5
(S'f8'
I0
I1
tRp6
(I3
S'<'
NNNI-1
I-1
I0
tbS'0/\x16>.\xa8!@'
tRp7
sS'b'
F32
sS'n_cal'
p8
I9
sS'vel-center'
p9
g4
(g6
S'\x8d\x1bV.a\xe0Q@'
tRp10
sS'rec-success'
p11
I01
sS'unixtime'
p12
F1399184459.4852791
sS'G_Right'
p13
g4
(g6
S'T\x1d\xf3\xe2\x8fN\x00@'
tRp14
sS'l'
g4
(g6
S'd\x10\xb79\x8b`n@'
tRp15
sS'G_Left'
p16
g4
(g6
S'x\x01 5\xd5e\xdf?'
tRp17
sS'T_Sys_Left'
p18
g4
(g6
S'\xe2\xa0\x13\xed\x8bip@'
tRp19
sS'jd'
p20
F2456781.7645717594
sS'lst'
p21
g4
(g6
S'\x00`l\x8eQ\x05*@'
tRp22
sS'vel-peaks'
p23
cnumpy.core.multiarray
_reconstruct
p24
(cnumpy
ndarray
p25
(I0
tS'b'
tRp26
(I1
(I1
tg6
I00
S'\xaaX\x17\xcb}\x9aR@'
tbsS'grid'
p27
(I16
I14
tp28
sS'fname'
p29
S'data_l_243.02_b_032.00_grid_016_014'
p30
sS'time'
p31
ctime
struct_time
p32
((I2014
I5
I3
I23
I20
I59
I5
I123
I1
t(dtRp33
sS'f_low'
p34
F1268.9000000000001
sS'T_Sys_Right'
p35
g4
(g6
S'\x18\x82s!Poo@'
tRp36
sS'f_high'
p37
F1271.9000000000001
sS'col-density'
p38
g4
(g6
S'q\xc1\x7f\x82\x9a\xb53D'
tRp39
s.