(dp1
S'n_obs'
p2
I87
sS'dispersion'
p3
cnumpy.core.multiarray
scalar
p4
(cnumpy
dtype
p5
(S'f8'
I0
I1
tRp6
(I3
S'<'
NNNI-1
I-1
I0
tbS'\xe0A\xf1\x0f:\xda,@'
tRp7
sS'b'
F6
sS'n_cal'
p8
I9
sS'vel-center'
p9
g4
(g6
S'%\xd0-\x16\x0c\x08M\xc0'
tRp10
sS'rec-success'
p11
I01
sS'unixtime'
p12
F1399286512.477102
sS'G_Right'
p13
g4
(g6
S'u\xe1C\xfd\xec\xf5\xff?'
tRp14
sS'l'
g4
(g6
S'\x80Y\x140\xcc\xe3#@'
tRp15
sS'G_Left'
p16
g4
(g6
S'-\x86\xd4\x17\x0b\x05\xe0?'
tRp17
sS'T_Sys_Left'
p18
g4
(g6
S'N\xe8\x03[\x02/q@'
tRp19
sS'jd'
p20
F2456782.9457407407
sS'lst'
p21
g4
(g6
S'\x00P\x10|\xa1o1@'
tRp22
sS'vel-peaks'
p23
cnumpy.core.multiarray
_reconstruct
p24
(cnumpy
ndarray
p25
(I0
tS'b'
tRp26
(I1
(I1
tg6
I00
S'\xc5\x9d\xd0\xadm\xf4N\xc0'
tbsS'grid'
p27
(I3
I5
tp28
sS'fname'
p29
S'data_l_009.94_b_006.00_grid_003_005'
p30
sS'time'
p31
ctime
struct_time
p32
((I2014
I5
I5
I3
I41
I52
I0
I125
I1
t(dtRp33
sS'f_low'
p34
F1268.9000000000001
sS'T_Sys_Right'
p35
g4
(g6
S'\xd1\xf3+(]\x05p@'
tRp36
sS'f_high'
p37
F1271.9000000000001
sS'col-density'
p38
g4
(g6
S'\xe0:\x8d\x89\xb6\xa1cD'
tRp39
s.