(dp1
S'n_obs'
p2
I87
sS'dispersion'
p3
cnumpy.core.multiarray
scalar
p4
(cnumpy
dtype
p5
(S'f8'
I0
I1
tRp6
(I3
S'<'
NNNI-1
I-1
I0
tbS'm\x1c\xb5\x81\xe2\x82!@'
tRp7
sS'b'
F22
sS'n_cal'
p8
I9
sS'vel-center'
p9
g4
(g6
S'6Z\x05\x1cn\xe0L\xc0'
tRp10
sS'rec-success'
p11
I01
sS'unixtime'
p12
F1399290257.2602711
sS'G_Right'
p13
g4
(g6
S'\x80m\x14\xe5\xcb\xc8\xfd?'
tRp14
sS'l'
g4
(g6
S'03QK\xca\xd71@'
tRp15
sS'G_Left'
p16
g4
(g6
S'\xe2x\xf7\xde\xb20\xe1?'
tRp17
sS'T_Sys_Left'
p18
g4
(g6
S'F\x9c\x07J\\\xa6n@'
tRp19
sS'jd'
p20
F2456782.9890856482
sS'lst'
p21
g4
(g6
S'\x000\xb3\xc9\xabz2@'
tRp22
sS'vel-peaks'
p23
cnumpy.core.multiarray
_reconstruct
p24
(cnumpy
ndarray
p25
(I0
tS'b'
tRp26
(I1
(I1
tg6
I00
S'\xacN\x80\xfe\x8b_M\xc0'
tbsS'grid'
p27
(I11
I1
tp28
sS'fname'
p29
S'data_l_017.84_b_022.00_grid_011_001'
p30
sS'time'
p31
ctime
struct_time
p32
((I2014
I5
I5
I4
I44
I17
I0
I125
I1
t(dtRp33
sS'f_low'
p34
F1268.9000000000001
sS'T_Sys_Right'
p35
g4
(g6
S'3\xef\xc5\xd0\x8cdp@'
tRp36
sS'f_high'
p37
F1271.9000000000001
sS'col-density'
p38
g4
(g6
S'\xd7od\xc7\x0c^KD'
tRp39
s.