(dp1
S'n_obs'
p2
I174
sS'dispersion'
p3
cnumpy.core.multiarray
scalar
p4
(cnumpy
dtype
p5
(S'f8'
I0
I1
tRp6
(I3
S'<'
NNNI-1
I-1
I0
tbS'\x19\x1d\xdd\xb7g\xa77@'
tRp7
sS'b'
F4
sS'fname'
p8
S'data_l_226.04_b_004.00_grid_002_008'
p9
sS'vel-center'
p10
g4
(g6
S'\r\xda\xd3l\x98\xe0]@'
tRp11
sS'rec-success'
p12
I01
sS'unixtime'
p13
F1398649260
sS'G_Right'
p14
g4
(g6
S'\xb2\x16w=gm\xfb?'
tRp15
sS'l'
g4
(g6
S'0\xcc\x80\x10@Al@'
tRp16
sS'G_Left'
p17
g4
(g6
S'&\xe8V\xda\xe0\xaa\xe2?'
tRp18
sS'T_Sys_Left'
p19
g4
(g6
S'W\x02\x05\xfb\xee\xadz@'
tRp20
sS'jd'
p21
F2456775.5701388889
sS'lst'
p22
g4
(g6
S'\x00\xc0Wts\xbf\x1f@'
tRp23
sS'vel-peaks'
p24
cnumpy.core.multiarray
_reconstruct
p25
(cnumpy
ndarray
p26
(I0
tS'b'
tRp27
(I1
(I3
tg6
I00
S'z\x19a\xbfAVb@\xbe\xbd\xaf+PxZ@1\xc6\xf6\xef(\xc1U@'
tbsS'grid'
p28
(I2
I8
tp29
sS'n_cal'
p30
I18
sS'time'
p31
ctime
struct_time
p32
((I2014
I4
I27
I18
I41
I0
I6
I117
I1
t(dtRp33
sS'f_low'
p34
F1268.9000000000001
sS'T_Sys_Right'
p35
g4
(g6
S'\xf9:\xaf\xf4O\xd5r@'
tRp36
sS'f_high'
p37
F1271.9000000000001
sS'col-density'
p38
g4
(g6
S'\x870\xd2\x96\x83\xc8oD'
tRp39
s.