(dp1
S'n_obs'
p2
I87
sS'dispersion'
p3
cnumpy.core.multiarray
scalar
p4
(cnumpy
dtype
p5
(S'f8'
I0
I1
tRp6
(I3
S'<'
NNNI-1
I-1
I0
tbS'\x86\x07\xd0|\x1e \x1f@'
tRp7
sS'b'
F40
sS'n_cal'
p8
I9
sS'vel-center'
p9
g4
(g6
S'}Eg\x0e\x1d\x1eK@'
tRp10
sS'rec-success'
p11
I01
sS'unixtime'
p12
F1399187716.3624361
sS'G_Right'
p13
g4
(g6
S'\x1a\xb1\x08\xc3=1\xfe?'
tRp14
sS'l'
g4
(g6
S'\x11\x04+\xb9\x01\xb7p@'
tRp15
sS'G_Left'
p16
g4
(g6
S'\xdc\x8e\xb4y;\xf5\xe0?'
tRp17
sS'T_Sys_Left'
p18
g4
(g6
S'\xe5\xe8\x89\xe8\x97\xd0p@'
tRp19
sS'jd'
p20
F2456781.8022685186
sS'lst'
p21
g4
(g6
S'\x00\xe0\x97\xfa\xcd\xd5+@'
tRp22
sS'vel-peaks'
p23
cnumpy.core.multiarray
_reconstruct
p24
(cnumpy
ndarray
p25
(I0
tS'b'
tRp26
(I1
(I1
tg6
I00
S'\x06\x02\x8cFX\xaeI@'
tbsS'grid'
p27
(I20
I22
tp28
sS'fname'
p29
S'data_l_267.44_b_040.00_grid_020_022'
p30
sS'time'
p31
ctime
struct_time
p32
((I2014
I5
I4
I0
I15
I16
I6
I124
I1
t(dtRp33
sS'f_low'
p34
F1268.9000000000001
sS'T_Sys_Right'
p35
g4
(g6
S'#\xea\x072\x98\x1fp@'
tRp36
sS'f_high'
p37
F1271.9000000000001
sS'col-density'
p38
g4
(g6
S'\x0b-`\xf9\xda"8D'
tRp39
s.