(dp1
S'n_obs'
p2
I87
sS'dispersion'
p3
cnumpy.core.multiarray
scalar
p4
(cnumpy
dtype
p5
(S'f8'
I0
I1
tRp6
(I3
S'<'
NNNI-1
I-1
I0
tbS'@\xa1\xc0/\x03\x13"@'
tRp7
sS'b'
F28
sS'n_cal'
p8
I9
sS'vel-center'
p9
g4
(g6
S'\xe8 4\xcfa\xa9T@'
tRp10
sS'rec-success'
p11
I01
sS'unixtime'
p12
F1399182974.0027649
sS'G_Right'
p13
g4
(g6
S'UL\xf1\xac\xe2\x93\xff?'
tRp14
sS'l'
g4
(g6
S'\xa2X\xf0F\xd8\x14m@'
tRp15
sS'G_Left'
p16
g4
(g6
S'VQ\xdb\xbd\xc76\xe0?'
tRp17
sS'T_Sys_Left'
p18
g4
(g6
S'.\xc0\x12\xa6\xdd\xb5n@'
tRp19
sS'jd'
p20
F2456781.7473842595
sS'lst'
p21
g4
(g6
S'\x00\xc0VS\x8a1)@'
tRp22
sS'vel-peaks'
p23
cnumpy.core.multiarray
_reconstruct
p24
(cnumpy
ndarray
p25
(I0
tS'b'
tRp26
(I1
(I0
tg6
I00
S''
tbsS'grid'
p27
(I14
I10
tp28
sS'fname'
p29
S'data_l_232.65_b_028.00_grid_014_010'
p30
sS'time'
p31
ctime
struct_time
p32
((I2014
I5
I3
I22
I56
I14
I5
I123
I1
t(dtRp33
sS'f_low'
p34
F1268.9000000000001
sS'T_Sys_Right'
p35
g4
(g6
S'\xb8\x03\xae,\xb4\xa1p@'
tRp36
sS'f_high'
p37
F1271.9000000000001
sS'col-density'
p38
g4
(g6
S'O k3\x93\x98*D'
tRp39
s.