(dp1
S'n_obs'
p2
I174
sS'dispersion'
p3
cnumpy.core.multiarray
scalar
p4
(cnumpy
dtype
p5
(S'f8'
I0
I1
tRp6
(I3
S'<'
NNNI-1
I-1
I0
tbS'4\x96\xfa\x91 ?:@'
tRp7
sS'b'
F4
sS'fname'
p8
S'data_l_236.06_b_004.00_grid_002_013'
p9
sS'vel-center'
p10
g4
(g6
S'\xae\xa3VP\x03\x86^@'
tRp11
sS'rec-success'
p12
I01
sS'unixtime'
p13
F1398656460
sS'G_Right'
p14
g4
(g6
S'\x05\x96\xd9\xd74\x0b\xf9?'
tRp15
sS'l'
g4
(g6
S'\xceK\xd1\x1a\x08\x82m@'
tRp16
sS'G_Left'
p17
g4
(g6
S'iLK;\xb7q\xe4?'
tRp18
sS'T_Sys_Left'
p19
g4
(g6
S'7-\x08D@Rv@'
tRp20
sS'jd'
p21
F2456775.6534722224
sS'lst'
p22
g4
(g6
S'\x00\x80Ht\x87\xe2#@'
tRp23
sS'vel-peaks'
p24
cnumpy.core.multiarray
_reconstruct
p25
(cnumpy
ndarray
p26
(I0
tS'b'
tRp27
(I1
(I4
tg6
I00
S'\xbe+\xcb\x7f\xa6\xdbb@\xcc\x0f\x9c\xf9\x12"`@\xad@\x13cBZZ@JQ\xdb\xfe\xf2\x97T@'
tbsS'grid'
p28
(I2
I13
tp29
sS'n_cal'
p30
I18
sS'time'
p31
ctime
struct_time
p32
((I2014
I4
I27
I20
I41
I0
I6
I117
I1
t(dtRp33
sS'f_low'
p34
F1268.9000000000001
sS'T_Sys_Right'
p35
g4
(g6
S'K\x80\xb0\\\x80\xcah@'
tRp36
sS'f_high'
p37
F1271.9000000000001
sS'col-density'
p38
g4
(g6
S'\x1aE\x01n\xe8.iD'
tRp39
s.