(dp1
S'n_obs'
p2
I87
sS'dispersion'
p3
cnumpy.core.multiarray
scalar
p4
(cnumpy
dtype
p5
(S'f8'
I0
I1
tRp6
(I3
S'<'
NNNI-1
I-1
I0
tbS'\xc0\x1c\xa7\xe6\x98\x03,@'
tRp7
sS'b'
F52
sS'n_cal'
p8
I9
sS'vel-center'
p9
g4
(g6
S'\x87\xf8\x8aW0{4\xc0'
tRp10
sS'rec-success'
p11
I01
sS'unixtime'
p12
F1399106932.6827099
sS'G_Right'
p13
g4
(g6
S'\xcc\xe0\x91f\xd5,\x02@'
tRp14
sS'l'
g4
(g6
S'\xed\x8b\xdc\x92\x04\xa7u@'
tRp15
sS'G_Left'
p16
g4
(g6
S'\x07\xc5\xc9\xbf\x9c+\xdc?'
tRp17
sS'T_Sys_Left'
p18
g4
(g6
S'<\x97Lp<\xeen@'
tRp19
sS'jd'
p20
F2456780.8672685185
sS'lst'
p21
g4
(g6
S'\x00\x80Ah\x11\xd5.@'
tRp22
sS'vel-peaks'
p23
cnumpy.core.multiarray
_reconstruct
p24
(cnumpy
ndarray
p25
(I0
tS'b'
tRp26
(I1
(I1
tg6
I00
S']\xee\x12{\xc9\x0f/\xc0'
tbsS'grid'
p27
(I26
I42
tp28
sS'fname'
p29
S'data_l_346.44_b_052.00_grid_026_042'
p30
sS'time'
p31
ctime
struct_time
p32
((I2014
I5
I3
I1
I48
I52
I5
I123
I1
t(dtRp33
sS'f_low'
p34
F1268.9000000000001
sS'T_Sys_Right'
p35
g4
(g6
S'Y\xa3fd\xae\xbep@'
tRp36
sS'f_high'
p37
F1271.9000000000001
sS'col-density'
p38
g4
(g6
S'\x18B\x8e\xfb\x0c\xcf:D'
tRp39
s.