(dp1
S'n_obs'
p2
I87
sS'dispersion'
p3
cnumpy.core.multiarray
scalar
p4
(cnumpy
dtype
p5
(S'f8'
I0
I1
tRp6
(I3
S'<'
NNNI-1
I-1
I0
tbS'\xbc\x1e\x00`dR,@'
tRp7
sS'b'
F64
sS'n_cal'
p8
I9
sS'vel-center'
p9
g4
(g6
S's\xe1\xc0\x94\x06V4\xc0'
tRp10
sS'rec-success'
p11
I01
sS'unixtime'
p12
F1399114227.2740409
sS'G_Right'
p13
g4
(g6
S'\xb8@\x94\x9f\xbbD\xfd?'
tRp14
sS'l'
g4
(g6
S'\x80\xae\xd4+\x92z\x14@'
tRp15
sS'G_Left'
p16
g4
(g6
S'o\xd8MrC~\xe1?'
tRp17
sS'T_Sys_Left'
p18
g4
(g6
S'\xcel:\xe5+\x7fo@'
tRp19
sS'jd'
p20
F2456780.9517013887
sS'lst'
p21
g4
(g6
S'\x00\x10H\xb9\xb5r1@'
tRp22
sS'vel-peaks'
p23
cnumpy.core.multiarray
_reconstruct
p24
(cnumpy
ndarray
p25
(I0
tS'b'
tRp26
(I1
(I1
tg6
I00
S'&C\xae()\x89-\xc0'
tbsS'grid'
p27
(I32
I34
tp28
sS'fname'
p29
S'data_l_005.12_b_064.00_grid_032_034'
p30
sS'time'
p31
ctime
struct_time
p32
((I2014
I5
I3
I3
I50
I27
I5
I123
I1
t(dtRp33
sS'f_low'
p34
F1268.9000000000001
sS'T_Sys_Right'
p35
g4
(g6
S'I\x13\x0e\xadQ\xabo@'
tRp36
sS'f_high'
p37
F1271.9000000000001
sS'col-density'
p38
g4
(g6
S'\x7f\xda\xd6wr\xfe/D'
tRp39
s.