(dp1
S'n_obs'
p2
I87
sS'dispersion'
p3
cnumpy.core.multiarray
scalar
p4
(cnumpy
dtype
p5
(S'f8'
I0
I1
tRp6
(I3
S'<'
NNNI-1
I-1
I0
tbS'F\x8du}\xe5\xbf&@'
tRp7
sS'b'
F52
sS'n_cal'
p8
I9
sS'vel-center'
p9
g4
(g6
S'/b\x1ao<t@\xc0'
tRp10
sS'rec-success'
p11
I01
sS'unixtime'
p12
F1399107644.3168881
sS'G_Right'
p13
g4
(g6
S'\xe9h*\xed\x0c\xb2\x01@'
tRp14
sS'l'
g4
(g6
S'\xc0\xd5\xde\xf5)\xb8\x17@'
tRp15
sS'G_Left'
p16
g4
(g6
S'5\xa3a\xaa\x13\xef\xdc?'
tRp17
sS'T_Sys_Left'
p18
g4
(g6
S'1Mv\x00\x99\xf1q@'
tRp19
sS'jd'
p20
F2456780.8755092593
sS'lst'
p21
g4
(g6
S'\x00\xa0\xe6\x82\x9b:/@'
tRp22
sS'vel-peaks'
p23
cnumpy.core.multiarray
_reconstruct
p24
(cnumpy
ndarray
p25
(I0
tS'b'
tRp26
(I1
(I1
tg6
I00
S'\x80\xa6;\x92V\\<\xc0'
tbsS'grid'
p27
(I26
I48
tp28
sS'fname'
p29
S'data_l_005.93_b_052.00_grid_026_048'
p30
sS'time'
p31
ctime
struct_time
p32
((I2014
I5
I3
I2
I0
I44
I5
I123
I1
t(dtRp33
sS'f_low'
p34
F1268.9000000000001
sS'T_Sys_Right'
p35
g4
(g6
S'\xa4\xc4\x81\xaf:Fq@'
tRp36
sS'f_high'
p37
F1271.9000000000001
sS'col-density'
p38
g4
(g6
S'\x88\xbd\x107Q\x966D'
tRp39
s.