(dp1
S'n_obs'
p2
I87
sS'dispersion'
p3
cnumpy.core.multiarray
scalar
p4
(cnumpy
dtype
p5
(S'f8'
I0
I1
tRp6
(I3
S'<'
NNNI-1
I-1
I0
tbS'n\x96\x0e\x12\x1c%+@'
tRp7
sS'b'
F10
sS'n_cal'
p8
I9
sS'vel-center'
p9
g4
(g6
S'S\xa3JWY\x95N\xc0'
tRp10
sS'rec-success'
p11
I01
sS'unixtime'
p12
F1399287239.4722271
sS'G_Right'
p13
g4
(g6
S',\x18\x08\xe3\x86\xd9\x00@'
tRp14
sS'l'
g4
(g6
S'@\x8d\xcd\x04\x9c\xd0+@'
tRp15
sS'G_Left'
p16
g4
(g6
S'e\x87\x1b\xb2\xe2b\xde?'
tRp17
sS'T_Sys_Left'
p18
g4
(g6
S'H\xa2\x19$\xc6{n@'
tRp19
sS'jd'
p20
F2456782.9541550926
sS'lst'
p21
g4
(g6
S'\x00\xb0\xd7Yx\xa31@'
tRp22
sS'vel-peaks'
p23
cnumpy.core.multiarray
_reconstruct
p24
(cnumpy
ndarray
p25
(I0
tS'b'
tRp26
(I1
(I1
tg6
I00
S'RANM%\xe9O\xc0'
tbsS'grid'
p27
(I5
I3
tp28
sS'fname'
p29
S'data_l_013.91_b_010.00_grid_005_003'
p30
sS'time'
p31
ctime
struct_time
p32
((I2014
I5
I5
I3
I53
I59
I0
I125
I1
t(dtRp33
sS'f_low'
p34
F1268.9000000000001
sS'T_Sys_Right'
p35
g4
(g6
S'\x00\x01\x8c.\x04Up@'
tRp36
sS'f_high'
p37
F1271.9000000000001
sS'col-density'
p38
g4
(g6
S'\xe8:Ds\x17\xbb\\D'
tRp39
s.