(dp1
S'n_obs'
p2
I87
sS'dispersion'
p3
cnumpy.core.multiarray
scalar
p4
(cnumpy
dtype
p5
(S'f8'
I0
I1
tRp6
(I3
S'<'
NNNI-1
I-1
I0
tbS'\xee\xbc\xda\x81\xe2G!@'
tRp7
sS'b'
F32
sS'n_cal'
p8
I9
sS'vel-center'
p9
g4
(g6
S'\x189\xf9\xdakST@'
tRp10
sS'rec-success'
p11
I01
sS'unixtime'
p12
F1399183765.3280759
sS'G_Right'
p13
g4
(g6
S'\xe6\x82\x9f\xf6\x95J\xfe?'
tRp14
sS'l'
g4
(g6
S'\xf0-\x8dE\xbd\x9bl@'
tRp15
sS'G_Left'
p16
g4
(g6
S'\xcc\xc1<3\x0b\xe7\xe0?'
tRp17
sS'T_Sys_Left'
p18
g4
(g6
S'g\x85\x9e\xb1\x1a\xb7r@'
tRp19
sS'jd'
p20
F2456781.7565393518
sS'lst'
p21
g4
(g6
S'\x00\x80\x1f\x9bX\xa2)@'
tRp22
sS'vel-peaks'
p23
cnumpy.core.multiarray
_reconstruct
p24
(cnumpy
ndarray
p25
(I0
tS'b'
tRp26
(I1
(I1
tg6
I00
S'\xbaJ\x9f\xce\xd3\xd5U@'
tbsS'grid'
p27
(I16
I8
tp28
sS'fname'
p29
S'data_l_228.87_b_032.00_grid_016_008'
p30
sS'time'
p31
ctime
struct_time
p32
((I2014
I5
I3
I23
I9
I25
I5
I123
I1
t(dtRp33
sS'f_low'
p34
F1268.9000000000001
sS'T_Sys_Right'
p35
g4
(g6
S'\xea\xbc%\x85\xf9\xa1p@'
tRp36
sS'f_high'
p37
F1271.9000000000001
sS'col-density'
p38
g4
(g6
S'/\x87\x19\x11\x8d\xd71D'
tRp39
s.