(dp1
S'n_obs'
p2
I87
sS'dispersion'
p3
cnumpy.core.multiarray
scalar
p4
(cnumpy
dtype
p5
(S'f8'
I0
I1
tRp6
(I3
S'<'
NNNI-1
I-1
I0
tbS'#\x8f\x89[\x95\xc7&@'
tRp7
sS'b'
F24
sS'n_cal'
p8
I9
sS'vel-center'
p9
g4
(g6
S'\x94\xecq\xe0K\x05T@'
tRp10
sS'rec-success'
p11
I01
sS'unixtime'
p12
F1398838572
sS'G_Right'
p13
g4
(g6
S'@\xe3\xad\x8di\x89\xfc?'
tRp14
sS'l'
g4
(g6
S'\x88\x98\xdb?\xae\x88m@'
tRp15
sS'G_Left'
p16
g4
(g6
S'\xf9\x85g\x97\x17\xf1\xe1?'
tRp17
sS'T_Sys_Left'
p18
g4
(g6
S'\xe2(g\xbb#Gz@'
tRp19
sS'jd'
p20
F2456777.76125
sS'lst'
p21
g4
(g6
S'\x00 \x0e\xb9\xd0U)@'
tRp22
sS'vel-peaks'
p23
cnumpy.core.multiarray
_reconstruct
p24
(cnumpy
ndarray
p25
(I0
tS'b'
tRp26
(I1
(I1
tg6
I00
S'\xf5\xe9OCM}T@'
tbsS'grid'
p27
(I12
I12
tp28
sS'fname'
p29
S'data_l_236.27_b_024.00_grid_012_012'
p30
sS'time'
p31
ctime
struct_time
p32
((I2014
I4
I29
I23
I16
I12
I1
I119
I1
t(dtRp33
sS'f_low'
p34
F1268.9000000000001
sS'T_Sys_Right'
p35
g4
(g6
S'\xa9\xa0\x8cC;\x1ds@'
tRp36
sS'f_high'
p37
F1271.9000000000001
sS'col-density'
p38
g4
(g6
S'o<\xca^\x91\xf07D'
tRp39
s.