(dp1
S'n_obs'
p2
I87
sS'dispersion'
p3
cnumpy.core.multiarray
scalar
p4
(cnumpy
dtype
p5
(S'f8'
I0
I1
tRp6
(I3
S'<'
NNNI-1
I-1
I0
tbS'\x9b\xc0O*\x04\xe7$@'
tRp7
sS'b'
F40
sS'n_cal'
p8
I9
sS'vel-center'
p9
g4
(g6
S'6C\xebw\xe1\xf9,\xc0'
tRp10
sS'rec-success'
p11
I01
sS'unixtime'
p12
F1398850757
sS'G_Right'
p13
g4
(g6
S'\xbf\xae\x0f8\xad+\xf7?'
tRp14
sS'l'
g4
(g6
S'1\xf1Y=\x8f\xa1t@'
tRp15
sS'G_Left'
p16
g4
(g6
S'\xa2\xfbh"\xd2\x18\xe6?'
tRp17
sS'T_Sys_Left'
p18
g4
(g6
S't0\x9agj\xe1e@'
tRp19
sS'jd'
p20
F2456777.9022800927
sS'lst'
p21
g4
(g6
S'\x00\x10\xea\xd7\xc4\x0f0@'
tRp22
sS'vel-peaks'
p23
cnumpy.core.multiarray
_reconstruct
p24
(cnumpy
ndarray
p25
(I0
tS'b'
tRp26
(I1
(I1
tg6
I00
S'\xfa\xac\xbdF\xb4\xa8/\xc0'
tbsS'grid'
p27
(I20
I46
tp28
sS'fname'
p29
S'data_l_330.10_b_040.00_grid_020_046'
p30
sS'time'
p31
ctime
struct_time
p32
((I2014
I4
I30
I2
I39
I17
I2
I120
I1
t(dtRp33
sS'f_low'
p34
F1268.9000000000001
sS'T_Sys_Right'
p35
g4
(g6
S'-\x11\xfeo\x07\x83i@'
tRp36
sS'f_high'
p37
F1271.9000000000001
sS'col-density'
p38
g4
(g6
S'\xa5\xf9\xb1\xb9;J=D'
tRp39
s.