(dp1
S'n_obs'
p2
I87
sS'dispersion'
p3
cnumpy.core.multiarray
scalar
p4
(cnumpy
dtype
p5
(S'f8'
I0
I1
tRp6
(I3
S'<'
NNNI-1
I-1
I0
tbS'\xabc\xb7K\x0bJ.@'
tRp7
sS'b'
F60
sS'n_cal'
p8
I9
sS'vel-center'
p9
g4
(g6
S'|-KD\xb3z:@'
tRp10
sS'rec-success'
p11
I01
sS'unixtime'
p12
F1399274838.331882
sS'G_Right'
p13
g4
(g6
S'"\xba\x85V\xb5\x12\x00@'
tRp14
sS'l'
g4
(g6
S'\x00\x00\x00\x00\x00 q@'
tRp15
sS'G_Left'
p16
g4
(g6
S'\xab\xef\x1b\xe0\xc0\xda\xdf?'
tRp17
sS'T_Sys_Left'
p18
g4
(g6
S"'em\x98G\xb9n@"
tRp19
sS'jd'
p20
F2456782.8106249999
sS'lst'
p21
g4
(g6
S'\x00\xc0\xe5\xe2i^,@'
tRp22
sS'vel-peaks'
p23
cnumpy.core.multiarray
_reconstruct
p24
(cnumpy
ndarray
p25
(I0
tS'b'
tRp26
(I1
(I1
tg6
I00
S'r\xc2\x8f\xb4;&A@'
tbsS'grid'
p27
(I30
I16
tp28
sS'fname'
p29
S'data_l_274.00_b_060.00_grid_030_016'
p30
sS'time'
p31
ctime
struct_time
p32
((I2014
I5
I5
I0
I27
I18
I0
I125
I1
t(dtRp33
sS'f_low'
p34
F1268.9000000000001
sS'T_Sys_Right'
p35
g4
(g6
S'&U\x04\xf5\x84\x03p@'
tRp36
sS'f_high'
p37
F1271.9000000000001
sS'col-density'
p38
g4
(g6
S'\x9b\x96\xff]\xb0\x9b)D'
tRp39
s.