(dp1
S'n_obs'
p2
I87
sS'dispersion'
p3
cnumpy.core.multiarray
scalar
p4
(cnumpy
dtype
p5
(S'f8'
I0
I1
tRp6
(I3
S'<'
NNNI-1
I-1
I0
tbS'kV\xe3S\xa6\x19&@'
tRp7
sS'b'
F20
sS'n_cal'
p8
I9
sS'vel-center'
p9
g4
(g6
S'\x9d[%\xd4\xd6aW@'
tRp10
sS'rec-success'
p11
I01
sS'unixtime'
p12
F1399264478.4047279
sS'G_Right'
p13
g4
(g6
S'\xb5\x84\xe0\x04Se\xff?'
tRp14
sS'l'
g4
(g6
S'\x0c\xdf\x86\xee\xa4\xd8k@'
tRp15
sS'G_Left'
p16
g4
(g6
S'~\x99\x8a\x81\xd3N\xe0?'
tRp17
sS'T_Sys_Left'
p18
g4
(g6
S'{\x0ba\xeej;m@'
tRp19
sS'jd'
p20
F2456782.6907175924
sS'lst'
p21
g4
(g6
S'\x00`y\x11\xf5\x98&@'
tRp22
sS'vel-peaks'
p23
cnumpy.core.multiarray
_reconstruct
p24
(cnumpy
ndarray
p25
(I0
tS'b'
tRp26
(I1
(I2
tg6
I00
S'\xea\x8ccq\x14\xffX@E\xdb\xb6e\x8e@V@'
tbsS'grid'
p27
(I10
I6
tp28
sS'fname'
p29
S'data_l_222.77_b_020.00_grid_010_006'
p30
sS'time'
p31
ctime
struct_time
p32
((I2014
I5
I4
I21
I34
I38
I6
I124
I1
t(dtRp33
sS'f_low'
p34
F1268.9000000000001
sS'T_Sys_Right'
p35
g4
(g6
S'Z\xaf4\xccV\xebm@'
tRp36
sS'f_high'
p37
F1271.9000000000001
sS'col-density'
p38
g4
(g6
S'\xdb\x88\xa9F\\o4D'
tRp39
s.