(dp1
S'n_obs'
p2
I87
sS'dispersion'
p3
cnumpy.core.multiarray
scalar
p4
(cnumpy
dtype
p5
(S'f8'
I0
I1
tRp6
(I3
S'<'
NNNI-1
I-1
I0
tbS'\xd9o\xf4\x15r\xfa+@'
tRp7
sS'b'
F80
sS'n_cal'
p8
I9
sS'vel-center'
p9
g4
(g6
S'\xe9\xd5F\xb6f\xcd\x1e\xc0'
tRp10
sS'rec-success'
p11
I01
sS'unixtime'
p12
F1399200664.8761671
sS'G_Right'
p13
g4
(g6
S'H\xae\x86G72\xfc?'
tRp14
sS'l'
g4
(g6
S'@;?\xd0\xbb}&@'
tRp15
sS'G_Left'
p16
g4
(g6
S'\xca\x19\x08\xb1\x93(\xe2?'
tRp17
sS'T_Sys_Left'
p18
g4
(g6
S'DKs\xb9\x8e\xd9p@'
tRp19
sS'jd'
p20
F2456781.9521296294
sS'lst'
p21
g4
(g6
S'\x00\xa0\xce}+\x861@'
tRp22
sS'vel-peaks'
p23
cnumpy.core.multiarray
_reconstruct
p24
(cnumpy
ndarray
p25
(I0
tS'b'
tRp26
(I1
(I0
tg6
I00
S''
tbsS'grid'
p27
(I40
I14
tp28
sS'fname'
p29
S'data_l_011.25_b_080.00_grid_040_014'
p30
sS'time'
p31
ctime
struct_time
p32
((I2014
I5
I4
I3
I51
I4
I6
I124
I1
t(dtRp33
sS'f_low'
p34
F1268.9000000000001
sS'T_Sys_Right'
p35
g4
(g6
S'9\xb5\xf7D\x97\xd2n@'
tRp36
sS'f_high'
p37
F1271.9000000000001
sS'col-density'
p38
g4
(g6
S'\xd5\x8d\xc9\xf4\xcd\xdf"D'
tRp39
s.