(dp1
S'n_obs'
p2
I87
sS'dispersion'
p3
cnumpy.core.multiarray
scalar
p4
(cnumpy
dtype
p5
(S'f8'
I0
I1
tRp6
(I3
S'<'
NNNI-1
I-1
I0
tbS"c\x9a~\xde\xb9\x82'@"
tRp7
sS'b'
F36
sS'n_cal'
p8
I9
sS'vel-center'
p9
g4
(g6
S'i&\x0bo:\xe5M@'
tRp10
sS'rec-success'
p11
I01
sS'unixtime'
p12
F1399092429.48105
sS'G_Right'
p13
g4
(g6
S'd\xa3\xc3\x8b\xdb\xea\x00@'
tRp14
sS'l'
g4
(g6
S'\x19<|\x1d1\x86p@'
tRp15
sS'G_Left'
p16
g4
(g6
S'\xd6\x85A\xc6\xc1C\xde?'
tRp17
sS'T_Sys_Left'
p18
g4
(g6
S'1\xe8\xd3\x8f\x0b\xd3p@'
tRp19
sS'jd'
p20
F2456780.6994097224
sS'lst'
p21
g4
(g6
S'\x00\xe0N\x92\xc5\xc0&@'
tRp22
sS'vel-peaks'
p23
cnumpy.core.multiarray
_reconstruct
p24
(cnumpy
ndarray
p25
(I0
tS'b'
tRp26
(I1
(I1
tg6
I00
S'b\xdb\xcd\x04\x1b\tL@'
tbsS'grid'
p27
(I18
I22
tp28
sS'fname'
p29
S'data_l_264.39_b_036.00_grid_018_022'
p30
sS'time'
p31
ctime
struct_time
p32
((I2014
I5
I2
I21
I47
I9
I4
I122
I1
t(dtRp33
sS'f_low'
p34
F1268.9000000000001
sS'T_Sys_Right'
p35
g4
(g6
S'\xd7\x9b\x0b*\x18\xbbq@'
tRp36
sS'f_high'
p37
F1271.9000000000001
sS'col-density'
p38
g4
(g6
S'\xf8\xbf\x0c\x02\xf3\t<D'
tRp39
s.