(dp1
S'n_obs'
p2
I87
sS'dispersion'
p3
cnumpy.core.multiarray
scalar
p4
(cnumpy
dtype
p5
(S'f8'
I0
I1
tRp6
(I3
S'<'
NNNI-1
I-1
I0
tbS'\xe5\x14$\x11\xc8\xcc7@'
tRp7
sS'b'
F8
sS'n_cal'
p8
I9
sS'vel-center'
p9
g4
(g6
S'xU\x92\x9f\xb3n\\@'
tRp10
sS'rec-success'
p11
I01
sS'unixtime'
p12
F1399177108.968518
sS'G_Right'
p13
g4
(g6
S'\xec&\xf3\xc9\x99\x85\xfe?'
tRp14
sS'l'
g4
(g6
S'\x8c\xd9\xf5\x16\xc6\xc3k@'
tRp15
sS'G_Left'
p16
g4
(g6
S'\x92I\n\xbc\\\xc6\xe0?'
tRp17
sS'T_Sys_Left'
p18
g4
(g6
S'YM\xae\xae\x04\x81o@'
tRp19
sS'jd'
p20
F2456781.6794907404
sS'lst'
p21
g4
(g6
S'\x00\xc0\xaa\x08\xfb\xec%@'
tRp22
sS'vel-peaks'
p23
cnumpy.core.multiarray
_reconstruct
p24
(cnumpy
ndarray
p25
(I0
tS'b'
tRp26
(I1
(I3
tg6
I00
S'\xc1\xeb*\xa7\x94\x1cb@\\G[\xc4|\xd3Y@\xc7\x11QC\x8b\xc4U@'
tbsS'grid'
p27
(I4
I6
tp28
sS'fname'
p29
S'data_l_222.12_b_008.00_grid_004_006'
p30
sS'time'
p31
ctime
struct_time
p32
((I2014
I5
I3
I21
I18
I28
I5
I123
I1
t(dtRp33
sS'f_low'
p34
F1268.9000000000001
sS'T_Sys_Right'
p35
g4
(g6
S':\x1c\xe2\x9d\xdb\x98p@'
tRp36
sS'f_high'
p37
F1271.9000000000001
sS'col-density'
p38
g4
(g6
S'8\x08\t\xbdd\xddWD'
tRp39
s.