(dp1
S'n_obs'
p2
I174
sS'dispersion'
p3
cnumpy.core.multiarray
scalar
p4
(cnumpy
dtype
p5
(S'f8'
I0
I1
tRp6
(I3
S'<'
NNNI-1
I-1
I0
tbS'\xe6\x17\r\xb8\xe2=4@'
tRp7
sS'b'
F0
sS'fname'
p8
S'data_l_220.00_b_000.00_grid_000_005'
p9
sS'vel-center'
p10
g4
(g6
S'M\xf4R\\\xd7A^@'
tRp11
sS'rec-success'
p12
I01
sS'unixtime'
p13
F1398565140
sS'G_Right'
p14
g4
(g6
S'4\xe5\xe1! \x1a\xfd?'
tRp15
sS'l'
g4
(g6
S'\x00\x00\x00\x00\x00\x80k@'
tRp16
sS'G_Left'
p17
g4
(g6
S'd{\xda\xed\xdf\x97\xe1?'
tRp18
sS'T_Sys_Left'
p19
g4
(g6
S'L\xc5\xb7\x9e\xa0\xfar@'
tRp20
sS'jd'
p21
F2456774.5965277776
sS'lst'
p22
g4
(g6
S'\x00@&\x8e<\x03!@'
tRp23
sS'vel-peaks'
p24
cnumpy.core.multiarray
_reconstruct
p25
(cnumpy
ndarray
p26
(I0
tS'b'
tRp27
(I1
(I3
tg6
I00
S'\x90\x15\x93:nla@)\xa5:a<x\\@\xea\x1e\x89`\x9b\xc3Y@'
tbsS'grid'
p28
(I0
I5
tp29
sS'n_cal'
p30
I18
sS'time'
p31
ctime
struct_time
p32
((I2014
I4
I26
I19
I19
I0
I5
I116
I1
t(dtRp33
sS'f_low'
p34
F1268.9000000000001
sS'T_Sys_Right'
p35
g4
(g6
S'\xbd\x02\xa89\x01#p@'
tRp36
sS'f_high'
p37
F1271.9000000000001
sS'col-density'
p38
g4
(g6
S'=\xdf\x1d\xcbd\xf2uD'
tRp39
s.