(dp1
S'n_obs'
p2
I87
sS'dispersion'
p3
cnumpy.core.multiarray
scalar
p4
(cnumpy
dtype
p5
(S'f8'
I0
I1
tRp6
(I3
S'<'
NNNI-1
I-1
I0
tbS'1\x95\xbb-\x97\x910@'
tRp7
sS'b'
F56
sS'n_cal'
p8
I9
sS'vel-center'
p9
g4
(g6
S's)\x0e\xaet\x15,\xc0'
tRp10
sS'rec-success'
p11
I01
sS'unixtime'
p12
F1399110033.6713481
sS'G_Right'
p13
g4
(g6
S'C\x8f\xdf1\x9f\xba\x01@'
tRp14
sS'l'
g4
(g6
S'D\x84\xc5\xaa\x1c,u@'
tRp15
sS'G_Left'
p16
g4
(g6
S'\xb5N\xea\x98\x16\xe1\xdc?'
tRp17
sS'T_Sys_Left'
p18
g4
(g6
S'\x02\x91\xcc>\xce\x04p@'
tRp19
sS'jd'
p20
F2456780.9031597222
sS'lst'
p21
g4
(g6
S'\x00\xe0\x07?\xa7G0@'
tRp22
sS'vel-peaks'
p23
cnumpy.core.multiarray
_reconstruct
p24
(cnumpy
ndarray
p25
(I0
tS'b'
tRp26
(I1
(I1
tg6
I00
S'\xb3\t`\xc2\xef\xbd\x1a\xc0'
tbsS'grid'
p27
(I28
I36
tp28
sS'fname'
p29
S'data_l_338.76_b_056.00_grid_028_036'
p30
sS'time'
p31
ctime
struct_time
p32
((I2014
I5
I3
I2
I40
I33
I5
I123
I1
t(dtRp33
sS'f_low'
p34
F1268.9000000000001
sS'T_Sys_Right'
p35
g4
(g6
S'\xf7\xe4&PC\x11q@'
tRp36
sS'f_high'
p37
F1271.9000000000001
sS'col-density'
p38
g4
(g6
S'\xedzw\x96UJ:D'
tRp39
s.