(dp1
S'n_obs'
p2
I87
sS'dispersion'
p3
cnumpy.core.multiarray
scalar
p4
(cnumpy
dtype
p5
(S'f8'
I0
I1
tRp6
(I3
S'<'
NNNI-1
I-1
I0
tbS'9*\xfd\x10\x97;\x18@'
tRp7
sS'b'
F36
sS'n_cal'
p8
I9
sS'vel-center'
p9
g4
(g6
S'\x85\xe3\xd2+\xee\x89S@'
tRp10
sS'rec-success'
p11
I01
sS'unixtime'
p12
F1399268640.5302379
sS'G_Right'
p13
g4
(g6
S'\xb0`\x12|\x99\x1a\xfb?'
tRp14
sS'l'
g4
(g6
S'(\xfd\xe5\xe6\xdd\xb8l@'
tRp15
sS'G_Left'
p16
g4
(g6
S'h\xf3\\\x8e\xe8\xe3\xe2?'
tRp17
sS'T_Sys_Left'
p18
g4
(g6
S'\xa6;l\x11x\xd6n@'
tRp19
sS'jd'
p20
F2456782.7388888891
sS'lst'
p21
g4
(g6
S'\x00@=\xc0\x81\xea(@'
tRp22
sS'vel-peaks'
p23
cnumpy.core.multiarray
_reconstruct
p24
(cnumpy
ndarray
p25
(I0
tS'b'
tRp26
(I1
(I1
tg6
I00
S'\xfa\xebr\xe4Y\xa2S@'
tbsS'grid'
p27
(I18
I8
tp28
sS'fname'
p29
S'data_l_229.78_b_036.00_grid_018_008'
p30
sS'time'
p31
ctime
struct_time
p32
((I2014
I5
I4
I22
I44
I0
I6
I124
I1
t(dtRp33
sS'f_low'
p34
F1268.9000000000001
sS'T_Sys_Right'
p35
g4
(g6
S'T\xd9\x1c\x8b\x925p@'
tRp36
sS'f_high'
p37
F1271.9000000000001
sS'col-density'
p38
g4
(g6
S'C\x91\xaf\xccI\x010D'
tRp39
s.