(dp1
S'n_obs'
p2
I87
sS'dispersion'
p3
cnumpy.core.multiarray
scalar
p4
(cnumpy
dtype
p5
(S'f8'
I0
I1
tRp6
(I3
S'<'
NNNI-1
I-1
I0
tbS'\x02h\xee@\x14j"@'
tRp7
sS'b'
F28
sS'n_cal'
p8
I9
sS'vel-center'
p9
g4
(g6
S'\x8c\x91\xf6B_(F\xc0'
tRp10
sS'rec-success'
p11
I01
sS'unixtime'
p12
F1398840810
sS'G_Right'
p13
g4
(g6
S'27\xac\xfb,\x1d\x08@'
tRp14
sS'l'
g4
(g6
S'\x8a\x1b\x01\xe3\x80/v@'
tRp15
sS'G_Left'
p16
g4
(g6
S'\xd4\x9bp\x9d\x85;\xd5?'
tRp17
sS'T_Sys_Left'
p18
g4
(g6
S'\xb9\xec\xb0\xd4\x0f\xacI@'
tRp19
sS'jd'
p20
F2456777.7871527779
sS'lst'
p21
g4
(g6
S'\x00@\xf2\xe8\xfa\x94*@'
tRp22
sS'vel-peaks'
p23
cnumpy.core.multiarray
_reconstruct
p24
(cnumpy
ndarray
p25
(I0
tS'b'
tRp26
(I1
(I1
tg6
I00
S'\xac\xa3\xd9\xf6k\x8aE\xc0'
tbsS'grid'
p27
(I14
I64
tp28
sS'fname'
p29
S'data_l_354.97_b_028.00_grid_014_064'
p30
sS'time'
p31
ctime
struct_time
p32
((I2014
I4
I29
I23
I53
I30
I1
I119
I1
t(dtRp33
sS'f_low'
p34
F1268.9000000000001
sS'T_Sys_Right'
p35
g4
(g6
S'(\xac(J1\xf9\xd4@'
tRp36
sS'f_high'
p37
F1271.9000000000001
sS'col-density'
p38
g4
(g6
S'\x02xY\xed\xeaJ\xa2D'
tRp39
s.