(dp1
S'n_obs'
p2
I174
sS'dispersion'
p3
cnumpy.core.multiarray
scalar
p4
(cnumpy
dtype
p5
(S'f8'
I0
I1
tRp6
(I3
S'<'
NNNI-1
I-1
I0
tbS'\x13P\xe27\xba\xcf9@'
tRp7
sS'b'
F6
sS'fname'
p8
S'data_l_233.20_b_006.00_grid_003_073'
p9
sS'vel-center'
p10
g4
(g6
S"3'Y\xf1?9]@"
tRp11
sS'rec-success'
p12
I01
sS'unixtime'
p13
F1398658080
sS'G_Right'
p14
g4
(g6
S'T.\xa5\xf9\xaf\xb3\xf9?'
tRp15
sS'l'
g4
(g6
S'x^\xdf\xebC&m@'
tRp16
sS'G_Left'
p17
g4
(g6
S'I\x95\xb34\xb3\xeb\xe3?'
tRp18
sS'T_Sys_Left'
p19
g4
(g6
S'\xbc\x8e\x07\x95p8v@'
tRp20
sS'jd'
p21
F2456775.6722222222
sS'lst'
p22
g4
(g6
S'\x00`\x94W\x8f\xc9$@'
tRp23
sS'vel-peaks'
p24
cnumpy.core.multiarray
_reconstruct
p25
(cnumpy
ndarray
p26
(I0
tS'b'
tRp27
(I1
(I3
tg6
I00
S"Bv\xd8}\x80\xa5c@9\xc0\x9bbb\n[@\x14'r\xddc*U@"
tbsS'grid'
p28
(I3
I73
tp29
sS'n_cal'
p30
I18
sS'time'
p31
ctime
struct_time
p32
((I2014
I4
I27
I21
I8
I0
I6
I117
I1
t(dtRp33
sS'f_low'
p34
F1268.9000000000001
sS'T_Sys_Right'
p35
g4
(g6
S'N\xf8$\xc0_\x00p@'
tRp36
sS'f_high'
p37
F1271.9000000000001
sS'col-density'
p38
g4
(g6
S'|\xe6\x89\xf3\xa2\x9ebD'
tRp39
s.