(dp1
S'n_obs'
p2
I87
sS'dispersion'
p3
cnumpy.core.multiarray
scalar
p4
(cnumpy
dtype
p5
(S'f8'
I0
I1
tRp6
(I3
S'<'
NNNI-1
I-1
I0
tbS'#\x97fO0@$@'
tRp7
sS'b'
F30
sS'n_cal'
p8
I9
sS'vel-center'
p9
g4
(g6
S'\xe2\x00Ci^`D\xc0'
tRp10
sS'rec-success'
p11
I01
sS'unixtime'
p12
F1399293532.3091371
sS'G_Right'
p13
g4
(g6
S'q\xad\x8a\xa9Im\xf9?'
tRp14
sS'l'
g4
(g6
S'j\xdc\x1b=rsv@'
tRp15
sS'G_Left'
p16
g4
(g6
S'\xc1\x1cj\xc8\xda"\xe4?'
tRp17
sS'T_Sys_Left'
p18
g4
(g6
S'3\xaf\xa0E\xb0\xe8n@'
tRp19
sS'jd'
p20
F2456783.0269907406
sS'lst'
p21
g4
(g6
S'\x00\x00u\x932d3@'
tRp22
sS'vel-peaks'
p23
cnumpy.core.multiarray
_reconstruct
p24
(cnumpy
ndarray
p25
(I0
tS'b'
tRp26
(I1
(I1
tg6
I00
S'\xbc\x1f\xfd\xa9\xc0\xbbC\xc0'
tbsS'grid'
p27
(I15
I9
tp28
sS'fname'
p29
S'data_l_359.22_b_030.00_grid_015_009'
p30
sS'time'
p31
ctime
struct_time
p32
((I2014
I5
I5
I5
I38
I52
I0
I125
I1
t(dtRp33
sS'f_low'
p34
F1268.9000000000001
sS'T_Sys_Right'
p35
g4
(g6
S'2(G\x93\x0b\x9dn@'
tRp36
sS'f_high'
p37
F1271.9000000000001
sS'col-density'
p38
g4
(g6
S'Jq\xa0\x81RZQD'
tRp39
s.