(dp1
S'n_obs'
p2
I87
sS'dispersion'
p3
cnumpy.core.multiarray
scalar
p4
(cnumpy
dtype
p5
(S'f8'
I0
I1
tRp6
(I3
S'<'
NNNI-1
I-1
I0
tbS'\xc2\xef\xa1F\xf6E2@'
tRp7
sS'b'
F12
sS'n_cal'
p8
I9
sS'vel-center'
p9
g4
(g6
S'<\xc5\xe2#H\x16X@'
tRp10
sS'rec-success'
p11
I01
sS'unixtime'
p12
F1399263476.665235
sS'G_Right'
p13
g4
(g6
S';\x9e\xeb\xe20\xcf\xfc?'
tRp14
sS'l'
F210
sS'G_Left'
p15
g4
(g6
S'\xa0\x8a^\xbc\xa2\xc5\xe1?'
tRp16
sS'T_Sys_Left'
p17
g4
(g6
S'4\xa5\xcc\xa6\x7f\xbbn@'
tRp18
sS'jd'
p19
F2456782.6791203702
sS'lst'
p20
g4
(g6
S'\x00`ez\x0f\n&@'
tRp21
sS'vel-peaks'
p22
cnumpy.core.multiarray
_reconstruct
p23
(cnumpy
ndarray
p24
(I0
tS'b'
tRp25
(I1
(I0
tg6
I00
S''
tbsS'grid'
p26
(I6
I0
tp27
sS'fname'
p28
S'data_l_210.00_b_012.00_grid_006_000'
p29
sS'time'
p30
ctime
struct_time
p31
((I2014
I5
I4
I21
I17
I56
I6
I124
I1
t(dtRp32
sS'f_low'
p33
F1268.9000000000001
sS'T_Sys_Right'
p34
g4
(g6
S'\x86\x0bV\x8e\xfa\xf9p@'
tRp35
sS'f_high'
p36
F1271.9000000000001
sS'col-density'
p37
g4
(g6
S'\xc1Wd4\xc7\x03LD'
tRp38
s.