(dp1
S'n_obs'
p2
I87
sS'dispersion'
p3
cnumpy.core.multiarray
scalar
p4
(cnumpy
dtype
p5
(S'f8'
I0
I1
tRp6
(I3
S'<'
NNNI-1
I-1
I0
tbS'l\x9f\xa3\xf5\xf5[1@'
tRp7
sS'b'
F48
sS'n_cal'
p8
I9
sS'vel-center'
p9
g4
(g6
S'\x83\xaa\xe7,\xc9\x04J@'
tRp10
sS'rec-success'
p11
I01
sS'unixtime'
p12
F1399099021.5270989
sS'G_Right'
p13
g4
(g6
S'\xc0\x17n\xf6\xb6\x19\x00@'
tRp14
sS'l'
F210
sS'G_Left'
p15
g4
(g6
S'_\x1e\xfd6\xe4\xcc\xdf?'
tRp16
sS'T_Sys_Left'
p17
g4
(g6
S'\xcd2A\xebu\xe6r@'
tRp18
sS'jd'
p19
F2456780.7757060183
sS'lst'
p20
g4
(g6
S'\x00`\xa4\x15\xdel*@'
tRp21
sS'vel-peaks'
p22
cnumpy.core.multiarray
_reconstruct
p23
(cnumpy
ndarray
p24
(I0
tS'b'
tRp25
(I1
(I0
tg6
I00
S''
tbsS'grid'
p26
(I24
I0
tp27
sS'fname'
p28
S'data_l_210.00_b_048.00_grid_024_000'
p29
sS'time'
p30
ctime
struct_time
p31
((I2014
I5
I2
I23
I37
I1
I4
I122
I1
t(dtRp32
sS'f_low'
p33
F1268.9000000000001
sS'T_Sys_Right'
p34
g4
(g6
S'{\xd2\xa3\x8e\xb0&p@'
tRp35
sS'f_high'
p36
F1271.9000000000001
sS'col-density'
p37
g4
(g6
S'!\x08\xb7\x99\x10\x91.D'
tRp38
s.