(dp1
S'n_obs'
p2
I87
sS'dispersion'
p3
cnumpy.core.multiarray
scalar
p4
(cnumpy
dtype
p5
(S'f8'
I0
I1
tRp6
(I3
S'<'
NNNI-1
I-1
I0
tbS'\xf1\xea\\V?\x0b1@'
tRp7
sS'b'
F60
sS'n_cal'
p8
I9
sS'vel-center'
p9
g4
(g6
S'\xc7\x02\x95uh\xe5 @'
tRp10
sS'rec-success'
p11
I01
sS'unixtime'
p12
F1399196966.2006309
sS'G_Right'
p13
g4
(g6
S'\x14 n\xaf\x1d\x08\xf9?'
tRp14
sS'l'
g4
(g6
S'\x00\x00\x00\x00\x00 s@'
tRp15
sS'G_Left'
p16
g4
(g6
S'T@Xe=t\xe4?'
tRp17
sS'T_Sys_Left'
p18
g4
(g6
S'\x80y\\]\xf9/q@'
tRp19
sS'jd'
p20
F2456781.9093287038
sS'lst'
p21
g4
(g6
S'\x00 \xdf#{~0@'
tRp22
sS'vel-peaks'
p23
cnumpy.core.multiarray
_reconstruct
p24
(cnumpy
ndarray
p25
(I0
tS'b'
tRp26
(I1
(I1
tg6
I00
S'\xbc\x02\nr\xa6V3@'
tbsS'grid'
p27
(I30
I24
tp28
sS'fname'
p29
S'data_l_306.00_b_060.00_grid_030_024'
p30
sS'time'
p31
ctime
struct_time
p32
((I2014
I5
I4
I2
I49
I26
I6
I124
I1
t(dtRp33
sS'f_low'
p34
F1268.9000000000001
sS'T_Sys_Right'
p35
g4
(g6
S'\x00\xf7\xdfu\xe14q@'
tRp36
sS'f_high'
p37
F1271.9000000000001
sS'col-density'
p38
g4
(g6
S'\x92[\xfdn\x97\xea-D'
tRp39
s.