(dp1
S'n_obs'
p2
I87
sS'dispersion'
p3
cnumpy.core.multiarray
scalar
p4
(cnumpy
dtype
p5
(S'f8'
I0
I1
tRp6
(I3
S'<'
NNNI-1
I-1
I0
tbS'c\x8d\xa9+\xd7\t3@'
tRp7
sS'b'
F8
sS'n_cal'
p8
I9
sS'vel-center'
p9
g4
(g6
S'\r\xf6\\\xa1DeZ@'
tRp10
sS'rec-success'
p11
I01
sS'unixtime'
p12
F1399176639.9057009
sS'G_Right'
p13
g4
(g6
S'xg{\x90y\xde\xfd?'
tRp14
sS'l'
g4
(g6
S'\x84H\xa7\x07B\xc1j@'
tRp15
sS'G_Left'
p16
g4
(g6
S'\xe3F\xee\xec8$\xe1?'
tRp17
sS'T_Sys_Left'
p18
g4
(g6
S'Z*%.1\xb4n@'
tRp19
sS'jd'
p20
F2456781.6740624998
sS'lst'
p21
g4
(g6
S'\x00\xe0m\x83\x18\xaa%@'
tRp22
sS'vel-peaks'
p23
cnumpy.core.multiarray
_reconstruct
p24
(cnumpy
ndarray
p25
(I0
tS'b'
tRp26
(I1
(I2
tg6
I00
S'\xd5|\xbd\x9a#]`@M\x18\xf1\xf4q}W@'
tbsS'grid'
p27
(I4
I2
tp28
sS'fname'
p29
S'data_l_214.04_b_008.00_grid_004_002'
p30
sS'time'
p31
ctime
struct_time
p32
((I2014
I5
I3
I21
I10
I39
I5
I123
I1
t(dtRp33
sS'f_low'
p34
F1268.9000000000001
sS'T_Sys_Right'
p35
g4
(g6
S'bG\xf2\xeb\x8dUo@'
tRp36
sS'f_high'
p37
F1271.9000000000001
sS'col-density'
p38
g4
(g6
S'\xf03sf2jVD'
tRp39
s.