(dp1
S'n_obs'
p2
I87
sS'dispersion'
p3
cnumpy.core.multiarray
scalar
p4
(cnumpy
dtype
p5
(S'f8'
I0
I1
tRp6
(I3
S'<'
NNNI-1
I-1
I0
tbS'\xca\xe0z\x02\xaa\xcd#@'
tRp7
sS'b'
F40
sS'n_cal'
p8
I9
sS'vel-center'
p9
g4
(g6
S'\x07\x94\xd4\xc3zNA\xc0'
tRp10
sS'rec-success'
p11
I01
sS'unixtime'
p12
F1399189247.982317
sS'G_Right'
p13
g4
(g6
S'\xc1\xda\xa8\xe9\n\xdc\x00@'
tRp14
sS'l'
g4
(g6
S'\x00\xc1gq\xff\xd5\xf6?'
tRp15
sS'G_Left'
p16
g4
(g6
S'\xd7h\xa5\xf4Y^\xde?'
tRp17
sS'T_Sys_Left'
p18
g4
(g6
S'K\xd2\xdc{\xb3\xf8o@'
tRp19
sS'jd'
p20
F2456781.8199884258
sS'lst'
p21
g4
(g6
S'\x00@\x8f\x9a$\xb0,@'
tRp22
sS'vel-peaks'
p23
cnumpy.core.multiarray
_reconstruct
p24
(cnumpy
ndarray
p25
(I0
tS'b'
tRp26
(I1
(I1
tg6
I00
S'\x82~\xd3\xab{\xa5A\xc0'
tbsS'grid'
p27
(I20
I58
tp28
sS'fname'
p29
S'data_l_001.43_b_040.00_grid_020_058'
p30
sS'time'
p31
ctime
struct_time
p32
((I2014
I5
I4
I0
I40
I47
I6
I124
I1
t(dtRp33
sS'f_low'
p34
F1268.9000000000001
sS'T_Sys_Right'
p35
g4
(g6
S'\xed\xae\xf9\xec\xb4\x99p@'
tRp36
sS'f_high'
p37
F1271.9000000000001
sS'col-density'
p38
g4
(g6
S'\x04W9\n\x81\x99FD'
tRp39
s.