(dp1
S'n_obs'
p2
I174
sS'dispersion'
p3
cnumpy.core.multiarray
scalar
p4
(cnumpy
dtype
p5
(S'f8'
I0
I1
tRp6
(I3
S'<'
NNNI-1
I-1
I0
tbS'\x9b\x87\x9e\xc2^\xad8@'
tRp7
sS'b'
F4
sS'fname'
p8
S'data_l_228.04_b_004.00_grid_002_009'
p9
sS'vel-center'
p10
g4
(g6
S'qT\x01\x0f\xba\xc8]@'
tRp11
sS'rec-success'
p12
I01
sS'unixtime'
p13
F1398649800
sS'G_Right'
p14
g4
(g6
S'\xf0-\xfe\xab}I\xfa?'
tRp15
sS'l'
g4
(g6
S'\xb6\xe5\x90\x12h\x81l@'
tRp16
sS'G_Left'
p17
g4
(g6
S'\x18\xe6QH-z\xe3?'
tRp18
sS'T_Sys_Left'
p19
g4
(g6
S'}\xe3\x8d\xbf\x9d\xabs@'
tRp20
sS'jd'
p21
F2456775.576388889
sS'lst'
p22
g4
(g6
S'\x00@e[\xbc, @'
tRp23
sS'vel-peaks'
p24
cnumpy.core.multiarray
_reconstruct
p25
(cnumpy
ndarray
p26
(I0
tS'b'
tRp27
(I1
(I3
tg6
I00
S'\xfcXy\xb18\xeeb@\x1f\xf4\xa8B\xaa\x08Z@2\xdc\xb1\x95$\xd2U@'
tbsS'grid'
p28
(I2
I9
tp29
sS'n_cal'
p30
I18
sS'time'
p31
ctime
struct_time
p32
((I2014
I4
I27
I18
I50
I0
I6
I117
I1
t(dtRp33
sS'f_low'
p34
F1268.9000000000001
sS'T_Sys_Right'
p35
g4
(g6
S'\xc2r\xc8\xbf\xe0\xcdt@'
tRp36
sS'f_high'
p37
F1271.9000000000001
sS'col-density'
p38
g4
(g6
S'dG\x93\x17\x00\xa3kD'
tRp39
s.