(dp1
S'n_obs'
p2
I87
sS'dispersion'
p3
cnumpy.core.multiarray
scalar
p4
(cnumpy
dtype
p5
(S'f8'
I0
I1
tRp6
(I3
S'<'
NNNI-1
I-1
I0
tbS'\x99\x06\xf7\x91\xce( @'
tRp7
sS'b'
F36
sS'n_cal'
p8
I9
sS'vel-center'
p9
g4
(g6
S'\\o\x98\x85/pQ@'
tRp10
sS'rec-success'
p11
I01
sS'unixtime'
p12
F1399185626.8993001
sS'G_Right'
p13
g4
(g6
S'\xf42\xdeV\xee0\x00@'
tRp14
sS'l'
g4
(g6
S'\x06{\x12T\x84\x93n@'
tRp15
sS'G_Left'
p16
g4
(g6
S'\x17"\x9f\x11K\x9f\xdf?'
tRp17
sS'T_Sys_Left'
p18
g4
(g6
S'\xaa\xe0\xdbcW\xc8n@'
tRp19
sS'jd'
p20
F2456781.7780787037
sS'lst'
p21
g4
(g6
S'\x00\xe0\x89\x0f\xbf\xab*@'
tRp22
sS'vel-peaks'
p23
cnumpy.core.multiarray
_reconstruct
p24
(cnumpy
ndarray
p25
(I0
tS'b'
tRp26
(I1
(I1
tg6
I00
S'\xcas\xda\xff\x87\xc7Q@'
tbsS'grid'
p27
(I18
I14
tp28
sS'fname'
p29
S'data_l_244.61_b_036.00_grid_018_014'
p30
sS'time'
p31
ctime
struct_time
p32
((I2014
I5
I3
I23
I40
I26
I5
I123
I1
t(dtRp33
sS'f_low'
p34
F1268.9000000000001
sS'T_Sys_Right'
p35
g4
(g6
S'\xde\xc9\xbd\xb3\xf5\\p@'
tRp36
sS'f_high'
p37
F1271.9000000000001
sS'col-density'
p38
g4
(g6
S'\x00Fo\xce\x8d\xea3D'
tRp39
s.