(dp1
S'n_obs'
p2
I87
sS'dispersion'
p3
cnumpy.core.multiarray
scalar
p4
(cnumpy
dtype
p5
(S'f8'
I0
I1
tRp6
(I3
S'<'
NNNI-1
I-1
I0
tbS'\xc0\xc9\x8a\xf7\xa2.\x1d@'
tRp7
sS'b'
F32
sS'n_cal'
p8
I9
sS'vel-center'
p9
g4
(g6
S'\x08\xfbi \xdb\xffR@'
tRp10
sS'rec-success'
p11
I01
sS'unixtime'
p12
F1399184229.4976511
sS'G_Right'
p13
g4
(g6
S'\x02\x0fr\xb0-\xe4\xff?'
tRp14
sS'l'
g4
(g6
S'\xe8\xc4S\xe8\x9b\xc9m@'
tRp15
sS'G_Left'
p16
g4
(g6
S'\xdd;zJ\xf5\r\xe0?'
tRp17
sS'T_Sys_Left'
p18
g4
(g6
S'\xaf\xf1z\xff\xa6?o@'
tRp19
sS'jd'
p20
F2456781.7619097224
sS'lst'
p21
g4
(g6
S'\x00\x00\xa4\x95\x84\xe4)@'
tRp22
sS'vel-peaks'
p23
cnumpy.core.multiarray
_reconstruct
p24
(cnumpy
ndarray
p25
(I0
tS'b'
tRp26
(I1
(I1
tg6
I00
S'\x0e\xa0S\xb3o\x1bS@'
tbsS'grid'
p27
(I16
I12
tp28
sS'fname'
p29
S'data_l_238.30_b_032.00_grid_016_012'
p30
sS'time'
p31
ctime
struct_time
p32
((I2014
I5
I3
I23
I17
I9
I5
I123
I1
t(dtRp33
sS'f_low'
p34
F1268.9000000000001
sS'T_Sys_Right'
p35
g4
(g6
S'\x9et\x1b\x0b\xb8\xe3p@'
tRp36
sS'f_high'
p37
F1271.9000000000001
sS'col-density'
p38
g4
(g6
S'i\x1d\x8b\xa4m\x91.D'
tRp39
s.