(dp1
S'n_obs'
p2
I87
sS'dispersion'
p3
cnumpy.core.multiarray
scalar
p4
(cnumpy
dtype
p5
(S'f8'
I0
I1
tRp6
(I3
S'<'
NNNI-1
I-1
I0
tbS's\xbaq\\\xb4\x0b1@'
tRp7
sS'b'
F12
sS'n_cal'
p8
I9
sS'vel-center'
p9
g4
(g6
S'\xec\x963\xcb\xf34Y@'
tRp10
sS'rec-success'
p11
I01
sS'unixtime'
p12
F1399178172.2204759
sS'G_Right'
p13
g4
(g6
S'd\xf6\xa6,i\x82\xfd?'
tRp14
sS'l'
g4
(g6
S'\x88Q\xfc\x1c\xb8Ek@'
tRp15
sS'G_Left'
p16
g4
(g6
S'\x90U\xe5a\xb3Y\xe1?'
tRp17
sS'T_Sys_Left'
p18
g4
(g6
S"R'\xd35N\x18o@"
tRp19
sS'jd'
p20
F2456781.6918055555
sS'lst'
p21
g4
(g6
S'\x00 \x0f(\xb8\x84&@'
tRp22
sS'vel-peaks'
p23
cnumpy.core.multiarray
_reconstruct
p24
(cnumpy
ndarray
p25
(I0
tS'b'
tRp26
(I1
(I1
tg6
I00
S'$EY\x13U}W@'
tbsS'grid'
p27
(I6
I4
tp28
sS'fname'
p29
S'data_l_218.18_b_012.00_grid_006_004'
p30
sS'time'
p31
ctime
struct_time
p32
((I2014
I5
I3
I21
I36
I12
I5
I123
I1
t(dtRp33
sS'f_low'
p34
F1268.9000000000001
sS'T_Sys_Right'
p35
g4
(g6
S'\x18\xad\xce&}\xfan@'
tRp36
sS'f_high'
p37
F1271.9000000000001
sS'col-density'
p38
g4
(g6
S'\xe1\x7fh\xfalgFD'
tRp39
s.