(dp1
S'n_obs'
p2
I87
sS'dispersion'
p3
cnumpy.core.multiarray
scalar
p4
(cnumpy
dtype
p5
(S'f8'
I0
I1
tRp6
(I3
S'<'
NNNI-1
I-1
I0
tbS'R\x97`\x05\x1br0@'
tRp7
sS'b'
F56
sS'n_cal'
p8
I9
sS'vel-center'
p9
g4
(g6
S'\xd5\xf5/\x1c\xd6\xc9-@'
tRp10
sS'rec-success'
p11
I01
sS'unixtime'
p12
F1399108415.369441
sS'G_Right'
p13
g4
(g6
S"\xf3\xd0\xe7'\x914\x02@"
tRp14
sS'l'
g4
(g6
S'F\xed\x06\x13\xf5\nr@'
tRp15
sS'G_Left'
p16
g4
(g6
S'\rO\xdbV\xa5\x1f\xdc?'
tRp17
sS'T_Sys_Left'
p18
g4
(g6
S'P^\xb9\xc94\x99n@'
tRp19
sS'jd'
p20
F2456780.8844328704
sS'lst'
p21
g4
(g6
S'\x00`\r\x9f\x8f\xa8/@'
tRp22
sS'vel-peaks'
p23
cnumpy.core.multiarray
_reconstruct
p24
(cnumpy
ndarray
p25
(I0
tS'b'
tRp26
(I1
(I1
tg6
I00
S'Ag\xc5NF\xf2<@'
tbsS'grid'
p27
(I28
I22
tp28
sS'fname'
p29
S'data_l_288.68_b_056.00_grid_028_022'
p30
sS'time'
p31
ctime
struct_time
p32
((I2014
I5
I3
I2
I13
I35
I5
I123
I1
t(dtRp33
sS'f_low'
p34
F1268.9000000000001
sS'T_Sys_Right'
p35
g4
(g6
S'8\xad(\xb6_\x00q@'
tRp36
sS'f_high'
p37
F1271.9000000000001
sS'col-density'
p38
g4
(g6
S'29\xb5c\x13\xbe4D'
tRp39
s.