(dp1
S'n_obs'
p2
I87
sS'dispersion'
p3
cnumpy.core.multiarray
scalar
p4
(cnumpy
dtype
p5
(S'f8'
I0
I1
tRp6
(I3
S'<'
NNNI-1
I-1
I0
tbS'\xf4\xa9k\xff\xef))@'
tRp7
sS'b'
F56
sS'n_cal'
p8
I9
sS'vel-center'
p9
g4
(g6
S"D\x0e]p'8H@"
tRp10
sS'rec-success'
p11
I01
sS'unixtime'
p12
F1399271532.522078
sS'G_Right'
p13
g4
(g6
S')]:\x90a4\xfe?'
tRp14
sS'l'
g4
(g6
S'\xb4\xd74\xb4\x81\xb8n@'
tRp15
sS'G_Left'
p16
g4
(g6
S'?\x99Z1x\xf3\xe0?'
tRp17
sS'T_Sys_Left'
p18
g4
(g6
S'N,\xac\x8a\xde\x8bn@'
tRp19
sS'jd'
p20
F2456782.7723611109
sS'lst'
p21
g4
(g6
S'\x00\xa0\t\x8b\xf0\x86*@'
tRp22
sS'vel-peaks'
p23
cnumpy.core.multiarray
_reconstruct
p24
(cnumpy
ndarray
p25
(I0
tS'b'
tRp26
(I1
(I0
tg6
I00
S''
tbsS'grid'
p27
(I28
I10
tp28
sS'fname'
p29
S'data_l_245.77_b_056.00_grid_028_010'
p30
sS'time'
p31
ctime
struct_time
p32
((I2014
I5
I4
I23
I32
I12
I6
I124
I1
t(dtRp33
sS'f_low'
p34
F1268.9000000000001
sS'T_Sys_Right'
p35
g4
(g6
S'x\x02\xba\xe3\x96\xdao@'
tRp36
sS'f_high'
p37
F1271.9000000000001
sS'col-density'
p38
g4
(g6
S'\x0b\x06\x12\xa4r~1D'
tRp39
s.