(dp1
S'n_obs'
p2
I174
sS'dispersion'
p3
cnumpy.core.multiarray
scalar
p4
(cnumpy
dtype
p5
(S'f8'
I0
I1
tRp6
(I3
S'<'
NNNI-1
I-1
I0
tbS'4\x01@\x0bF-8@'
tRp7
sS'b'
F2
sS'fname'
p8
S'data_l_231.91_b_002.00_grid_001_074'
p9
sS'vel-center'
p10
g4
(g6
S'O\x1af\xfd\xd9\xcd^@'
tRp11
sS'rec-success'
p12
I01
sS'unixtime'
p13
F1398568320
sS'G_Right'
p14
g4
(g6
S'l\xf7R\xb9\xba>\xf1?'
tRp15
sS'l'
g4
(g6
S'{\xaa\x8e\xfa\x1c\xfdl@'
tRp16
sS'G_Left'
p17
g4
(g6
S'\xdd\xf5dO\x90\xb0\xed?'
tRp18
sS'T_Sys_Left'
p19
g4
(g6
S'\xd9\x0c\xa1\xa8\xb0\xb8w@'
tRp20
sS'jd'
p21
F2456774.6333333333
sS'lst'
p22
g4
(g6
S'\x00 x\xd1\xbd\xc8"@'
tRp23
sS'vel-peaks'
p24
cnumpy.core.multiarray
_reconstruct
p25
(cnumpy
ndarray
p26
(I0
tS'b'
tRp27
(I1
(I4
tg6
I00
S'\xda\xd9\xf41E5c@L\xbf2\xd7\x12\x9d_@5\xd8\x8coW\xbeZ@\xdc\x8f\x1b\x8f\xc4rU@'
tbsS'grid'
p28
(I1
I74
tp29
sS'n_cal'
p30
I18
sS'time'
p31
ctime
struct_time
p32
((I2014
I4
I26
I20
I12
I0
I5
I116
I1
t(dtRp33
sS'f_low'
p34
F1268.9000000000001
sS'T_Sys_Right'
p35
g4
(g6
S'\xff9\xa4v\xc2\x87h@'
tRp36
sS'f_high'
p37
F1271.9000000000001
sS'col-density'
p38
g4
(g6
S'\xf0\xea\xc8pb%uD'
tRp39
s.