(dp1
S'n_obs'
p2
I87
sS'dispersion'
p3
cnumpy.core.multiarray
scalar
p4
(cnumpy
dtype
p5
(S'f8'
I0
I1
tRp6
(I3
S'<'
NNNI-1
I-1
I0
tbS'\xa9\xc6\x10T\xe9G1@'
tRp7
sS'b'
F80
sS'n_cal'
p8
I9
sS'vel-center'
p9
g4
(g6
S'\xc5\xd7\x96z\x08\xc8\xf7?'
tRp10
sS'rec-success'
p11
I01
sS'unixtime'
p12
F1399283763.8110819
sS'G_Right'
p13
g4
(g6
S'\xe7\xa6\xa2$=l\xf9?'
tRp14
sS'l'
g4
(g6
S'\n\xd7\\z\xceRt@'
tRp15
sS'G_Left'
p16
g4
(g6
S'\xeb.\xb1v\xaf#\xe4?'
tRp17
sS'T_Sys_Left'
p18
g4
(g6
S'0\x95\x04\x97\xfb\x05n@'
tRp19
sS'jd'
p20
F2456782.9139236109
sS'lst'
p21
g4
(g6
S'\x00\xc0Xs\x9c\xab0@'
tRp22
sS'vel-peaks'
p23
cnumpy.core.multiarray
_reconstruct
p24
(cnumpy
ndarray
p25
(I0
tS'b'
tRp26
(I1
(I1
tg6
I00
S'\xb7\xd9\xe3\x8e\x9a\x16.@'
tbsS'grid'
p27
(I40
I10
tp28
sS'fname'
p29
S'data_l_325.18_b_080.00_grid_040_010'
p30
sS'time'
p31
ctime
struct_time
p32
((I2014
I5
I5
I2
I56
I3
I0
I125
I1
t(dtRp33
sS'f_low'
p34
F1268.9000000000001
sS'T_Sys_Right'
p35
g4
(g6
S'\xfeb\x84B\x89\xcdo@'
tRp36
sS'f_high'
p37
F1271.9000000000001
sS'col-density'
p38
g4
(g6
S'\xea6\xff\xba\x93\xaa0D'
tRp39
s.