(dp1
S'n_obs'
p2
I87
sS'dispersion'
p3
cnumpy.core.multiarray
scalar
p4
(cnumpy
dtype
p5
(S'f8'
I0
I1
tRp6
(I3
S'<'
NNNI-1
I-1
I0
tbS'\xf1o\xc1\x11\xf1\x842@'
tRp7
sS'b'
F12
sS'n_cal'
p8
I9
sS'vel-center'
p9
g4
(g6
S'\x95\x0fb\x88k\xfeY@'
tRp10
sS'rec-success'
p11
I01
sS'unixtime'
p12
F1398835093
sS'G_Right'
p13
g4
(g6
S'j\x06jL\xd9\x88\x00@'
tRp14
sS'l'
g4
(g6
S'\x10\xa3\xf89pKl@'
tRp15
sS'G_Left'
p16
g4
(g6
S'Y0o\xab&\xf7\xde?'
tRp17
sS'T_Sys_Left'
p18
g4
(g6
S'\xc1\xc65xc\x01l@'
tRp19
sS'jd'
p20
F2456777.7209837963
sS'lst'
p21
g4
(g6
S"\x00`\xa1e\xabe'@"
tRp22
sS'vel-peaks'
p23
cnumpy.core.multiarray
_reconstruct
p24
(cnumpy
ndarray
p25
(I0
tS'b'
tRp26
(I1
(I2
tg6
I00
S'\x1b\xbe\xfa-\x05\xe8Y@\x86\x88\xf0\xac\x13\xd9U@'
tbsS'grid'
p27
(I6
I8
tp28
sS'fname'
p29
S'data_l_226.36_b_012.00_grid_006_008'
p30
sS'time'
p31
ctime
struct_time
p32
((I2014
I4
I29
I22
I18
I13
I1
I119
I1
t(dtRp33
sS'f_low'
p34
F1268.9000000000001
sS'T_Sys_Right'
p35
g4
(g6
S'\x84\x0eB>O\xa2t@'
tRp36
sS'f_high'
p37
F1271.9000000000001
sS'col-density'
p38
g4
(g6
S'\x9ah\xaeOL\xd0FD'
tRp39
s.