(dp1
S'n_obs'
p2
I87
sS'dispersion'
p3
cnumpy.core.multiarray
scalar
p4
(cnumpy
dtype
p5
(S'f8'
I0
I1
tRp6
(I3
S'<'
NNNI-1
I-1
I0
tbS'W\xc4\x9d\xff\xe1q+@'
tRp7
sS'b'
F60
sS'n_cal'
p8
I9
sS'vel-center'
p9
g4
(g6
S'\xad\xe7k\xce\x8b\xf2?\xc0'
tRp10
sS'rec-success'
p11
I01
sS'unixtime'
p12
F1399113291.9450531
sS'G_Right'
p13
g4
(g6
S'\xd9K\xf4,j\xd6\x00@'
tRp14
sS'l'
g4
(g6
S'\x00\x00\x00\x00\x00\x002@'
tRp15
sS'G_Left'
p16
g4
(g6
S'\x06\xbd\x92\x7f\x80h\xde?'
tRp17
sS'T_Sys_Left'
p18
g4
(g6
S'\xa0C\xcf\xabs\xa3o@'
tRp19
sS'jd'
p20
F2456780.9408680554
sS'lst'
p21
g4
(g6
S'\x00\x000\xb6\xf7/1@'
tRp22
sS'vel-peaks'
p23
cnumpy.core.multiarray
_reconstruct
p24
(cnumpy
ndarray
p25
(I0
tS'b'
tRp26
(I1
(I1
tg6
I00
S'\xd6\x88*\xd2\x99\x127\xc0'
tbsS'grid'
p27
(I30
I42
tp28
sS'fname'
p29
S'data_l_018.00_b_060.00_grid_030_042'
p30
sS'time'
p31
ctime
struct_time
p32
((I2014
I5
I3
I3
I34
I51
I5
I123
I1
t(dtRp33
sS'f_low'
p34
F1268.9000000000001
sS'T_Sys_Right'
p35
g4
(g6
S'\n\x97\xf0\xfcV\x9bp@'
tRp36
sS'f_high'
p37
F1271.9000000000001
sS'col-density'
p38
g4
(g6
S'\x9b\xa5\xe9\x99\x02\xf11D'
tRp39
s.