(dp1
S'n_obs'
p2
I87
sS'dispersion'
p3
cnumpy.core.multiarray
scalar
p4
(cnumpy
dtype
p5
(S'f8'
I0
I1
tRp6
(I3
S'<'
NNNI-1
I-1
I0
tbS'\x05\x99p\xc0a\x940@'
tRp7
sS'b'
F64
sS'n_cal'
p8
I9
sS'vel-center'
p9
g4
(g6
S'o~t\xdd\x82\xc1\x05@'
tRp10
sS'rec-success'
p11
I01
sS'unixtime'
p12
F1399197205.974802
sS'G_Right'
p13
g4
(g6
S'\x96\xa0zW\x14\xf5\xf8?'
tRp14
sS'l'
g4
(g6
S'\x1e\xcc\xcb\xf2\xf1es@'
tRp15
sS'G_Left'
p16
g4
(g6
S'\x80,\xd6e\xd7\x83\xe4?'
tRp17
sS'T_Sys_Left'
p18
g4
(g6
S'I\x05\xb5%\xb8bq@'
tRp19
sS'jd'
p20
F2456781.9120949074
sS'lst'
p21
g4
(g6
S'\x00`\x19\xea\x85\x8f0@'
tRp22
sS'vel-peaks'
p23
cnumpy.core.multiarray
_reconstruct
p24
(cnumpy
ndarray
p25
(I0
tS'b'
tRp26
(I1
(I0
tg6
I00
S''
tbsS'grid'
p27
(I32
I22
tp28
sS'fname'
p29
S'data_l_310.37_b_064.00_grid_032_022'
p30
sS'time'
p31
ctime
struct_time
p32
((I2014
I5
I4
I2
I53
I25
I6
I124
I1
t(dtRp33
sS'f_low'
p34
F1268.9000000000001
sS'T_Sys_Right'
p35
g4
(g6
S':\x87\xc5\xb4\xbe+p@'
tRp36
sS'f_high'
p37
F1271.9000000000001
sS'col-density'
p38
g4
(g6
S';\xd1\xed\x94\x02\xc5.D'
tRp39
s.