(dp1
S'n_obs'
p2
I174
sS'dispersion'
p3
cnumpy.core.multiarray
scalar
p4
(cnumpy
dtype
p5
(S'f8'
I0
I1
tRp6
(I3
S'<'
NNNI-1
I-1
I0
tbS'G\xa5Z\x12%\x9a:@'
tRp7
sS'b'
F6
sS'fname'
p8
S'data_l_235.21_b_006.00_grid_003_072'
p9
sS'vel-center'
p10
g4
(g6
S'\x150\x9c\x02\xd5J]@'
tRp11
sS'rec-success'
p12
I01
sS'unixtime'
p13
F1398657540
sS'G_Right'
p14
g4
(g6
S'\xbf\x8cI`#\x1e\xf9?'
tRp15
sS'l'
g4
(g6
S'\xc0\x83E+\x9efm@'
tRp16
sS'G_Left'
p17
g4
(g6
S'Z\xd2\xc7wNb\xe4?'
tRp18
sS'T_Sys_Left'
p19
g4
(g6
S'+\xb0\x0e\xe5\xe9pz@'
tRp20
sS'jd'
p21
F2456775.6659722221
sS'lst'
p22
g4
(g6
S'\x00 [\xb6\x8c|$@'
tRp23
sS'vel-peaks'
p24
cnumpy.core.multiarray
_reconstruct
p25
(cnumpy
ndarray
p26
(I0
tS'b'
tRp27
(I1
(I4
tg6
I00
S'\n\x83\x03\x91\x97:c@[\xd6)\xed\xdf\xf6_@D\xef\x83\x85$\x18[@&\x94\xabE\xf0\x8fT@'
tbsS'grid'
p28
(I3
I72
tp29
sS'n_cal'
p30
I18
sS'time'
p31
ctime
struct_time
p32
((I2014
I4
I27
I20
I59
I0
I6
I117
I1
t(dtRp33
sS'f_low'
p34
F1268.9000000000001
sS'T_Sys_Right'
p35
g4
(g6
S'\xfd\xbe\x18\xa3n,p@'
tRp36
sS'f_high'
p37
F1271.9000000000001
sS'col-density'
p38
g4
(g6
S'&\xbd\xd8(\x90~bD'
tRp39
s.