(dp1
S'n_obs'
p2
I174
sS'dispersion'
p3
cnumpy.core.multiarray
scalar
p4
(cnumpy
dtype
p5
(S'f8'
I0
I1
tRp6
(I3
S'<'
NNNI-1
I-1
I0
tbS'\xcd%\x80e\xfb\\2@'
tRp7
sS'b'
F2
sS'fname'
p8
S'data_l_211.90_b_002.00_grid_001_084'
p9
sS'vel-center'
p10
g4
(g6
S'H\xf6\xfc\xe9e\xc7[@'
tRp11
sS'rec-success'
p12
I01
sS'unixtime'
p13
F1398644460
sS'G_Right'
p14
g4
(g6
S'\xc2\x04M\x06\xf7\x1c\x02@'
tRp15
sS'l'
g4
(g6
S'\xf9\x97j\x1c\xb9|j@'
tRp16
sS'G_Left'
p17
g4
(g6
S'\x84\xdbI\xbcJD\xdc?'
tRp18
sS'T_Sys_Left'
p19
g4
(g6
S'\xcd\t\xec\x10\xcfG\x8b@'
tRp20
sS'jd'
p21
F2456775.5145833334
sS'lst'
p22
g4
(g6
S"\x00\x00\x1c'af\x1a@"
tRp23
sS'vel-peaks'
p24
cnumpy.core.multiarray
_reconstruct
p25
(cnumpy
ndarray
p26
(I0
tS'b'
tRp27
(I1
(I2
tg6
I00
S'\x83d\xf3H\x08\x01`@\xea\xa6\xe0n~\xc6W@'
tbsS'grid'
p28
(I1
I84
tp29
sS'n_cal'
p30
I18
sS'time'
p31
ctime
struct_time
p32
((I2014
I4
I27
I17
I21
I0
I6
I117
I1
t(dtRp33
sS'f_low'
p34
F1268.9000000000001
sS'T_Sys_Right'
p35
g4
(g6
S'\x05\x8d\xb03,;y@'
tRp36
sS'f_high'
p37
F1271.9000000000001
sS'col-density'
p38
g4
(g6
S'Nof3B|\x83D'
tRp39
s.