(dp1
S'n_obs'
p2
I87
sS'dispersion'
p3
cnumpy.core.multiarray
scalar
p4
(cnumpy
dtype
p5
(S'f8'
I0
I1
tRp6
(I3
S'<'
NNNI-1
I-1
I0
tbS"\x995u'\xfd>$@"
tRp7
sS'b'
F40
sS'n_cal'
p8
I9
sS'vel-center'
p9
g4
(g6
S'\x12\xd1~\xa3\x9emE@'
tRp10
sS'rec-success'
p11
I01
sS'unixtime'
p12
F1399094834.9131041
sS'G_Right'
p13
g4
(g6
S'\xf0\xa4\xd3\x0b\xfc\xc9\x00@'
tRp14
sS'l'
g4
(g6
S'A\xd62O\x19^q@'
tRp15
sS'G_Left'
p16
g4
(g6
S'\xa5\x05&\xf7\x03\x7f\xde?'
tRp17
sS'T_Sys_Left'
p18
g4
(g6
S'r\xea\xd2u*\x17q@'
tRp19
sS'jd'
p20
F2456780.7272453704
sS'lst'
p21
g4
(g6
S'\x00@\x86\xb0\xc0\x17(@'
tRp22
sS'vel-peaks'
p23
cnumpy.core.multiarray
_reconstruct
p24
(cnumpy
ndarray
p25
(I0
tS'b'
tRp26
(I1
(I1
tg6
I00
S'\t\xa5\xc8\xe1\xe9\xb0D@'
tbsS'grid'
p27
(I20
I26
tp28
sS'fname'
p29
S'data_l_277.88_b_040.00_grid_020_026'
p30
sS'time'
p31
ctime
struct_time
p32
((I2014
I5
I2
I22
I27
I14
I4
I122
I1
t(dtRp33
sS'f_low'
p34
F1268.9000000000001
sS'T_Sys_Right'
p35
g4
(g6
S'\xc9d[\x10=Cr@'
tRp36
sS'f_high'
p37
F1271.9000000000001
sS'col-density'
p38
g4
(g6
S'\xfa\xa1W\xd1r+9D'
tRp39
s.