(dp1
S'n_obs'
p2
I87
sS'dispersion'
p3
cnumpy.core.multiarray
scalar
p4
(cnumpy
dtype
p5
(S'f8'
I0
I1
tRp6
(I3
S'<'
NNNI-1
I-1
I0
tbS'h\x93mM1+#@'
tRp7
sS'b'
F12
sS'n_cal'
p8
I9
sS'vel-center'
p9
g4
(g6
S'Me\xec\xc9_!M\xc0'
tRp10
sS'rec-success'
p11
I01
sS'unixtime'
p12
F1399296645.214751
sS'G_Right'
p13
g4
(g6
S'\xffZ\x1b"m\x9f\xfb?'
tRp14
sS'l'
g4
(g6
S'\xc0]\x83Sc\xf8"@'
tRp15
sS'G_Left'
p16
g4
(g6
S'\x06\xb6r\x9d\x12\x89\xe2?'
tRp17
sS'T_Sys_Left'
p18
g4
(g6
S'\xf7\x97\xfa\xcf\n\x9an@'
tRp19
sS'jd'
p20
F2456783.0630208333
sS'lst'
p21
g4
(g6
S'\x00\xa0\x99+,B4@'
tRp22
sS'vel-peaks'
p23
cnumpy.core.multiarray
_reconstruct
p24
(cnumpy
ndarray
p25
(I0
tS'b'
tRp26
(I1
(I1
tg6
I00
S'\xf0\x96U=\xbc\xfbM\xc0'
tbsS'grid'
p27
(I6
I78
tp28
sS'fname'
p29
S'data_l_009.49_b_012.00_grid_006_078'
p30
sS'time'
p31
ctime
struct_time
p32
((I2014
I5
I5
I6
I30
I45
I0
I125
I1
t(dtRp33
sS'f_low'
p34
F1268.9000000000001
sS'T_Sys_Right'
p35
g4
(g6
S'\xcaF\x88\xe7\xe7\xb9o@'
tRp36
sS'f_high'
p37
F1271.9000000000001
sS'col-density'
p38
g4
(g6
S'+\xb5\xfe\xbf\x7f\xf9WD'
tRp39
s.