(dp1
S'n_obs'
p2
I87
sS'dispersion'
p3
cnumpy.core.multiarray
scalar
p4
(cnumpy
dtype
p5
(S'f8'
I0
I1
tRp6
(I3
S'<'
NNNI-1
I-1
I0
tbS'\xf4|\x04\xb2\xa7\xb6,@'
tRp7
sS'b'
F36
sS'n_cal'
p8
I9
sS'vel-center'
p9
g4
(g6
S'\xf2_\xa2>\xb0:R@'
tRp10
sS'rec-success'
p11
I01
sS'unixtime'
p12
F1399091626.272398
sS'G_Right'
p13
g4
(g6
S'S\xd6\x86\x93Q\x86\x00@'
tRp14
sS'l'
g4
(g6
S'J\x7f\xb9y7\xdej@'
tRp15
sS'G_Left'
p16
g4
(g6
S'\xcb\xdb\x02n\xe4\xfb\xde?'
tRp17
sS'T_Sys_Left'
p18
g4
(g6
S'\xec\x04RJG\xd6q@'
tRp19
sS'jd'
p20
F2456780.6901157405
sS'lst'
p21
g4
(g6
S'\x00 \xab/AN&@'
tRp22
sS'vel-peaks'
p23
cnumpy.core.multiarray
_reconstruct
p24
(cnumpy
ndarray
p25
(I0
tS'b'
tRp26
(I1
(I1
tg6
I00
S'\xb4\xb3\xc2\x982\xcdS@'
tbsS'grid'
p27
(I18
I2
tp28
sS'fname'
p29
S'data_l_214.94_b_036.00_grid_018_002'
p30
sS'time'
p31
ctime
struct_time
p32
((I2014
I5
I2
I21
I33
I46
I4
I122
I1
t(dtRp33
sS'f_low'
p34
F1268.9000000000001
sS'T_Sys_Right'
p35
g4
(g6
S'\x1a\xd6\xa2\xc1\x1eKq@'
tRp36
sS'f_high'
p37
F1271.9000000000001
sS'col-density'
p38
g4
(g6
S'F\x8b\xba\xcb{65D'
tRp39
s.