(dp1
S'n_obs'
p2
I174
sS'dispersion'
p3
cnumpy.core.multiarray
scalar
p4
(cnumpy
dtype
p5
(S'f8'
I0
I1
tRp6
(I3
S'<'
NNNI-1
I-1
I0
tbS'\xf2\x0f\xcd\t\xe2!3@'
tRp7
sS'b'
F6
sS'fname'
p8
S'data_l_211.07_b_006.00_grid_003_084'
p9
sS'vel-center'
p10
g4
(g6
S'\\V]\x84i*[@'
tRp11
sS'rec-success'
p12
I01
sS'unixtime'
p13
F1398745829
sS'G_Right'
p14
g4
(g6
S'i\xa8\x8f \xbd\xa5\x02@'
tRp15
sS'l'
g4
(g6
S'`\xc4{2cbj@'
tRp16
sS'G_Left'
p17
g4
(g6
S'B\xe7\x1av\xf6t\xdb?'
tRp18
sS'T_Sys_Left'
p19
g4
(g6
S'Z\xc9\x87\xcb\xb3MY@'
tRp20
sS'jd'
p21
F2456776.6875
sS'lst'
p22
g4
(g6
S'\x00@x`s\xa7%@'
tRp23
sS'vel-peaks'
p24
cnumpy.core.multiarray
_reconstruct
p25
(cnumpy
ndarray
p26
(I0
tS'b'
tRp27
(I1
(I2
tg6
I00
S'\xce#}/\xfd\x99_@.\x17\t\t\xffAX@'
tbsS'grid'
p28
(I3
I84
tp29
sS'n_cal'
p30
I18
sS'time'
p31
ctime
struct_time
p32
((I2014
I4
I28
I21
I30
I29
I0
I118
I1
t(dtRp33
sS'f_low'
p34
F1268.9000000000001
sS'T_Sys_Right'
p35
g4
(g6
S'\x89\x13\x00\xf0\x9e\x0e\\@'
tRp36
sS'f_high'
p37
F1271.9000000000001
sS'col-density'
p38
g4
(g6
S'\xd7f\xf4W\x16\xacPD'
tRp39
s.