(dp1
S'n_obs'
p2
I87
sS'dispersion'
p3
cnumpy.core.multiarray
scalar
p4
(cnumpy
dtype
p5
(S'f8'
I0
I1
tRp6
(I3
S'<'
NNNI-1
I-1
I0
tbS'%\xce\xd7\xf0 \xf0#@'
tRp7
sS'b'
F48
sS'n_cal'
p8
I9
sS'vel-center'
p9
g4
(g6
S'H\xe2\x9d\xf5,uC\xc0'
tRp10
sS'rec-success'
p11
I01
sS'unixtime'
p12
F1399102822.964808
sS'G_Right'
p13
g4
(g6
S'\xc4\xb8,\x83\xbe]\x00@'
tRp14
sS'l'
g4
(g6
S'\x80m\x02\xb3\xa1a1@'
tRp15
sS'G_Left'
p16
g4
(g6
S'\x88\xeb\xaf\xe4\xb4H\xdf?'
tRp17
sS'T_Sys_Left'
p18
g4
(g6
S'\xf0\xcb\xf8\xed\xe5>q@'
tRp19
sS'jd'
p20
F2456780.8196990741
sS'lst'
p21
g4
(g6
S'\x00 \xfd+\xef\x8a,@'
tRp22
sS'vel-peaks'
p23
cnumpy.core.multiarray
_reconstruct
p24
(cnumpy
ndarray
p25
(I0
tS'b'
tRp26
(I1
(I1
tg6
I00
S'\x9a\xcd\x15\xe2\xb9\xdcC\xc0'
tbsS'grid'
p27
(I24
I56
tp28
sS'fname'
p29
S'data_l_017.38_b_048.00_grid_024_056'
p30
sS'time'
p31
ctime
struct_time
p32
((I2014
I5
I3
I0
I40
I22
I5
I123
I1
t(dtRp33
sS'f_low'
p34
F1268.9000000000001
sS'T_Sys_Right'
p35
g4
(g6
S'\xe2\xadH\xf1*)r@'
tRp36
sS'f_high'
p37
F1271.9000000000001
sS'col-density'
p38
g4
(g6
S'\xa5@\x9dvju5D'
tRp39
s.