(dp1
S'n_obs'
p2
I87
sS'dispersion'
p3
cnumpy.core.multiarray
scalar
p4
(cnumpy
dtype
p5
(S'f8'
I0
I1
tRp6
(I3
S'<'
NNNI-1
I-1
I0
tbS'\xf0\x8c\xdc\x1f\x88v#@'
tRp7
sS'b'
F36
sS'n_cal'
p8
I9
sS'vel-center'
p9
g4
(g6
S';\xb9_\x9d\xe2\xde<\xc0'
tRp10
sS'rec-success'
p11
I01
sS'unixtime'
p12
F1398847468
sS'G_Right'
p13
g4
(g6
S'\x03\x9d\xd9\xc8\x90\xe7\xf8?'
tRp14
sS'l'
g4
(g6
S'y6H\xeb\xecwu@'
tRp15
sS'G_Left'
p16
g4
(g6
S'\x9cA\xfa0\xf9\x8e\xe4?'
tRp17
sS'T_Sys_Left'
p18
g4
(g6
S'\x83\xfa\\\xca\xef$k@'
tRp19
sS'jd'
p20
F2456777.8642129628
sS'lst'
p21
g4
(g6
S'\x00\x80+\xfd|J.@'
tRp22
sS'vel-peaks'
p23
cnumpy.core.multiarray
_reconstruct
p24
(cnumpy
ndarray
p25
(I0
tS'b'
tRp26
(I1
(I1
tg6
I00
S'\xe8\xbbu2B\xf3<\xc0'
tbsS'grid'
p27
(I18
I54
tp28
sS'fname'
p29
S'data_l_343.50_b_036.00_grid_018_054'
p30
sS'time'
p31
ctime
struct_time
p32
((I2014
I4
I30
I1
I44
I28
I2
I120
I1
t(dtRp33
sS'f_low'
p34
F1268.9000000000001
sS'T_Sys_Right'
p35
g4
(g6
S'e}\xf5\x0ee\xead@'
tRp36
sS'f_high'
p37
F1271.9000000000001
sS'col-density'
p38
g4
(g6
S"\x0e\x08\xd5\xdc'`@D"
tRp39
s.