(dp1
S'n_obs'
p2
I87
sS'dispersion'
p3
cnumpy.core.multiarray
scalar
p4
(cnumpy
dtype
p5
(S'f8'
I0
I1
tRp6
(I3
S'<'
NNNI-1
I-1
I0
tbS'Id\xc9\xb1x\r1@'
tRp7
sS'b'
F80
sS'n_cal'
p8
I9
sS'vel-center'
p9
g4
(g6
S'9Av\xa4\t\xbb\x16@'
tRp10
sS'rec-success'
p11
I01
sS'unixtime'
p12
F1399283538.691879
sS'G_Right'
p13
g4
(g6
S'\xba\xe6\xb6@\x96]\xf9?'
tRp14
sS'l'
g4
(g6
S'\xa2EJ\xc8>\xe2r@'
tRp15
sS'G_Left'
p16
g4
(g6
S'\xf7"\xbe\x8aQ/\xe4?'
tRp17
sS'T_Sys_Left'
p18
g4
(g6
S'a]h\x84\xbb\x9an@'
tRp19
sS'jd'
p20
F2456782.9113194444
sS'lst'
p21
g4
(g6
S'\x00\xd0\x80<\x91\x9b0@'
tRp22
sS'vel-peaks'
p23
cnumpy.core.multiarray
_reconstruct
p24
(cnumpy
ndarray
p25
(I0
tS'b'
tRp26
(I1
(I1
tg6
I00
S'iY:\xb7\xb3\xff4@'
tbsS'grid'
p27
(I40
I8
tp28
sS'fname'
p29
S'data_l_302.14_b_080.00_grid_040_008'
p30
sS'time'
p31
ctime
struct_time
p32
((I2014
I5
I5
I2
I52
I18
I0
I125
I1
t(dtRp33
sS'f_low'
p34
F1268.9000000000001
sS'T_Sys_Right'
p35
g4
(g6
S'\x08\x89\xd2\x8b\x11\x02p@'
tRp36
sS'f_high'
p37
F1271.9000000000001
sS'col-density'
p38
g4
(g6
S'P\xde\xec\xf9\xf1W*D'
tRp39
s.