(dp1
S'n_obs'
p2
I87
sS'dispersion'
p3
cnumpy.core.multiarray
scalar
p4
(cnumpy
dtype
p5
(S'f8'
I0
I1
tRp6
(I3
S'<'
NNNI-1
I-1
I0
tbS'\xdf\x80\x96"\x14\xdc\x1b@'
tRp7
sS'b'
F44
sS'n_cal'
p8
I9
sS'vel-center'
p9
g4
(g6
S'\xaa1\x8c\x99O\xa9Q@'
tRp10
sS'rec-success'
p11
I01
sS'unixtime'
p12
F1399096494.459173
sS'G_Right'
p13
g4
(g6
S'\x15\x06}\xd8\x9e\xaa\x00@'
tRp14
sS'l'
g4
(g6
S'X\x03\xaf\x85\xc3\x07m@'
tRp15
sS'G_Left'
p16
g4
(g6
S'`\xa4n\xb5g\xb8\xde?'
tRp17
sS'T_Sys_Left'
p18
g4
(g6
S'\x15\x15\x9f@\x0eHr@'
tRp19
sS'jd'
p20
F2456780.7464583335
sS'lst'
p21
g4
(g6
S'\x00\xa0\xd6\xeb|\x04)@'
tRp22
sS'vel-peaks'
p23
cnumpy.core.multiarray
_reconstruct
p24
(cnumpy
ndarray
p25
(I0
tS'b'
tRp26
(I1
(I1
tg6
I00
S'\x8c\xee\x08N\xad\x8bQ@'
tbsS'grid'
p27
(I22
I8
tp28
sS'fname'
p29
S'data_l_232.24_b_044.00_grid_022_008'
p30
sS'time'
p31
ctime
struct_time
p32
((I2014
I5
I2
I22
I54
I54
I4
I122
I1
t(dtRp33
sS'f_low'
p34
F1268.9000000000001
sS'T_Sys_Right'
p35
g4
(g6
S'\xb2\xc1\xd6N9\x02q@'
tRp36
sS'f_high'
p37
F1271.9000000000001
sS'col-density'
p38
g4
(g6
S'\xaa\xb1%+\xcec.D'
tRp39
s.