(dp1
S'n_obs'
p2
I87
sS'dispersion'
p3
cnumpy.core.multiarray
scalar
p4
(cnumpy
dtype
p5
(S'f8'
I0
I1
tRp6
(I3
S'<'
NNNI-1
I-1
I0
tbS'!\x9bO\xc0\xaa\x86#@'
tRp7
sS'b'
F20
sS'n_cal'
p8
I9
sS'vel-center'
p9
g4
(g6
S'\xe15\xe8y`\x01W@'
tRp10
sS'rec-success'
p11
I01
sS'unixtime'
p12
F1399264692.313746
sS'G_Right'
p13
g4
(g6
S':P\x16\x11\x94E\x00@'
tRp14
sS'l'
g4
(g6
S'\x10\xd4\xb3\xe8\xdb`l@'
tRp15
sS'G_Left'
p16
g4
(g6
S'\x84 \x14\xe7*w\xdf?'
tRp17
sS'T_Sys_Left'
p18
g4
(g6
S"\xcb\x8aB'[Zn@"
tRp19
sS'jd'
p20
F2456782.6931944443
sS'lst'
p21
g4
(g6
S'\x00`3\xe7y\xb7&@'
tRp22
sS'vel-peaks'
p23
cnumpy.core.multiarray
_reconstruct
p24
(cnumpy
ndarray
p25
(I0
tS'b'
tRp26
(I1
(I2
tg6
I00
S'\x9a(\x8d\xbd8(Y@\x18A\x10D\xc0\x06V@'
tbsS'grid'
p27
(I10
I8
tp28
sS'fname'
p29
S'data_l_227.03_b_020.00_grid_010_008'
p30
sS'time'
p31
ctime
struct_time
p32
((I2014
I5
I4
I21
I38
I12
I6
I124
I1
t(dtRp33
sS'f_low'
p34
F1268.9000000000001
sS'T_Sys_Right'
p35
g4
(g6
S'\xcc\xfaU}\xc3Vp@'
tRp36
sS'f_high'
p37
F1271.9000000000001
sS'col-density'
p38
g4
(g6
S'\xee\x85\r(J\x936D'
tRp39
s.