(dp1
S'n_obs'
p2
I87
sS'dispersion'
p3
cnumpy.core.multiarray
scalar
p4
(cnumpy
dtype
p5
(S'f8'
I0
I1
tRp6
(I3
S'<'
NNNI-1
I-1
I0
tbS'\x96\xae\xfdi\xb5\x02!@'
tRp7
sS'b'
F40
sS'n_cal'
p8
I9
sS'vel-center'
p9
g4
(g6
S'\xbb\xc1\xdf\x99\xb6\x05R@'
tRp10
sS'rec-success'
p11
I01
sS'unixtime'
p12
F1399093874.4175041
sS'G_Right'
p13
g4
(g6
S'Sb:\xd9\xb04\x01@'
tRp14
sS'l'
g4
(g6
S'\x96v\x17\xc2F5l@'
tRp15
sS'G_Left'
p16
g4
(g6
S'\xf2\x99\x96\xc9\xe2\xc1\xdd?'
tRp17
sS'T_Sys_Left'
p18
g4
(g6
S'k6\xea\x92Y\xd5o@'
tRp19
sS'jd'
p20
F2456780.7161342595
sS'lst'
p21
g4
(g6
S"\x00\x80\xc0u\xd8\x8e'@"
tRp22
sS'vel-peaks'
p23
cnumpy.core.multiarray
_reconstruct
p24
(cnumpy
ndarray
p25
(I0
tS'b'
tRp26
(I1
(I1
tg6
I00
S'\xc3\x94\x9c\x07}\xe5Q@'
tbsS'grid'
p27
(I20
I6
tp28
sS'fname'
p29
S'data_l_225.66_b_040.00_grid_020_006'
p30
sS'time'
p31
ctime
struct_time
p32
((I2014
I5
I2
I22
I11
I14
I4
I122
I1
t(dtRp33
sS'f_low'
p34
F1268.9000000000001
sS'T_Sys_Right'
p35
g4
(g6
S'e\x86\xdc\t\xdaTq@'
tRp36
sS'f_high'
p37
F1271.9000000000001
sS'col-density'
p38
g4
(g6
S'\x9dH\x0b\x86=\xe61D'
tRp39
s.