(dp1
S'n_obs'
p2
I87
sS'dispersion'
p3
cnumpy.core.multiarray
scalar
p4
(cnumpy
dtype
p5
(S'f8'
I0
I1
tRp6
(I3
S'<'
NNNI-1
I-1
I0
tbS'\\\xc4\x1f\xd9%\xb41@'
tRp7
sS'b'
F12
sS'n_cal'
p8
I9
sS'vel-center'
p9
g4
(g6
S'\xca\x8b\xb3\x88\x95\x18Y@'
tRp10
sS'rec-success'
p11
I01
sS'unixtime'
p12
F1399177933.8269839
sS'G_Right'
p13
g4
(g6
S'\xf3\xfd\xb8[\x01a\xfd?'
tRp14
sS'l'
g4
(g6
S'\xc4(~\x0e\xdc\xc2j@'
tRp15
sS'G_Left'
p16
g4
(g6
S'\xe5\x95\x15\xdamm\xe1?'
tRp17
sS'T_Sys_Left'
p18
g4
(g6
S'\x94o\x9f\xf4\xa3\xefo@'
tRp19
sS'jd'
p20
F2456781.6890393519
sS'lst'
p21
g4
(g6
S'\x00\x80\x9a\x9b\xa2b&@'
tRp22
sS'vel-peaks'
p23
cnumpy.core.multiarray
_reconstruct
p24
(cnumpy
ndarray
p25
(I0
tS'b'
tRp26
(I1
(I1
tg6
I00
S'\x86\x1a\xaa\xc7\xf0\xc3W@'
tbsS'grid'
p27
(I6
I2
tp28
sS'fname'
p29
S'data_l_214.09_b_012.00_grid_006_002'
p30
sS'time'
p31
ctime
struct_time
p32
((I2014
I5
I3
I21
I32
I13
I5
I123
I1
t(dtRp33
sS'f_low'
p34
F1268.9000000000001
sS'T_Sys_Right'
p35
g4
(g6
S'\xd1rMU9\x8fo@'
tRp36
sS'f_high'
p37
F1271.9000000000001
sS'col-density'
p38
g4
(g6
S'\r\x83\x9d\x85I\x0fID'
tRp39
s.