(dp1
S'n_obs'
p2
I87
sS'dispersion'
p3
cnumpy.core.multiarray
scalar
p4
(cnumpy
dtype
p5
(S'f8'
I0
I1
tRp6
(I3
S'<'
NNNI-1
I-1
I0
tbS'\x9d7\x10g\xb8\xef9@'
tRp7
sS'b'
F2
sS'n_cal'
p8
I9
sS'vel-center'
p9
g4
(g6
S'\x07K\x13f\x8a0L\xc0'
tRp10
sS'rec-success'
p11
I01
sS'unixtime'
p12
F1399298930.3770909
sS'G_Right'
p13
g4
(g6
S'\x85\xfc\xf4\xeb#\x08\xfc?'
tRp14
sS'l'
g4
(g6
S'\x80^Yl\xc0\xfe/@'
tRp15
sS'G_Left'
p16
g4
(g6
S'\xa9\xbc\xce/\xd5C\xe2?'
tRp17
sS'T_Sys_Left'
p18
g4
(g6
S'=\xd4\x7fe\xc0\xddp@'
tRp19
sS'jd'
p20
F2456783.0894675925
sS'lst'
p21
g4
(g6
S'\x00\xe0\x0e7\x1b\xe54@'
tRp22
sS'vel-peaks'
p23
cnumpy.core.multiarray
_reconstruct
p24
(cnumpy
ndarray
p25
(I0
tS'b'
tRp26
(I1
(I3
tg6
I00
S'\xc0u3\xebfFJ\xc0\x86\xd5\xbb\xbf\xab\x00Q\xc06^\xd2p>\x08W\xc0'
tbsS'grid'
p27
(I1
I2
tp28
sS'fname'
p29
S'data_l_016.00_b_002.00_grid_001_002'
p30
sS'time'
p31
ctime
struct_time
p32
((I2014
I5
I5
I7
I8
I50
I0
I125
I1
t(dtRp33
sS'f_low'
p34
F1268.9000000000001
sS'T_Sys_Right'
p35
g4
(g6
S'I\xe8\x93d\x11\x9ep@'
tRp36
sS'f_high'
p37
F1271.9000000000001
sS'col-density'
p38
g4
(g6
S'\xbc\x80\xeb!\xf7\xacuD'
tRp39
s.