(dp1
S'n_obs'
p2
I87
sS'dispersion'
p3
cnumpy.core.multiarray
scalar
p4
(cnumpy
dtype
p5
(S'f8'
I0
I1
tRp6
(I3
S'<'
NNNI-1
I-1
I0
tbS'\xeb\xc7L\xbc\xc5\x0e!@'
tRp7
sS'b'
F40
sS'n_cal'
p8
I9
sS'vel-center'
p9
g4
(g6
S'\xa1o1\xef\xda\xf2>\xc0'
tRp10
sS'rec-success'
p11
I01
sS'unixtime'
p12
F1399189015.19807
sS'G_Right'
p13
g4
(g6
S"\xaeK\xe8'o\xae\x00@"
tRp14
sS'l'
g4
(g6
S'\xa9~m4JCv@'
tRp15
sS'G_Left'
p16
g4
(g6
S'\xcc\x97\xea\xbda\xb1\xde?'
tRp17
sS'T_Sys_Left'
p18
g4
(g6
S'\xd61\x15j\x15Vp@'
tRp19
sS'jd'
p20
F2456781.8173032408
sS'lst'
p21
g4
(g6
S'\x00 }\x9d\x0e\x8f,@'
tRp22
sS'vel-peaks'
p23
cnumpy.core.multiarray
_reconstruct
p24
(cnumpy
ndarray
p25
(I0
tS'b'
tRp26
(I1
(I1
tg6
I00
S'\xbe\xa1V"\x8aX@\xc0'
tbsS'grid'
p27
(I20
I56
tp28
sS'fname'
p29
S'data_l_356.21_b_040.00_grid_020_056'
p30
sS'time'
p31
ctime
struct_time
p32
((I2014
I5
I4
I0
I36
I55
I6
I124
I1
t(dtRp33
sS'f_low'
p34
F1268.9000000000001
sS'T_Sys_Right'
p35
g4
(g6
S'\x9e\xda\x9f\xf4W\nq@'
tRp36
sS'f_high'
p37
F1271.9000000000001
sS'col-density'
p38
g4
(g6
S'\xf3F\xc93X@DD'
tRp39
s.