(dp1
S'n_obs'
p2
I87
sS'dispersion'
p3
cnumpy.core.multiarray
scalar
p4
(cnumpy
dtype
p5
(S'f8'
I0
I1
tRp6
(I3
S'<'
NNNI-1
I-1
I0
tbS'9\xdd\x8c\x19\x08t)@'
tRp7
sS'b'
F64
sS'n_cal'
p8
I9
sS'vel-center'
p9
g4
(g6
S'\xc9t\xae\x91b\xc1/\xc0'
tRp10
sS'rec-success'
p11
I01
sS'unixtime'
p12
F1399113986.8011439
sS'G_Right'
p13
g4
(g6
S':\x87q\xc4]\xdd\xfc?'
tRp14
sS'l'
g4
(g6
S'\xa0\x11\xb4\x8f\xeb?v@'
tRp15
sS'G_Left'
p16
g4
(g6
S'\x9aJ\xb2n\xe8\xbc\xe1?'
tRp17
sS'T_Sys_Left'
p18
g4
(g6
S'c\xd0\x9f\xf1\x9aKp@'
tRp19
sS'jd'
p20
F2456780.9489120371
sS'lst'
p21
g4
(g6
S'\x00\xf0\xe8p\x86a1@'
tRp22
sS'vel-peaks'
p23
cnumpy.core.multiarray
_reconstruct
p24
(cnumpy
ndarray
p25
(I0
tS'b'
tRp26
(I1
(I1
tg6
I00
S'L\xf3\x13\x9dUw$\xc0'
tbsS'grid'
p27
(I32
I32
tp28
sS'fname'
p29
S'data_l_356.00_b_064.00_grid_032_032'
p30
sS'time'
p31
ctime
struct_time
p32
((I2014
I5
I3
I3
I46
I26
I5
I123
I1
t(dtRp33
sS'f_low'
p34
F1268.9000000000001
sS'T_Sys_Right'
p35
g4
(g6
S'\xbe\x90~AQ\xb1n@'
tRp36
sS'f_high'
p37
F1271.9000000000001
sS'col-density'
p38
g4
(g6
S'v\xd0\xa9\x903\xdc0D'
tRp39
s.