(dp1
S'n_obs'
p2
I87
sS'dispersion'
p3
cnumpy.core.multiarray
scalar
p4
(cnumpy
dtype
p5
(S'f8'
I0
I1
tRp6
(I3
S'<'
NNNI-1
I-1
I0
tbS'd\x1b\xd3]\x92\xf3\x1f@'
tRp7
sS'b'
F24
sS'n_cal'
p8
I9
sS'vel-center'
p9
g4
(g6
S'\x96xPqcWU@'
tRp10
sS'rec-success'
p11
I01
sS'unixtime'
p12
F1399267046.0169599
sS'G_Right'
p13
g4
(g6
S'v\x14{Y\xec\r\xfb?'
tRp14
sS'l'
g4
(g6
S'\x1c\xff65\x91\xfcl@'
tRp15
sS'G_Left'
p16
g4
(g6
S"\x89'\xaaj\xc2\xec\xe2?"
tRp17
sS'T_Sys_Left'
p18
g4
(g6
S'\x04c\nM\x10\xbbo@'
tRp19
sS'jd'
p20
F2456782.720439815
sS'lst'
p21
g4
(g6
S'\x00\xa0\xd0\x15/\x07(@'
tRp22
sS'vel-peaks'
p23
cnumpy.core.multiarray
_reconstruct
p24
(cnumpy
ndarray
p25
(I0
tS'b'
tRp26
(I1
(I1
tg6
I00
S'\xdc\x1b\x10\xe2\xb5RU@'
tbsS'grid'
p27
(I12
I10
tp28
sS'fname'
p29
S'data_l_231.89_b_024.00_grid_012_010'
p30
sS'time'
p31
ctime
struct_time
p32
((I2014
I5
I4
I22
I17
I26
I6
I124
I1
t(dtRp33
sS'f_low'
p34
F1268.9000000000001
sS'T_Sys_Right'
p35
g4
(g6
S'k\x08zQ\x9e\xe2o@'
tRp36
sS'f_high'
p37
F1271.9000000000001
sS'col-density'
p38
g4
(g6
S'\xcb\x99\x03y\xaa\x0e(D'
tRp39
s.