(dp1
S'n_obs'
p2
I87
sS'dispersion'
p3
cnumpy.core.multiarray
scalar
p4
(cnumpy
dtype
p5
(S'f8'
I0
I1
tRp6
(I3
S'<'
NNNI-1
I-1
I0
tbS'\xb7\xfa\xce\xacip1@'
tRp7
sS'b'
F52
sS'n_cal'
p8
I9
sS'vel-center'
p9
g4
(g6
S'\x1b\xfe*\x0fQ\x18J@'
tRp10
sS'rec-success'
p11
I01
sS'unixtime'
p12
F1399270114.848067
sS'G_Right'
p13
g4
(g6
S've\x9fA\x1b+\xfd?'
tRp14
sS'l'
g4
(g6
S'x~\xf27\xa0\x7fm@'
tRp15
sS'G_Left'
p16
g4
(g6
S'\xc2\xa6\xc1\xe8\xa1\x8d\xe1?'
tRp17
sS'T_Sys_Left'
p18
g4
(g6
S'\xdd\x9c\xd5\x97\xeaPn@'
tRp19
sS'jd'
p20
F2456782.7559490739
sS'lst'
p21
g4
(g6
S'\x00\xc0\xfcb\xb7\xbc)@'
tRp22
sS'vel-peaks'
p23
cnumpy.core.multiarray
_reconstruct
p24
(cnumpy
ndarray
p25
(I0
tS'b'
tRp26
(I1
(I1
tg6
I00
S'6\x02\x0b)\x18(K@'
tbsS'grid'
p27
(I26
I8
tp28
sS'fname'
p29
S'data_l_235.99_b_052.00_grid_026_008'
p30
sS'time'
p31
ctime
struct_time
p32
((I2014
I5
I4
I23
I8
I34
I6
I124
I1
t(dtRp33
sS'f_low'
p34
F1268.9000000000001
sS'T_Sys_Right'
p35
g4
(g6
S'n\xcf\x0f\xe8\xb4\xe3o@'
tRp36
sS'f_high'
p37
F1271.9000000000001
sS'col-density'
p38
g4
(g6
S'\xc0\xbe\x10\xb2\xbc\x914D'
tRp39
s.