(dp1
S'n_obs'
p2
I87
sS'dispersion'
p3
cnumpy.core.multiarray
scalar
p4
(cnumpy
dtype
p5
(S'f8'
I0
I1
tRp6
(I3
S'<'
NNNI-1
I-1
I0
tbS'\x80_eA\xcau\x19@'
tRp7
sS'b'
F84
sS'n_cal'
p8
I9
sS'vel-center'
p9
g4
(g6
S"\xd1J\xfeo\\''@"
tRp10
sS'rec-success'
p11
I01
sS'unixtime'
p12
F1399284731.296876
sS'G_Right'
p13
g4
(g6
S'\xa8w\xb0i\xbe\xdc\xf5?'
tRp14
sS'l'
g4
(g6
S'\x80\x00\x98\x17\xfe\x8b\x08@'
tRp15
sS'G_Left'
p16
g4
(g6
S'\xe4\xfd\x03TYk\xe7?'
tRp17
sS'T_Sys_Left'
p18
g4
(g6
S'{)\x17\xcb\xff%o@'
tRp19
sS'jd'
p20
F2456782.9251273149
sS'lst'
p21
g4
(g6
S'\x00P\xaf\x99\xa2\xf00@'
tRp22
sS'vel-peaks'
p23
cnumpy.core.multiarray
_reconstruct
p24
(cnumpy
ndarray
p25
(I0
tS'b'
tRp26
(I1
(I0
tg6
I00
S''
tbsS'grid'
p27
(I42
I8
tp28
sS'fname'
p29
S'data_l_003.07_b_084.00_grid_042_008'
p30
sS'time'
p31
ctime
struct_time
p32
((I2014
I5
I5
I3
I12
I11
I0
I125
I1
t(dtRp33
sS'f_low'
p34
F1268.9000000000001
sS'T_Sys_Right'
p35
g4
(g6
S'i\x80@\x99\x97\x9cn@'
tRp36
sS'f_high'
p37
F1271.9000000000001
sS'col-density'
p38
g4
(g6
S'\xa8\xebj\x043#\x11D'
tRp39
s.