(dp1
S'n_obs'
p2
I87
sS'dispersion'
p3
cnumpy.core.multiarray
scalar
p4
(cnumpy
dtype
p5
(S'f8'
I0
I1
tRp6
(I3
S'<'
NNNI-1
I-1
I0
tbS'\x08\x1c\x96\xf6\xebF%@'
tRp7
sS'b'
F10
sS'n_cal'
p8
I9
sS'vel-center'
p9
g4
(g6
S'%B\x06\xbe2=O\xc0'
tRp10
sS'rec-success'
p11
I01
sS'unixtime'
p12
F1399299626.664875
sS'G_Right'
p13
g4
(g6
S'><\x12}\xc4\xeb\xf8?'
tRp14
sS'l'
F20
sS'G_Left'
p15
g4
(g6
S'\xf8A\xbf\xca\x81\x8b\xe4?'
tRp16
sS'T_Sys_Left'
p17
g4
(g6
S'}G<a\x8a\x85n@'
tRp18
sS'jd'
p19
F2456783.0975231482
sS'lst'
p20
g4
(g6
S'\x00@\xda2\xbc\x165@'
tRp21
sS'vel-peaks'
p22
cnumpy.core.multiarray
_reconstruct
p23
(cnumpy
ndarray
p24
(I0
tS'b'
tRp25
(I1
(I1
tg6
I00
S'\x94\xb6)\xc7\xdb\xa5P\xc0'
tbsS'grid'
p26
(I5
I0
tp27
sS'fname'
p28
S'data_l_020.00_b_010.00_grid_005_000'
p29
sS'time'
p30
ctime
struct_time
p31
((I2014
I5
I5
I7
I20
I26
I0
I125
I1
t(dtRp32
sS'f_low'
p33
F1268.9000000000001
sS'T_Sys_Right'
p34
g4
(g6
S'd;a5\xe1\xcdo@'
tRp35
sS'f_high'
p36
F1271.9000000000001
sS'col-density'
p37
g4
(g6
S'\xfc\xcb\xc8Hv\xcb\\D'
tRp38
s.