(dp1
S'n_obs'
p2
I87
sS'dispersion'
p3
cnumpy.core.multiarray
scalar
p4
(cnumpy
dtype
p5
(S'f8'
I0
I1
tRp6
(I3
S'<'
NNNI-1
I-1
I0
tbS'k\x9bU!\xbd\x1d5@'
tRp7
sS'b'
F44
sS'n_cal'
p8
I9
sS'vel-center'
p9
g4
(g6
S'\xe0\x00\x04Q\xee\xc8/@'
tRp10
sS'rec-success'
p11
I01
sS'unixtime'
p12
F1399190780.9998469
sS'G_Right'
p13
g4
(g6
S'\xb0n\xd9x\x1c)\x00@'
tRp14
sS'l'
g4
(g6
S'$\xe7\x13|\x7f\x08s@'
tRp15
sS'G_Left'
p16
g4
(g6
S'\x91O\x179\x98\xae\xdf?'
tRp17
sS'T_Sys_Left'
p18
g4
(g6
S'\xd3\xafU\t\xe3\xcfo@'
tRp19
sS'jd'
p20
F2456781.8377314815
sS'lst'
p21
g4
(g6
S'\x00\x800?\xc4\x8a-@'
tRp22
sS'vel-peaks'
p23
cnumpy.core.multiarray
_reconstruct
p24
(cnumpy
ndarray
p25
(I0
tS'b'
tRp26
(I1
(I1
tg6
I00
S'\xf1\x19@\x85\x95\xfb1@'
tbsS'grid'
p27
(I22
I34
tp28
sS'fname'
p29
S'data_l_304.53_b_044.00_grid_022_034'
p30
sS'time'
p31
ctime
struct_time
p32
((I2014
I5
I4
I1
I6
I20
I6
I124
I1
t(dtRp33
sS'f_low'
p34
F1268.9000000000001
sS'T_Sys_Right'
p35
g4
(g6
S's\xc6H\x80/\x94o@'
tRp36
sS'f_high'
p37
F1271.9000000000001
sS'col-density'
p38
g4
(g6
S'\xab,\x16a\xc3\x0f@D'
tRp39
s.