(dp1
S'n_obs'
p2
I87
sS'dispersion'
p3
cnumpy.core.multiarray
scalar
p4
(cnumpy
dtype
p5
(S'f8'
I0
I1
tRp6
(I3
S'<'
NNNI-1
I-1
I0
tbS"\xa09\x936\xf8\xd7'@"
tRp7
sS'b'
F44
sS'n_cal'
p8
I9
sS'vel-center'
p9
g4
(g6
S'\xb6c\xb2\x96\xfc\xb2#\xc0'
tRp10
sS'rec-success'
p11
I01
sS'unixtime'
p12
F1399192026.7085271
sS'G_Right'
p13
g4
(g6
S'$\x05\xec\xf8\xe9\x1a\x00@'
tRp14
sS'l'
g4
(g6
S'@I\xa1\xafY\xc5t@'
tRp15
sS'G_Left'
p16
g4
(g6
S'8\x87d\x02\x86\xca\xdf?'
tRp17
sS'T_Sys_Left'
p18
g4
(g6
S'\xd5+#j\xb5%o@'
tRp19
sS'jd'
p20
F2456781.8521527778
sS'lst'
p21
g4
(g6
S'\x00\xa0\xd1\xedu<.@'
tRp22
sS'vel-peaks'
p23
cnumpy.core.multiarray
_reconstruct
p24
(cnumpy
ndarray
p25
(I0
tS'b'
tRp26
(I1
(I1
tg6
I00
S'\xdcm\x87\xacy\xb5$\xc0'
tbsS'grid'
p27
(I22
I44
tp28
sS'fname'
p29
S'data_l_332.33_b_044.00_grid_022_044'
p30
sS'time'
p31
ctime
struct_time
p32
((I2014
I5
I4
I1
I27
I6
I6
I124
I1
t(dtRp33
sS'f_low'
p34
F1268.9000000000001
sS'T_Sys_Right'
p35
g4
(g6
S']\xaf\x98\x1f\x7f\xc9p@'
tRp36
sS'f_high'
p37
F1271.9000000000001
sS'col-density'
p38
g4
(g6
S'j>O3\x068CD'
tRp39
s.