(dp1
S'n_obs'
p2
I87
sS'dispersion'
p3
cnumpy.core.multiarray
scalar
p4
(cnumpy
dtype
p5
(S'f8'
I0
I1
tRp6
(I3
S'<'
NNNI-1
I-1
I0
tbS'\xef\xb9\xcf\x9eNa!@'
tRp7
sS'b'
F40
sS'n_cal'
p8
I9
sS'vel-center'
p9
g4
(g6
S'\xc6\xf7\x99\x99S,Q@'
tRp10
sS'rec-success'
p11
I01
sS'unixtime'
p12
F1399186572.015959
sS'G_Right'
p13
g4
(g6
S'\x195\xc1\x1f6\xda\xff?'
tRp14
sS'l'
g4
(g6
S',\xed.\x84\x8d*n@'
tRp15
sS'G_Left'
p16
g4
(g6
S'y\xde\x7fZ\xfb\x12\xe0?'
tRp17
sS'T_Sys_Left'
p18
g4
(g6
S'\x19\xa5\xcf0}\xdfn@'
tRp19
sS'jd'
p20
F2456781.7890277775
sS'lst'
p21
g4
(g6
S'\x00\xe0\x8a+\xa82+@'
tRp22
sS'vel-peaks'
p23
cnumpy.core.multiarray
_reconstruct
p24
(cnumpy
ndarray
p25
(I0
tS'b'
tRp26
(I1
(I1
tg6
I00
S'\xb8\xaa\xff\xa9g*Q@'
tbsS'grid'
p27
(I20
I12
tp28
sS'fname'
p29
S'data_l_241.33_b_040.00_grid_020_012'
p30
sS'time'
p31
ctime
struct_time
p32
((I2014
I5
I3
I23
I56
I12
I5
I123
I1
t(dtRp33
sS'f_low'
p34
F1268.9000000000001
sS'T_Sys_Right'
p35
g4
(g6
S'%\x82\xd98\x84\xfbo@'
tRp36
sS'f_high'
p37
F1271.9000000000001
sS'col-density'
p38
g4
(g6
S'8\xd3\xd4\x9e\x03\xf22D'
tRp39
s.