(dp1
S'n_obs'
p2
I87
sS'dispersion'
p3
cnumpy.core.multiarray
scalar
p4
(cnumpy
dtype
p5
(S'f8'
I0
I1
tRp6
(I3
S'<'
NNNI-1
I-1
I0
tbS'\x96\xac\xaa\xdb\xc0\xc8,@'
tRp7
sS'b'
F6
sS'n_cal'
p8
I9
sS'vel-center'
p9
g4
(g6
S',\x97\xcda\xf5\xccN\xc0'
tRp10
sS'rec-success'
p11
I01
sS'unixtime'
p12
F1399286008.461689
sS'G_Right'
p13
g4
(g6
S'\x8di\x18\r2L\x01@'
tRp14
sS'l'
g4
(g6
S'\xc0\xd5\xce\x04.\xfd1@'
tRp15
sS'G_Left'
p16
g4
(g6
S'WF\x8bOs\x99\xdd?'
tRp17
sS'T_Sys_Left'
p18
g4
(g6
S'\xd0)W\xee\xbeGo@'
tRp19
sS'jd'
p20
F2456782.9399074074
sS'lst'
p21
g4
(g6
S'\x00\xf0\xfbR\xb1K1@'
tRp22
sS'vel-peaks'
p23
cnumpy.core.multiarray
_reconstruct
p24
(cnumpy
ndarray
p25
(I0
tS'b'
tRp26
(I1
(I2
tg6
I00
S'\x00\x00\x81\xee\xd7SL\xc0\xbf\xbd\xcbO\xb5-Q\xc0'
tbsS'grid'
p27
(I3
I1
tp28
sS'fname'
p29
S'data_l_017.99_b_006.00_grid_003_001'
p30
sS'time'
p31
ctime
struct_time
p32
((I2014
I5
I5
I3
I33
I28
I0
I125
I1
t(dtRp33
sS'f_low'
p34
F1268.9000000000001
sS'T_Sys_Right'
p35
g4
(g6
S'\xd8+\xf5\x16\xbc\xa5p@'
tRp36
sS'f_high'
p37
F1271.9000000000001
sS'col-density'
p38
g4
(g6
S'M\xec\xba\xc6\x8b\xb3fD'
tRp39
s.