(dp1
S'n_obs'
p2
I87
sS'dispersion'
p3
cnumpy.core.multiarray
scalar
p4
(cnumpy
dtype
p5
(S'f8'
I0
I1
tRp6
(I3
S'<'
NNNI-1
I-1
I0
tbS'++M>\x8cP,@'
tRp7
sS'b'
F76
sS'n_cal'
p8
I9
sS'vel-center'
p9
g4
(g6
S'\xe5H\xdc<\xd3-\x02@'
tRp10
sS'rec-success'
p11
I01
sS'unixtime'
p12
F1399282970.388293
sS'G_Right'
p13
g4
(g6
S'\x00\x8f\xd7[\xbca\xf9?'
tRp14
sS'l'
g4
(g6
S'\xdcZ\x03\\\xd6[t@'
tRp15
sS'G_Left'
p16
g4
(g6
S'\x1f\xd94\xe7\x04,\xe4?'
tRp17
sS'T_Sys_Left'
p18
g4
(g6
S'\xbc\x8b\xa3\x03\x83\x0fn@'
tRp19
sS'jd'
p20
F2456782.9047453701
sS'lst'
p21
g4
(g6
S'\x00`\x1f\xcd\x10s0@'
tRp22
sS'vel-peaks'
p23
cnumpy.core.multiarray
_reconstruct
p24
(cnumpy
ndarray
p25
(I0
tS'b'
tRp26
(I1
(I1
tg6
I00
S'\x04\xc0\x8c\xaav\xcb*@'
tbsS'grid'
p27
(I38
I14
tp28
sS'fname'
p29
S'data_l_325.74_b_076.00_grid_038_014'
p30
sS'time'
p31
ctime
struct_time
p32
((I2014
I5
I5
I2
I42
I50
I0
I125
I1
t(dtRp33
sS'f_low'
p34
F1268.9000000000001
sS'T_Sys_Right'
p35
g4
(g6
S')T\x93\xdbZ\xf0n@'
tRp36
sS'f_high'
p37
F1271.9000000000001
sS'col-density'
p38
g4
(g6
S'\xa5#9\x11\xd9n,D'
tRp39
s.