(dp1
S'n_obs'
p2
I174
sS'dispersion'
p3
cnumpy.core.multiarray
scalar
p4
(cnumpy
dtype
p5
(S'f8'
I0
I1
tRp6
(I3
S'<'
NNNI-1
I-1
I0
tbS'\xcb\xdb\x81\xc9\xaa\xa33@'
tRp7
sS'b'
F2
sS'fname'
p8
S'data_l_215.90_b_002.00_grid_001_082'
p9
sS'vel-center'
p10
g4
(g6
S',\xa1\x05|\xba\x94]@'
tRp11
sS'rec-success'
p12
I01
sS'unixtime'
p13
F1398572220
sS'G_Right'
p14
g4
(g6
S'\xdc&,\x1d\x8d\xf7\xf1?'
tRp15
sS'l'
g4
(g6
S'\x13\x02\xa5\x15\xcd\xfcj@'
tRp16
sS'G_Left'
p17
g4
(g6
S"\xdet\x88H'\x7f\xec?"
tRp18
sS'T_Sys_Left'
p19
g4
(g6
S'\xad(\xb7\x03T\x08s@'
tRp20
sS'jd'
p21
F2456774.6784722223
sS'lst'
p22
g4
(g6
S'\x00@\xf6@\xed\xf4$@'
tRp23
sS'vel-peaks'
p24
cnumpy.core.multiarray
_reconstruct
p25
(cnumpy
ndarray
p26
(I0
tS'b'
tRp27
(I1
(I3
tg6
I00
S'J\xde\x8b?\xc9\xd3`@h\xe5\x9c\xb4\xc9o\\@\x14\xa8\xe8m\xbd\xaeW@'
tbsS'grid'
p28
(I1
I82
tp29
sS'n_cal'
p30
I18
sS'time'
p31
ctime
struct_time
p32
((I2014
I4
I26
I21
I17
I0
I5
I116
I1
t(dtRp33
sS'f_low'
p34
F1268.9000000000001
sS'T_Sys_Right'
p35
g4
(g6
S'a-\x8d>dCm@'
tRp36
sS'f_high'
p37
F1271.9000000000001
sS'col-density'
p38
g4
(g6
S'\x94C/\xd2\x9d]rD'
tRp39
s.