(dp1
S'n_obs'
p2
I87
sS'dispersion'
p3
cnumpy.core.multiarray
scalar
p4
(cnumpy
dtype
p5
(S'f8'
I0
I1
tRp6
(I3
S'<'
NNNI-1
I-1
I0
tbS"\x16K\xd7J\xab\x89'@"
tRp7
sS'b'
F52
sS'n_cal'
p8
I9
sS'vel-center'
p9
g4
(g6
S'<\x90E\xdaM\xc6B@'
tRp10
sS'rec-success'
p11
I01
sS'unixtime'
p12
F1399104066.5759001
sS'G_Right'
p13
g4
(g6
S'&\xadr1\x7f\x1a\x01@'
tRp14
sS'l'
g4
(g6
S'E\xce\xf0>\x94\xc7p@'
tRp15
sS'G_Left'
p16
g4
(g6
S'\xab\xca\xd1\x8eu\xef\xdd?'
tRp17
sS'T_Sys_Left'
p18
g4
(g6
S'\xf1X\x03\xe6\xf7*o@'
tRp19
sS'jd'
p20
F2456780.8340972224
sS'lst'
p21
g4
(g6
S'\x00\x80T\xd6W<-@'
tRp22
sS'vel-peaks'
p23
cnumpy.core.multiarray
_reconstruct
p24
(cnumpy
ndarray
p25
(I0
tS'b'
tRp26
(I1
(I1
tg6
I00
S'\xd6$\xab\xfa\x9d\xf4E@'
tbsS'grid'
p27
(I26
I18
tp28
sS'fname'
p29
S'data_l_268.47_b_052.00_grid_026_018'
p30
sS'time'
p31
ctime
struct_time
p32
((I2014
I5
I3
I1
I1
I6
I5
I123
I1
t(dtRp33
sS'f_low'
p34
F1268.9000000000001
sS'T_Sys_Right'
p35
g4
(g6
S'4\x94\xad\xdd\x91sq@'
tRp36
sS'f_high'
p37
F1271.9000000000001
sS'col-density'
p38
g4
(g6
S'\xe0Z\xf8\x96\xb9\xc8$D'
tRp39
s.