(dp1
S'n_obs'
p2
I87
sS'dispersion'
p3
cnumpy.core.multiarray
scalar
p4
(cnumpy
dtype
p5
(S'f8'
I0
I1
tRp6
(I3
S'<'
NNNI-1
I-1
I0
tbS'\xb7\xda:\x1cQ\xbe!@'
tRp7
sS'b'
F40
sS'n_cal'
p8
I9
sS'vel-center'
p9
g4
(g6
S'\xad\t\xdd\xbc\x9d*7\xc0'
tRp10
sS'rec-success'
p11
I01
sS'unixtime'
p12
F1399188506.988672
sS'G_Right'
p13
g4
(g6
S'J\x0f\xce<\xbc\\\x01@'
tRp14
sS'l'
g4
(g6
S'y\xace\x9e2\x9cu@'
tRp15
sS'G_Left'
p16
g4
(g6
S'\xf2d\xa6\xce@}\xdd?'
tRp17
sS'T_Sys_Left'
p18
g4
(g6
S'\xf3\xba\x90\xf5\xd6\x16n@'
tRp19
sS'jd'
p20
F2456781.8114120369
sS'lst'
p21
g4
(g6
S'\x00\xc0;\xc0wF,@'
tRp22
sS'vel-peaks'
p23
cnumpy.core.multiarray
_reconstruct
p24
(cnumpy
ndarray
p25
(I0
tS'b'
tRp26
(I1
(I1
tg6
I00
S'J\xe1\xb4`\n,8\xc0'
tbsS'grid'
p27
(I20
I52
tp28
sS'fname'
p29
S'data_l_345.76_b_040.00_grid_020_052'
p30
sS'time'
p31
ctime
struct_time
p32
((I2014
I5
I4
I0
I28
I26
I6
I124
I1
t(dtRp33
sS'f_low'
p34
F1268.9000000000001
sS'T_Sys_Right'
p35
g4
(g6
S'\x1e_\xa6N\xcb{p@'
tRp36
sS'f_high'
p37
F1271.9000000000001
sS'col-density'
p38
g4
(g6
S'K\xc6\x84\xdb\r\xceDD'
tRp39
s.