(dp1
S'n_obs'
p2
I87
sS'dispersion'
p3
cnumpy.core.multiarray
scalar
p4
(cnumpy
dtype
p5
(S'f8'
I0
I1
tRp6
(I3
S'<'
NNNI-1
I-1
I0
tbS'\xb3A\x81L\xea\xe1&@'
tRp7
sS'b'
F20
sS'n_cal'
p8
I9
sS'vel-center'
p9
g4
(g6
S'\xae:\xack]/V@'
tRp10
sS'rec-success'
p11
I01
sS'unixtime'
p12
F1399265224.9905889
sS'G_Right'
p13
g4
(g6
S'\xdco#,\x1a\xed\xfe?'
tRp14
sS'l'
g4
(g6
S'\x18\xbe\r\xddIqm@'
tRp15
sS'G_Left'
p16
g4
(g6
S'\x97\xd2\xa7\xac8\x8e\xe0?'
tRp17
sS'T_Sys_Left'
p18
g4
(g6
S'\xdf\x0b7w\x18\xcap@'
tRp19
sS'jd'
p20
F2456782.6993518518
sS'lst'
p21
g4
(g6
S"\x00\x80\xe5vX\x03'@"
tRp22
sS'vel-peaks'
p23
cnumpy.core.multiarray
_reconstruct
p24
(cnumpy
ndarray
p25
(I0
tS'b'
tRp26
(I1
(I1
tg6
I00
S'\xaa\xdb3\xe9LjU@'
tbsS'grid'
p27
(I10
I12
tp28
sS'fname'
p29
S'data_l_235.54_b_020.00_grid_010_012'
p30
sS'time'
p31
ctime
struct_time
p32
((I2014
I5
I4
I21
I47
I4
I6
I124
I1
t(dtRp33
sS'f_low'
p34
F1268.9000000000001
sS'T_Sys_Right'
p35
g4
(g6
S'u h\xbauBp@'
tRp36
sS'f_high'
p37
F1271.9000000000001
sS'col-density'
p38
g4
(g6
S'\xb6\x98\xf9\x82Q\xe25D'
tRp39
s.