(dp1
S'n_obs'
p2
I87
sS'dispersion'
p3
cnumpy.core.multiarray
scalar
p4
(cnumpy
dtype
p5
(S'f8'
I0
I1
tRp6
(I3
S'<'
NNNI-1
I-1
I0
tbS'\xca\x88z\xd1\xa3\xe5(@'
tRp7
sS'b'
F52
sS'n_cal'
p8
I9
sS'vel-center'
p9
g4
(g6
S'L\x1d\xc0D\x98(8@'
tRp10
sS'rec-success'
p11
I01
sS'unixtime'
p12
F1399104819.452143
sS'G_Right'
p13
g4
(g6
S'\xe7\x8f\x11\x93E\x98\x00@'
tRp14
sS'l'
g4
(g6
S'\xaf\xbd\xebSp\xffq@'
tRp15
sS'G_Left'
p16
g4
(g6
S'YpNM_\xda\xde?'
tRp17
sS'T_Sys_Left'
p18
g4
(g6
S'!@n\x15Qsp@'
tRp19
sS'jd'
p20
F2456780.8428125
sS'lst'
p21
g4
(g6
S'\x00\xa0\xc2\xca\xba\xa7-@'
tRp22
sS'vel-peaks'
p23
cnumpy.core.multiarray
_reconstruct
p24
(cnumpy
ndarray
p25
(I0
tS'b'
tRp26
(I1
(I2
tg6
I00
S'\x83\x9et\xd7\x0f\x9f@@\xba\xcdGZ\xa8\x1f(@'
tbsS'grid'
p27
(I26
I24
tp28
sS'fname'
p29
S'data_l_287.96_b_052.00_grid_026_024'
p30
sS'time'
p31
ctime
struct_time
p32
((I2014
I5
I3
I1
I13
I39
I5
I123
I1
t(dtRp33
sS'f_low'
p34
F1268.9000000000001
sS'T_Sys_Right'
p35
g4
(g6
S'm\xe2\xe7\xb6\x0f\xc1p@'
tRp36
sS'f_high'
p37
F1271.9000000000001
sS'col-density'
p38
g4
(g6
S'\x82\x0b\x04\t)\x945D'
tRp39
s.