(dp1
S'n_obs'
p2
I87
sS'dispersion'
p3
cnumpy.core.multiarray
scalar
p4
(cnumpy
dtype
p5
(S'f8'
I0
I1
tRp6
(I3
S'<'
NNNI-1
I-1
I0
tbS'\xb4\xb1\xdb\x1bI\x0b%@'
tRp7
sS'b'
F48
sS'n_cal'
p8
I9
sS'vel-center'
p9
g4
(g6
S'W\xa4\x03>\x0c\x04/\xc0'
tRp10
sS'rec-success'
p11
I01
sS'unixtime'
p12
F1399195755.3946321
sS'G_Right'
p13
g4
(g6
S' \x8aOdf\x1e\xf8?'
tRp14
sS'l'
g4
(g6
S'\xd0\xb0\\\x159Xu@'
tRp15
sS'G_Left'
p16
g4
(g6
S'\xbd\x96\x14\xb6q:\xe5?'
tRp17
sS'T_Sys_Left'
p18
g4
(g6
S'D \xdb\x9f\x1d\xa8q@'
tRp19
sS'jd'
p20
F2456781.8953125002
sS'lst'
p21
g4
(g6
S'\x00p\x043!(0@'
tRp22
sS'vel-peaks'
p23
cnumpy.core.multiarray
_reconstruct
p24
(cnumpy
ndarray
p25
(I0
tS'b'
tRp26
(I1
(I1
tg6
I00
S'J\xa0\xda\x0bJ\x8b)\xc0'
tbsS'grid'
p27
(I24
I44
tp28
sS'fname'
p29
S'data_l_341.51_b_048.00_grid_024_044'
p30
sS'time'
p31
ctime
struct_time
p32
((I2014
I5
I4
I2
I29
I15
I6
I124
I1
t(dtRp33
sS'f_low'
p34
F1268.9000000000001
sS'T_Sys_Right'
p35
g4
(g6
S'V\xd2\xcaj\xd9\xb9o@'
tRp36
sS'f_high'
p37
F1271.9000000000001
sS'col-density'
p38
g4
(g6
S'\x7f\x88\x9dn\x8e\x0c=D'
tRp39
s.