(dp1
S'n_obs'
p2
I87
sS'dispersion'
p3
cnumpy.core.multiarray
scalar
p4
(cnumpy
dtype
p5
(S'f8'
I0
I1
tRp6
(I3
S'<'
NNNI-1
I-1
I0
tbS'D,\rg\xaf\xf5\x1f@'
tRp7
sS'b'
F20
sS'n_cal'
p8
I9
sS'vel-center'
p9
g4
(g6
S'7\xf2br\\XM\xc0'
tRp10
sS'rec-success'
p11
I01
sS'unixtime'
p12
F1399298345.305814
sS'G_Right'
p13
g4
(g6
S'\xa4vDSk>\xfb?'
tRp14
sS'l'
g4
(g6
S'\xe0\x9c\xca\xe6\x00\x030@'
tRp15
sS'G_Left'
p16
g4
(g6
S'\x9f\xf1\x14d\x12\xcb\xe2?'
tRp17
sS'T_Sys_Left'
p18
g4
(g6
S'\x91oX:\x9e.p@'
tRp19
sS'jd'
p20
F2456783.0826967591
sS'lst'
p21
g4
(g6
S'\x00\xd0\x13ud\xbb4@'
tRp22
sS'vel-peaks'
p23
cnumpy.core.multiarray
_reconstruct
p24
(cnumpy
ndarray
p25
(I0
tS'b'
tRp26
(I1
(I1
tg6
I00
S'8\t>\xdb\xb0\x17M\xc0'
tbsS'grid'
p27
(I10
I78
tp28
sS'fname'
p29
S'data_l_016.01_b_020.00_grid_010_078'
p30
sS'time'
p31
ctime
struct_time
p32
((I2014
I5
I5
I6
I59
I5
I0
I125
I1
t(dtRp33
sS'f_low'
p34
F1268.9000000000001
sS'T_Sys_Right'
p35
g4
(g6
S'\xd7v\xa4W\x07\x0bp@'
tRp36
sS'f_high'
p37
F1271.9000000000001
sS'col-density'
p38
g4
(g6
S'\xaf\x84\xcb\xf0/wPD'
tRp39
s.