(dp1
S'n_obs'
p2
I87
sS'dispersion'
p3
cnumpy.core.multiarray
scalar
p4
(cnumpy
dtype
p5
(S'f8'
I0
I1
tRp6
(I3
S'<'
NNNI-1
I-1
I0
tbS"qX\xb6=\x1a\x1b'@"
tRp7
sS'b'
F76
sS'n_cal'
p8
I9
sS'vel-center'
p9
g4
(g6
S'v\\r\xa1\x81\x910@'
tRp10
sS'rec-success'
p11
I01
sS'unixtime'
p12
F1399282511.1124749
sS'G_Right'
p13
g4
(g6
S'\xcb\xfdy\xf3\x89}\xf9?'
tRp14
sS'l'
g4
(g6
S'T\x1cp\xaf\xbdJr@'
tRp15
sS'G_Left'
p16
g4
(g6
S'\x1b\xc2\x02\\\x04\x16\xe4?'
tRp17
sS'T_Sys_Left'
p18
g4
(g6
S'VS+j8\xb6o@'
tRp19
sS'jd'
p20
F2456782.8994328706
sS'lst'
p21
g4
(g6
S'\x00\x90\x99\x15VR0@'
tRp22
sS'vel-peaks'
p23
cnumpy.core.multiarray
_reconstruct
p24
(cnumpy
ndarray
p25
(I0
tS'b'
tRp26
(I1
(I1
tg6
I00
S'E\xa8\x8f\xcbG\xa16@'
tbsS'grid'
p27
(I38
I10
tp28
sS'fname'
p29
S'data_l_292.67_b_076.00_grid_038_010'
p30
sS'time'
p31
ctime
struct_time
p32
((I2014
I5
I5
I2
I35
I11
I0
I125
I1
t(dtRp33
sS'f_low'
p34
F1268.9000000000001
sS'T_Sys_Right'
p35
g4
(g6
S'\x18\x1c\xe0\x8d\x1dXo@'
tRp36
sS'f_high'
p37
F1271.9000000000001
sS'col-density'
p38
g4
(g6
S'\xf2F\x04\xfd\x86\x01-D'
tRp39
s.