(dp1
S'n_obs'
p2
I87
sS'dispersion'
p3
cnumpy.core.multiarray
scalar
p4
(cnumpy
dtype
p5
(S'f8'
I0
I1
tRp6
(I3
S'<'
NNNI-1
I-1
I0
tbS'\x94\x06\xc2\xf9\xb0~+@'
tRp7
sS'b'
F56
sS'n_cal'
p8
I9
sS'vel-center'
p9
g4
(g6
S'ox\xa7\xa9\x83\xd8/\xc0'
tRp10
sS'rec-success'
p11
I01
sS'unixtime'
p12
F1399110270.649446
sS'G_Right'
p13
g4
(g6
S'\x1e+\x96,4\x9a\x01@'
tRp14
sS'l'
g4
(g6
S'\xd6\x99\x97\t\x90\x9eu@'
tRp15
sS'G_Left'
p16
g4
(g6
S'\xb7\x15\xa1[F\x16\xdd?'
tRp17
sS'T_Sys_Left'
p18
g4
(g6
S'5\xac\x8d\xa6\x9d8p@'
tRp19
sS'jd'
p20
F2456780.9059027778
sS'lst'
p21
g4
(g6
S'\x000\x1d\x83\x8dX0@'
tRp22
sS'vel-peaks'
p23
cnumpy.core.multiarray
_reconstruct
p24
(cnumpy
ndarray
p25
(I0
tS'b'
tRp26
(I1
(I1
tg6
I00
S'\xea\xa2\x86\x02\x08\xd7$\xc0'
tbsS'grid'
p27
(I28
I38
tp28
sS'fname'
p29
S'data_l_345.91_b_056.00_grid_028_038'
p30
sS'time'
p31
ctime
struct_time
p32
((I2014
I5
I3
I2
I44
I30
I5
I123
I1
t(dtRp33
sS'f_low'
p34
F1268.9000000000001
sS'T_Sys_Right'
p35
g4
(g6
S'\\S\x0e\xf9\x87\xe7p@'
tRp36
sS'f_high'
p37
F1271.9000000000001
sS'col-density'
p38
g4
(g6
S'k\xbfSy\x9bN8D'
tRp39
s.