(dp1
S'n_obs'
p2
I87
sS'dispersion'
p3
cnumpy.core.multiarray
scalar
p4
(cnumpy
dtype
p5
(S'f8'
I0
I1
tRp6
(I3
S'<'
NNNI-1
I-1
I0
tbS'\xd7\xb4\xfe\xa8\xde\xdf\x1f@'
tRp7
sS'b'
F56
sS'n_cal'
p8
I9
sS'vel-center'
p9
g4
(g6
S'\x9c\t#L\xa6JL@'
tRp10
sS'rec-success'
p11
I01
sS'unixtime'
p12
F1399270843.225738
sS'G_Right'
p13
g4
(g6
S'1\x13y\xbc\xfcM\xfe?'
tRp14
sS'l'
g4
(g6
S'HVH{\xcd\tl@'
tRp15
sS'G_Left'
p16
g4
(g6
S'5\x92\x0c\x86%\xe5\xe0?'
tRp17
sS'T_Sys_Left'
p18
g4
(g6
S'\xa6\xfc0Qn4n@'
tRp19
sS'jd'
p20
F2456782.7643865738
sS'lst'
p21
g4
(g6
S'\x00`\xd5"\xae$*@'
tRp22
sS'vel-peaks'
p23
cnumpy.core.multiarray
_reconstruct
p24
(cnumpy
ndarray
p25
(I0
tS'b'
tRp26
(I1
(I1
tg6
I00
S'\xc2a\xdb\xff;@L@'
tbsS'grid'
p27
(I28
I4
tp28
sS'fname'
p29
S'data_l_224.31_b_056.00_grid_028_004'
p30
sS'time'
p31
ctime
struct_time
p32
((I2014
I5
I4
I23
I20
I43
I6
I124
I1
t(dtRp33
sS'f_low'
p34
F1268.9000000000001
sS'T_Sys_Right'
p35
g4
(g6
S'mw\x12(;\x1ep@'
tRp36
sS'f_high'
p37
F1271.9000000000001
sS'col-density'
p38
g4
(g6
S'\xb7\x8biB\xde.-D'
tRp39
s.