(dp1
S'n_obs'
p2
I87
sS'dispersion'
p3
cnumpy.core.multiarray
scalar
p4
(cnumpy
dtype
p5
(S'f8'
I0
I1
tRp6
(I3
S'<'
NNNI-1
I-1
I0
tbS'\xe3\xa4\xf7]\x18\xee)@'
tRp7
sS'b'
F40
sS'n_cal'
p8
I9
sS'vel-center'
p9
g4
(g6
S'mV/&\xb2d\x0e\xc0'
tRp10
sS'rec-success'
p11
I01
sS'unixtime'
p12
F1399188247.640491
sS'G_Right'
p13
g4
(g6
S'$F\xb8m?\x0f\x00@'
tRp14
sS'l'
g4
(g6
S'\x19\x08Vr\x03Nt@'
tRp15
sS'G_Left'
p16
g4
(g6
S'\x91\r\xca\x18\x9e\xe1\xdf?'
tRp17
sS'T_Sys_Left'
p18
g4
(g6
S'\xc4\xbd\xe6L\x80Hp@'
tRp19
sS'jd'
p20
F2456781.8084143521
sS'lst'
p21
g4
(g6
S'\x00`%\x08\x88!,@'
tRp22
sS'vel-peaks'
p23
cnumpy.core.multiarray
_reconstruct
p24
(cnumpy
ndarray
p25
(I0
tS'b'
tRp26
(I1
(I1
tg6
I00
S'4b\xd3I\xfd\xe8\x17\xc0'
tbsS'grid'
p27
(I20
I44
tp28
sS'fname'
p29
S'data_l_324.88_b_040.00_grid_020_044'
p30
sS'time'
p31
ctime
struct_time
p32
((I2014
I5
I4
I0
I24
I7
I6
I124
I1
t(dtRp33
sS'f_low'
p34
F1268.9000000000001
sS'T_Sys_Right'
p35
g4
(g6
S'&4\xae\xff\xd2No@'
tRp36
sS'f_high'
p37
F1271.9000000000001
sS'col-density'
p38
g4
(g6
S'\xdc\xc1\xc0\x84\xed\xa4CD'
tRp39
s.