(dp1
S'n_obs'
p2
I87
sS'dispersion'
p3
cnumpy.core.multiarray
scalar
p4
(cnumpy
dtype
p5
(S'f8'
I0
I1
tRp6
(I3
S'<'
NNNI-1
I-1
I0
tbS'\xa3#\xf74\x98\xc1+@'
tRp7
sS'b'
F44
sS'n_cal'
p8
I9
sS'vel-center'
p9
g4
(g6
S'\x08\xf0O\xcf\xfe\xa9\x0b\xc0'
tRp10
sS'rec-success'
p11
I01
sS'unixtime'
p12
F1399191800.9151621
sS'G_Right'
p13
g4
(g6
S'\x0f\xe9\x800\xc7\x8f\x00@'
tRp14
sS'l'
g4
(g6
S'\xd4h\xeb>alt@'
tRp15
sS'G_Left'
p16
g4
(g6
S'P\xdc\x83\x022\xea\xde?'
tRp17
sS'T_Sys_Left'
p18
g4
(g6
S'\x8eo6!\xd1tn@'
tRp19
sS'jd'
p20
F2456781.8495370373
sS'lst'
p21
g4
(g6
S'\x00\xe0\xfc\xfd:\x1c.@'
tRp22
sS'vel-peaks'
p23
cnumpy.core.multiarray
_reconstruct
p24
(cnumpy
ndarray
p25
(I0
tS'b'
tRp26
(I1
(I2
tg6
I00
S'\xa1E\xf2?\x9aO3@\xba\xac\xd4/\xa6\xf0\x16\xc0'
tbsS'grid'
p27
(I22
I42
tp28
sS'fname'
p29
S'data_l_326.77_b_044.00_grid_022_042'
p30
sS'time'
p31
ctime
struct_time
p32
((I2014
I5
I4
I1
I23
I20
I6
I124
I1
t(dtRp33
sS'f_low'
p34
F1268.9000000000001
sS'T_Sys_Right'
p35
g4
(g6
S',f\xe1\xdd\xb5\x9ep@'
tRp36
sS'f_high'
p37
F1271.9000000000001
sS'col-density'
p38
g4
(g6
S'\x9f\xb7\xfe\xdfTTDD'
tRp39
s.