(dp1
S'n_obs'
p2
I87
sS'dispersion'
p3
cnumpy.core.multiarray
scalar
p4
(cnumpy
dtype
p5
(S'f8'
I0
I1
tRp6
(I3
S'<'
NNNI-1
I-1
I0
tbS'\x9f\x9e(\xf0\xcax(@'
tRp7
sS'b'
F18
sS'n_cal'
p8
I9
sS'vel-center'
p9
g4
(g6
S'bN\xd0\x989\x15O\xc0'
tRp10
sS'rec-success'
p11
I01
sS'unixtime'
p12
F1399289084.983201
sS'G_Right'
p13
g4
(g6
S'\xe7\xcd\x88\xf8\x8d}\xff?'
tRp14
sS'l'
g4
(g6
S'\xa0\xd5K\xbe\xa6\xe51@'
tRp15
sS'G_Left'
p16
g4
(g6
S'\x8dA 1GB\xe0?'
tRp17
sS'T_Sys_Left'
p18
g4
(g6
S'\xb7E\xcf\xc1\xd1\xb7n@'
tRp19
sS'jd'
p20
F2456782.9755092594
sS'lst'
p21
g4
(g6
S"\x00\xc0\x85\x82\x07'2@"
tRp22
sS'vel-peaks'
p23
cnumpy.core.multiarray
_reconstruct
p24
(cnumpy
ndarray
p25
(I0
tS'b'
tRp26
(I1
(I1
tg6
I00
S'\xe1\x0c\xa4G\xd9\x08O\xc0'
tbsS'grid'
p27
(I9
I1
tp28
sS'fname'
p29
S'data_l_017.90_b_018.00_grid_009_001'
p30
sS'time'
p31
ctime
struct_time
p32
((I2014
I5
I5
I4
I24
I44
I0
I125
I1
t(dtRp33
sS'f_low'
p34
F1268.9000000000001
sS'T_Sys_Right'
p35
g4
(g6
S'\xd1A\x1d\x0fO\x91m@'
tRp36
sS'f_high'
p37
F1271.9000000000001
sS'col-density'
p38
g4
(g6
S'Z\xa9\x8c\x0cX\x9cQD'
tRp39
s.