(dp1
S'n_obs'
p2
I87
sS'dispersion'
p3
cnumpy.core.multiarray
scalar
p4
(cnumpy
dtype
p5
(S'f8'
I0
I1
tRp6
(I3
S'<'
NNNI-1
I-1
I0
tbS'/X\xbe\x91\xcb!0@'
tRp7
sS'b'
F64
sS'n_cal'
p8
I9
sS'vel-center'
p9
g4
(g6
S'\xe7\x15\x01\x0f\xa6\xc7\x13@'
tRp10
sS'rec-success'
p11
I01
sS'unixtime'
p12
F1399197434.564317
sS'G_Right'
p13
g4
(g6
S'\n\xcc\xb4\xea\xae<\xfa?'
tRp14
sS'l'
g4
(g6
S'8\r\xc7\xab\xf0\xf7s@'
tRp15
sS'G_Left'
p16
g4
(g6
S'\x84P\rJ\xaf\x83\xe3?'
tRp17
sS'T_Sys_Left'
p18
g4
(g6
S'\x9cq\xff\x10Kcs@'
tRp19
sS'jd'
p20
F2456781.9147453704
sS'lst'
p21
g4
(g6
S'\x00 k%\xda\x9f0@'
tRp22
sS'vel-peaks'
p23
cnumpy.core.multiarray
_reconstruct
p24
(cnumpy
ndarray
p25
(I0
tS'b'
tRp26
(I1
(I1
tg6
I00
S'\xaa\x82\x18`\x0e4&@'
tbsS'grid'
p27
(I32
I24
tp28
sS'fname'
p29
S'data_l_319.50_b_064.00_grid_032_024'
p30
sS'time'
p31
ctime
struct_time
p32
((I2014
I5
I4
I2
I57
I14
I6
I124
I1
t(dtRp33
sS'f_low'
p34
F1268.9000000000001
sS'T_Sys_Right'
p35
g4
(g6
S'YX\xfcN\xbe\xf8o@'
tRp36
sS'f_high'
p37
F1271.9000000000001
sS'col-density'
p38
g4
(g6
S'\x07\xf0\xbb\'8"1D'
tRp39
s.