(dp1
S'n_obs'
p2
I174
sS'dispersion'
p3
cnumpy.core.multiarray
scalar
p4
(cnumpy
dtype
p5
(S'f8'
I0
I1
tRp6
(I3
S'<'
NNNI-1
I-1
I0
tbS'\x0e\x95\x02P\x06\xf52@'
tRp7
sS'b'
F2
sS'fname'
p8
S'data_l_213.90_b_002.00_grid_001_083'
p9
sS'vel-center'
p10
g4
(g6
S"'\x8a\xb2\xbd\x1f\xd4\\@"
tRp11
sS'rec-success'
p12
I01
sS'unixtime'
p13
F1398572700
sS'G_Right'
p14
g4
(g6
S'M\x9f\x80\xdd\x05\x9c\xf6?'
tRp15
sS'l'
g4
(g6
S'\x06\xcd\x07\x19\xc3\xbcj@'
tRp16
sS'G_Left'
p17
g4
(g6
S'\xd4\x89\xa5\xde7\xa5\xe6?'
tRp18
sS'T_Sys_Left'
p19
g4
(g6
S'c\x98{\x12\xdb\xafw@'
tRp20
sS'jd'
p21
F2456774.684027778
sS'lst'
p22
g4
(g6
S'\x00`\x89^a9%@'
tRp23
sS'vel-peaks'
p24
cnumpy.core.multiarray
_reconstruct
p25
(cnumpy
ndarray
p26
(I0
tS'b'
tRp27
(I1
(I3
tg6
I00
S'\xf9\x8f\x9a\xf9rK`@B^L%\xb1B\\@\x1a\x92\x8e\xf4n\x95W@'
tbsS'grid'
p28
(I1
I83
tp29
sS'n_cal'
p30
I18
sS'time'
p31
ctime
struct_time
p32
((I2014
I4
I26
I21
I25
I0
I5
I116
I1
t(dtRp33
sS'f_low'
p34
F1268.9000000000001
sS'T_Sys_Right'
p35
g4
(g6
S'\x1ee\x91\xa1~\xd2\x81@'
tRp36
sS'f_high'
p37
F1271.9000000000001
sS'col-density'
p38
g4
(g6
S'U\xcf\xadt"=\x80D'
tRp39
s.