(dp1
S'n_obs'
p2
I87
sS'dispersion'
p3
cnumpy.core.multiarray
scalar
p4
(cnumpy
dtype
p5
(S'f8'
I0
I1
tRp6
(I3
S'<'
NNNI-1
I-1
I0
tbS'5<\x99\x1a\xb5**@'
tRp7
sS'b'
F48
sS'n_cal'
p8
I9
sS'vel-center'
p9
g4
(g6
S"y\xe5\x96'N*?\xc0"
tRp10
sS'rec-success'
p11
I01
sS'unixtime'
p12
F1399196460.787096
sS'G_Right'
p13
g4
(g6
S'{\xc8\xb3\xb40\x0f\xfa?'
tRp14
sS'l'
g4
(g6
S'\xd4kF\x98)wv@'
tRp15
sS'G_Left'
p16
g4
(g6
S'\xf6\xd9\xc6}\xc0\xa5\xe3?'
tRp17
sS'T_Sys_Left'
p18
g4
(g6
S'\xd7.:\xc4\x9e1q@'
tRp19
sS'jd'
p20
F2456781.9034722224
sS'lst'
p21
g4
(g6
S'\x00\xe0\xa5xfZ0@'
tRp22
sS'vel-peaks'
p23
cnumpy.core.multiarray
_reconstruct
p24
(cnumpy
ndarray
p25
(I0
tS'b'
tRp26
(I1
(I1
tg6
I00
S'\x18o\x01\x08\x8a\xa9:\xc0'
tbsS'grid'
p27
(I24
I50
tp28
sS'fname'
p29
S'data_l_359.45_b_048.00_grid_024_050'
p30
sS'time'
p31
ctime
struct_time
p32
((I2014
I5
I4
I2
I41
I0
I6
I124
I1
t(dtRp33
sS'f_low'
p34
F1268.9000000000001
sS'T_Sys_Right'
p35
g4
(g6
S'\x151 \x9cY\x95p@'
tRp36
sS'f_high'
p37
F1271.9000000000001
sS'col-density'
p38
g4
(g6
S'&D\x86\xf5HK?D'
tRp39
s.