(dp1
S'n_obs'
p2
I87
sS'dispersion'
p3
cnumpy.core.multiarray
scalar
p4
(cnumpy
dtype
p5
(S'f8'
I0
I1
tRp6
(I3
S'<'
NNNI-1
I-1
I0
tbS'\x08y\x9c+\x87\xfe#@'
tRp7
sS'b'
F14
sS'n_cal'
p8
I9
sS'vel-center'
p9
g4
(g6
S'\x06\xfe\xd3\xba\xd9\xbbJ\xc0'
tRp10
sS'rec-success'
p11
I01
sS'unixtime'
p12
F1399288842.4122429
sS'G_Right'
p13
g4
(g6
S'\xc7\x90\x89\xb5\xe8\xb5\xfe?'
tRp14
sS'l'
g4
(g6
S'\x00\x8c\x05\x18\xeb.\xf7?'
tRp15
sS'G_Left'
p16
g4
(g6
S'\xd9\xe6\xaf\xa0\xf9\xab\xe0?'
tRp17
sS'T_Sys_Left'
p18
g4
(g6
S'\xbeH\xffUh=q@'
tRp19
sS'jd'
p20
F2456782.9727083333
sS'lst'
p21
g4
(g6
S'\x00\x10\xe4\xf8\xc5\x152@'
tRp22
sS'vel-peaks'
p23
cnumpy.core.multiarray
_reconstruct
p24
(cnumpy
ndarray
p25
(I0
tS'b'
tRp26
(I1
(I1
tg6
I00
S'\x00@\xc9y\xe7\x9cJ\xc0'
tbsS'grid'
p27
(I7
I9
tp28
sS'fname'
p29
S'data_l_001.45_b_014.00_grid_007_009'
p30
sS'time'
p31
ctime
struct_time
p32
((I2014
I5
I5
I4
I20
I42
I0
I125
I1
t(dtRp33
sS'f_low'
p34
F1268.9000000000001
sS'T_Sys_Right'
p35
g4
(g6
S'\xfcw\xbb\x05\xb0\xeap@'
tRp36
sS'f_high'
p37
F1271.9000000000001
sS'col-density'
p38
g4
(g6
S'u|\xa9d._UD'
tRp39
s.