(dp1
S'n_obs'
p2
I87
sS'dispersion'
p3
cnumpy.core.multiarray
scalar
p4
(cnumpy
dtype
p5
(S'f8'
I0
I1
tRp6
(I3
S'<'
NNNI-1
I-1
I0
tbS'\xfb\xa6\xdb\xac\x19U%@'
tRp7
sS'b'
F16
sS'n_cal'
p8
I9
sS'vel-center'
p9
g4
(g6
S'az7O\xbf%W@'
tRp10
sS'rec-success'
p11
I01
sS'unixtime'
p12
F1398836722
sS'G_Right'
p13
g4
(g6
S'C\x06\xa3\xfaU\xac\xfd?'
tRp14
sS'l'
g4
(g6
S'\xec7\x051\xf3^m@'
tRp15
sS'G_Left'
p16
g4
(g6
S'G\xb5\xd0\xbc/A\xe1?'
tRp17
sS'T_Sys_Left'
p18
g4
(g6
S'\xbd\xd6\x04(\x01\xa6y@'
tRp19
sS'jd'
p20
F2456777.7398379631
sS'lst'
p21
g4
(g6
S'\x00\xa0\xf9\xdc\xfbM(@'
tRp22
sS'vel-peaks'
p23
cnumpy.core.multiarray
_reconstruct
p24
(cnumpy
ndarray
p25
(I0
tS'b'
tRp26
(I1
(I1
tg6
I00
S'\x95\x0b\x93\xcdl\xb9U@'
tbsS'grid'
p27
(I8
I12
tp28
sS'fname'
p29
S'data_l_234.97_b_016.00_grid_008_012'
p30
sS'time'
p31
ctime
struct_time
p32
((I2014
I4
I29
I22
I45
I22
I1
I119
I1
t(dtRp33
sS'f_low'
p34
F1268.9000000000001
sS'T_Sys_Right'
p35
g4
(g6
S'\xe8^7\x91x\x1cr@'
tRp36
sS'f_high'
p37
F1271.9000000000001
sS'col-density'
p38
g4
(g6
S'!O\x96GK\x86BD'
tRp39
s.