(dp1
S'n_obs'
p2
I87
sS'dispersion'
p3
cnumpy.core.multiarray
scalar
p4
(cnumpy
dtype
p5
(S'f8'
I0
I1
tRp6
(I3
S'<'
NNNI-1
I-1
I0
tbS'\xca\x89|h?n1@'
tRp7
sS'b'
F76
sS'n_cal'
p8
I9
sS'vel-center'
p9
g4
(g6
S'\xb9\x94\x0fT-\xf6+@'
tRp10
sS'rec-success'
p11
I01
sS'unixtime'
p12
F1399282274.1342599
sS'G_Right'
p13
g4
(g6
S'\x84\xb9\xf4\xe2yN\xf6?'
tRp14
sS'l'
g4
(g6
S'\x10}&Y1Bq@'
tRp15
sS'G_Left'
p16
g4
(g6
S'\xcb\xd7af\xf1\xf3\xe6?'
tRp17
sS'T_Sys_Left'
p18
g4
(g6
S'\x18I\x91\xccP%q@'
tRp19
sS'jd'
p20
F2456782.896689815
sS'lst'
p21
g4
(g6
S'\x00 \x84\xd1oA0@'
tRp22
sS'vel-peaks'
p23
cnumpy.core.multiarray
_reconstruct
p24
(cnumpy
ndarray
p25
(I0
tS'b'
tRp26
(I1
(I1
tg6
I00
S'\x14\xb7\xb8v\xfd0?@'
tbsS'grid'
p27
(I38
I8
tp28
sS'fname'
p29
S'data_l_276.14_b_076.00_grid_038_008'
p30
sS'time'
p31
ctime
struct_time
p32
((I2014
I5
I5
I2
I31
I14
I0
I125
I1
t(dtRp33
sS'f_low'
p34
F1268.9000000000001
sS'T_Sys_Right'
p35
g4
(g6
S'\x9e\x1b\xd1\xf2v\x0eo@'
tRp36
sS'f_high'
p37
F1271.9000000000001
sS'col-density'
p38
g4
(g6
S'+\xebjBt\xdd3D'
tRp39
s.