(dp1
S'n_obs'
p2
I87
sS'dispersion'
p3
cnumpy.core.multiarray
scalar
p4
(cnumpy
dtype
p5
(S'f8'
I0
I1
tRp6
(I3
S'<'
NNNI-1
I-1
I0
tbS'\xbd\xcas!\xb6\xd5"@'
tRp7
sS'b'
F32
sS'n_cal'
p8
I9
sS'vel-center'
p9
g4
(g6
S'\x0c6\xa3\xebT\xb5E\xc0'
tRp10
sS'rec-success'
p11
I01
sS'unixtime'
p12
F1398844176
sS'G_Right'
p13
g4
(g6
S'\x14\x8bI\xcf~0\xfa?'
tRp14
sS'l'
g4
(g6
S'\x02\x12\x83m}Cv@'
tRp15
sS'G_Left'
p16
g4
(g6
S'\xed\x8fp(\xc4\x8c\xe3?'
tRp17
sS'T_Sys_Left'
p18
g4
(g6
S'\xd0\xc9h]}!|@'
tRp19
sS'jd'
p20
F2456777.8261111109
sS'lst'
p21
g4
(g6
S'\x00@\x14\xc4\x02u,@'
tRp22
sS'vel-peaks'
p23
cnumpy.core.multiarray
_reconstruct
p24
(cnumpy
ndarray
p25
(I0
tS'b'
tRp26
(I1
(I1
tg6
I00
S'\x8c4\xc3\x02I$D\xc0'
tbsS'grid'
p27
(I16
I62
tp28
sS'fname'
p29
S'data_l_356.22_b_032.00_grid_016_062'
p30
sS'time'
p31
ctime
struct_time
p32
((I2014
I4
I30
I0
I49
I36
I2
I120
I1
t(dtRp33
sS'f_low'
p34
F1268.9000000000001
sS'T_Sys_Right'
p35
g4
(g6
S'\x8d\x97 \xf6\x84-\xa2@'
tRp36
sS'f_high'
p37
F1271.9000000000001
sS'col-density'
p38
g4
(g6
S'\x98\xd5\xeb\xa1\xf1\xb6sD'
tRp39
s.