(dp1
S'n_obs'
p2
I87
sS'dispersion'
p3
cnumpy.core.multiarray
scalar
p4
(cnumpy
dtype
p5
(S'f8'
I0
I1
tRp6
(I3
S'<'
NNNI-1
I-1
I0
tbS'E\xb4;\xf9\xf2/)@'
tRp7
sS'b'
F40
sS'n_cal'
p8
I9
sS'vel-center'
p9
g4
(g6
S'\x84\xc88Ur\xc4Q@'
tRp10
sS'rec-success'
p11
I01
sS'unixtime'
p12
F1399094113.493118
sS'G_Right'
p13
g4
(g6
S's\x83\xb4\xe8\xe9\xe8\x01@'
tRp14
sS'l'
g4
(g6
S'\xc8H\x1fX^\xdcl@'
tRp15
sS'G_Left'
p16
g4
(g6
S'\xd3\x82e\x8aq\x96\xdc?'
tRp17
sS'T_Sys_Left'
p18
g4
(g6
S'\t\xe5\x06\r\x127o@'
tRp19
sS'jd'
p20
F2456780.7189004631
sS'lst'
p21
g4
(g6
S"\x00\xe04\x02\xee\xb0'@"
tRp22
sS'vel-peaks'
p23
cnumpy.core.multiarray
_reconstruct
p24
(cnumpy
ndarray
p25
(I0
tS'b'
tRp26
(I1
(I1
tg6
I00
S'\xb2\x8a\xa0\xca\x16\x95R@'
tbsS'grid'
p27
(I20
I8
tp28
sS'fname'
p29
S'data_l_230.89_b_040.00_grid_020_008'
p30
sS'time'
p31
ctime
struct_time
p32
((I2014
I5
I2
I22
I15
I13
I4
I122
I1
t(dtRp33
sS'f_low'
p34
F1268.9000000000001
sS'T_Sys_Right'
p35
g4
(g6
S'F)[\xbb?\xeep@'
tRp36
sS'f_high'
p37
F1271.9000000000001
sS'col-density'
p38
g4
(g6
S'\xc04TQ\xb4\\5D'
tRp39
s.