(dp1
S'n_obs'
p2
I87
sS'dispersion'
p3
cnumpy.core.multiarray
scalar
p4
(cnumpy
dtype
p5
(S'f8'
I0
I1
tRp6
(I3
S'<'
NNNI-1
I-1
I0
tbS'\xd4$\xe5A\xd2\xb8)@'
tRp7
sS'b'
F68
sS'n_cal'
p8
I9
sS'vel-center'
p9
g4
(g6
S'\xc8\xd57\x1aH\x06\x1a\xc0'
tRp10
sS'rec-success'
p11
I01
sS'unixtime'
p12
F1399198339.1355391
sS'G_Right'
p13
g4
(g6
S'\xad\xd3\xc5\x14O,\xfb?'
tRp14
sS'l'
g4
(g6
S'\x08\xbf\x92\x99&"u@'
tRp15
sS'G_Left'
p16
g4
(g6
S'Qt]\xe0\x98\xd7\xe2?'
tRp17
sS'T_Sys_Left'
p18
g4
(g6
S'Q\xf74\xd6`\x95p@'
tRp19
sS'jd'
p20
F2456781.9252199074
sS'lst'
p21
g4
(g6
S'\x000\x87Fb\xe00@'
tRp22
sS'vel-peaks'
p23
cnumpy.core.multiarray
_reconstruct
p24
(cnumpy
ndarray
p25
(I0
tS'b'
tRp26
(I1
(I1
tg6
I00
S'\xe0h\xbd\xb5\x18\xef\x05@'
tbsS'grid'
p27
(I34
I24
tp28
sS'fname'
p29
S'data_l_338.13_b_068.00_grid_034_024'
p30
sS'time'
p31
ctime
struct_time
p32
((I2014
I5
I4
I3
I12
I19
I6
I124
I1
t(dtRp33
sS'f_low'
p34
F1268.9000000000001
sS'T_Sys_Right'
p35
g4
(g6
S'*y\xd6\x0b\x9eWq@'
tRp36
sS'f_high'
p37
F1271.9000000000001
sS'col-density'
p38
g4
(g6
S'\xc7\xfe@N\x82\x8b-D'
tRp39
s.