(dp1
S'n_obs'
p2
I174
sS'dispersion'
p3
cnumpy.core.multiarray
scalar
p4
(cnumpy
dtype
p5
(S'f8'
I0
I1
tRp6
(I3
S'<'
NNNI-1
I-1
I0
tbS'\xd6\x8a\x0c\x13\xc2\xd68@'
tRp7
sS'b'
F6
sS'fname'
p8
S'data_l_227.16_b_006.00_grid_003_076'
p9
sS'vel-center'
p10
g4
(g6
S'\x8d_\xd2x\x15c]@'
tRp11
sS'rec-success'
p12
I01
sS'unixtime'
p13
F1398659640
sS'G_Right'
p14
g4
(g6
S'L3*g\xfb\xa1\xfe?'
tRp15
sS'l'
g4
(g6
S'\xa0\xee\xac-5el@'
tRp16
sS'G_Left'
p17
g4
(g6
S'Z>\x89\xff\xd1\xb6\xe0?'
tRp18
sS'T_Sys_Left'
p19
g4
(g6
S'P\x95v\xf0\x94\xf8l@'
tRp20
sS'jd'
p21
F2456775.6902777776
sS'lst'
p22
g4
(g6
S'\x00 :\xb7\x08\xa8%@'
tRp23
sS'vel-peaks'
p24
cnumpy.core.multiarray
_reconstruct
p25
(cnumpy
ndarray
p26
(I0
tS'b'
tRp27
(I1
(I3
tg6
I00
S'\x1a\xf3\xb4\x1a\xfc#c@\x02F3\xe9\x9cLZ@\xa2\xbfp\xc3?\xa9U@'
tbsS'grid'
p28
(I3
I76
tp29
sS'n_cal'
p30
I18
sS'time'
p31
ctime
struct_time
p32
((I2014
I4
I27
I21
I34
I0
I6
I117
I1
t(dtRp33
sS'f_low'
p34
F1268.9000000000001
sS'T_Sys_Right'
p35
g4
(g6
S'\xd5\xd7\xe8Mj\x97i@'
tRp36
sS'f_high'
p37
F1271.9000000000001
sS'col-density'
p38
g4
(g6
S'\x9aG\x97V\x85f]D'
tRp39
s.