(dp1
S'n_obs'
p2
I87
sS'dispersion'
p3
cnumpy.core.multiarray
scalar
p4
(cnumpy
dtype
p5
(S'f8'
I0
I1
tRp6
(I3
S'<'
NNNI-1
I-1
I0
tbS'\x01\xbb\xf8\x95\xff\x9f8@'
tRp7
sS'b'
F8
sS'n_cal'
p8
I9
sS'vel-center'
p9
g4
(g6
S'\xca\xbf\xccT\xda\x0e\\@'
tRp10
sS'rec-success'
p11
I01
sS'unixtime'
p12
F1399262967.9578509
sS'G_Right'
p13
g4
(g6
S'\xe8\x10\xb9\x0b\xd7h\xff?'
tRp14
sS'l'
g4
(g6
S'\x94jD&J\xc6l@'
tRp15
sS'G_Left'
p16
g4
(g6
S'[\xce\xac5\x00M\xe0?'
tRp17
sS'T_Sys_Left'
p18
g4
(g6
S'\xfcO\x07E\xe2\x02p@'
tRp19
sS'jd'
p20
F2456782.6732291668
sS'lst'
p21
g4
(g6
S'\x00@\x84\x9dx\xc1%@'
tRp22
sS'vel-peaks'
p23
cnumpy.core.multiarray
_reconstruct
p24
(cnumpy
ndarray
p25
(I0
tS'b'
tRp26
(I1
(I2
tg6
I00
S'\x08\x14E\x07\x91\x9eZ@qu\xc5G\xadpU@'
tbsS'grid'
p27
(I4
I10
tp28
sS'fname'
p29
S'data_l_230.20_b_008.00_grid_004_010'
p30
sS'time'
p31
ctime
struct_time
p32
((I2014
I5
I4
I21
I9
I27
I6
I124
I1
t(dtRp33
sS'f_low'
p34
F1268.9000000000001
sS'T_Sys_Right'
p35
g4
(g6
S'(z\x9d\xf0\xabpo@'
tRp36
sS'f_high'
p37
F1271.9000000000001
sS'col-density'
p38
g4
(g6
S'K\xe8\x1b\x07\xe9\xb9WD'
tRp39
s.