(dp1
S'n_obs'
p2
I87
sS'dispersion'
p3
cnumpy.core.multiarray
scalar
p4
(cnumpy
dtype
p5
(S'f8'
I0
I1
tRp6
(I3
S'<'
NNNI-1
I-1
I0
tbS'?|\xe4\xa6\xb1* @'
tRp7
sS'b'
F48
sS'n_cal'
p8
I9
sS'vel-center'
p9
g4
(g6
S'\x94\xf3c\x9f+\xf0O@'
tRp10
sS'rec-success'
p11
I01
sS'unixtime'
p12
F1399099956.1579731
sS'G_Right'
p13
g4
(g6
S'\xa8\x1amI\x1eu\x00@'
tRp14
sS'l'
g4
(g6
S'h\x9d\xc4\x07,=m@'
tRp15
sS'G_Left'
p16
g4
(g6
S'\xf9v\xc6YF\x1c\xdf?'
tRp17
sS'T_Sys_Left'
p18
g4
(g6
S'b\xb9f\x0f%\xafp@'
tRp19
sS'jd'
p20
F2456780.7865277776
sS'lst'
p21
g4
(g6
S'\x00\xc0\xaf\x995\xf2*@'
tRp22
sS'vel-peaks'
p23
cnumpy.core.multiarray
_reconstruct
p24
(cnumpy
ndarray
p25
(I0
tS'b'
tRp26
(I1
(I0
tg6
I00
S''
tbsS'grid'
p27
(I24
I8
tp28
sS'fname'
p29
S'data_l_233.91_b_048.00_grid_024_008'
p30
sS'time'
p31
ctime
struct_time
p32
((I2014
I5
I2
I23
I52
I36
I4
I122
I1
t(dtRp33
sS'f_low'
p34
F1268.9000000000001
sS'T_Sys_Right'
p35
g4
(g6
S'K\xa5\xf4\x19\x18\xcbo@'
tRp36
sS'f_high'
p37
F1271.9000000000001
sS'col-density'
p38
g4
(g6
S'\xe4z\x97& D&D'
tRp39
s.