(dp1
S'n_obs'
p2
I87
sS'dispersion'
p3
cnumpy.core.multiarray
scalar
p4
(cnumpy
dtype
p5
(S'f8'
I0
I1
tRp6
(I3
S'<'
NNNI-1
I-1
I0
tbS'\x9e\x1b\xe9^n\x1d!@'
tRp7
sS'b'
F72
sS'n_cal'
p8
I9
sS'vel-center'
p9
g4
(g6
S'\xff\xe8\xec\x1a\xfd\x9a2@'
tRp10
sS'rec-success'
p11
I01
sS'unixtime'
p12
F1399281304.5509689
sS'G_Right'
p13
g4
(g6
S'\x8bS\x9c17\xd2\xf4?'
tRp14
sS'l'
g4
(g6
S'\x86=\t*\xc2\xc9r@'
tRp15
sS'G_Left'
p16
g4
(g6
S'a\'x\xcf"\x97\xe8?'
tRp17
sS'T_Sys_Left'
p18
g4
(g6
S'x\xc9\xea\x1d{wo@'
tRp19
sS'jd'
p20
F2456782.885462963
sS'lst'
p21
g4
(g6
S'\x00@\x11R\x8a\xf8/@'
tRp22
sS'vel-peaks'
p23
cnumpy.core.multiarray
_reconstruct
p24
(cnumpy
ndarray
p25
(I0
tS'b'
tRp26
(I1
(I1
tg6
I00
S'\xca#\xe1d2\xa75@'
tbsS'grid'
p27
(I36
I14
tp28
sS'fname'
p29
S'data_l_300.61_b_072.00_grid_036_014'
p30
sS'time'
p31
ctime
struct_time
p32
((I2014
I5
I5
I2
I15
I4
I0
I125
I1
t(dtRp33
sS'f_low'
p34
F1268.9000000000001
sS'T_Sys_Right'
p35
g4
(g6
S'hvy\xa9O\xb3n@'
tRp36
sS'f_high'
p37
F1271.9000000000001
sS'col-density'
p38
g4
(g6
S'\x8b\xfd\x96\xc1\xb5\x9c$D'
tRp39
s.