(dp1
S'n_obs'
p2
I87
sS'dispersion'
p3
cnumpy.core.multiarray
scalar
p4
(cnumpy
dtype
p5
(S'f8'
I0
I1
tRp6
(I3
S'<'
NNNI-1
I-1
I0
tbS'\x91.\xf4\xc4\xe1,"@'
tRp7
sS'b'
F56
sS'n_cal'
p8
I9
sS'vel-center'
p9
g4
(g6
S'O\xbd\x8dg\xa7GJ@'
tRp10
sS'rec-success'
p11
I01
sS'unixtime'
p12
F1399271078.1391981
sS'G_Right'
p13
g4
(g6
S'\xf5\xe3\xf0x\x08\xbb\xfe?'
tRp14
sS'l'
g4
(g6
S'l\x81\xec8\xb4\xeel@'
tRp15
sS'G_Left'
p16
g4
(g6
S'N\xeaQ\xfa1\xa9\xe0?'
tRp17
sS'T_Sys_Left'
p18
g4
(g6
S'rU\x9c\x17\x0f\xb6n@'
tRp19
sS'jd'
p20
F2456782.7671064814
sS'lst'
p21
g4
(g6
S'\x00@\xb6\xa61F*@'
tRp22
sS'vel-peaks'
p23
cnumpy.core.multiarray
_reconstruct
p24
(cnumpy
ndarray
p25
(I0
tS'b'
tRp26
(I1
(I1
tg6
I00
S'\x15\x03\x8f*U\xa5J@'
tbsS'grid'
p27
(I28
I6
tp28
sS'fname'
p29
S'data_l_231.46_b_056.00_grid_028_006'
p30
sS'time'
p31
ctime
struct_time
p32
((I2014
I5
I4
I23
I24
I38
I6
I124
I1
t(dtRp33
sS'f_low'
p34
F1268.9000000000001
sS'T_Sys_Right'
p35
g4
(g6
S'M\xe8\xc4\x81\xc1\x00p@'
tRp36
sS'f_high'
p37
F1271.9000000000001
sS'col-density'
p38
g4
(g6
S'y^3\x88\xfeo/D'
tRp39
s.