(dp1
S'n_obs'
p2
I87
sS'dispersion'
p3
cnumpy.core.multiarray
scalar
p4
(cnumpy
dtype
p5
(S'f8'
I0
I1
tRp6
(I3
S'<'
NNNI-1
I-1
I0
tbS'x6\x84\x0e\xbeF)@'
tRp7
sS'b'
F36
sS'n_cal'
p8
I9
sS'vel-center'
p9
g4
(g6
S'\xe4Q\xf2Dag4\xc0'
tRp10
sS'rec-success'
p11
I01
sS'unixtime'
p12
F1398846657
sS'G_Right'
p13
g4
(g6
S'\xe3\xcb\x103\xc1\xe3\xf4?'
tRp14
sS'l'
g4
(g6
S'-\xb7\x8eq\xb5\xd9t@'
tRp15
sS'G_Left'
p16
g4
(g6
S'D\x03\xc1`}\x82\xe8?'
tRp17
sS'T_Sys_Left'
p18
g4
(g6
S'\xdc\x8c\x9a\xf5\x8d\xf3\x87@'
tRp19
sS'jd'
p20
F2456777.8548263889
sS'lst'
p21
g4
(g6
S'\x00\xa0`\x89\xd4\xd6-@'
tRp22
sS'vel-peaks'
p23
cnumpy.core.multiarray
_reconstruct
p24
(cnumpy
ndarray
p25
(I0
tS'b'
tRp26
(I1
(I1
tg6
I00
S'\xa6\xf7\xb1\xf7\xa4\x124\xc0'
tbsS'grid'
p27
(I18
I50
tp28
sS'fname'
p29
S'data_l_333.61_b_036.00_grid_018_050'
p30
sS'time'
p31
ctime
struct_time
p32
((I2014
I4
I30
I1
I30
I57
I2
I120
I1
t(dtRp33
sS'f_low'
p34
F1268.9000000000001
sS'T_Sys_Right'
p35
g4
(g6
S'\x85\xdb\xe7\xdb\xb7Z\x82@'
tRp36
sS'f_high'
p37
F1271.9000000000001
sS'col-density'
p38
g4
(g6
S'Q\xb1\x0b{\xfc\x93\\D'
tRp39
s.