(dp1
S'n_obs'
p2
I87
sS'dispersion'
p3
cnumpy.core.multiarray
scalar
p4
(cnumpy
dtype
p5
(S'f8'
I0
I1
tRp6
(I3
S'<'
NNNI-1
I-1
I0
tbS'\xe3l\xaa\xb8\xd3\xc51@'
tRp7
sS'b'
F52
sS'n_cal'
p8
I9
sS'vel-center'
p9
g4
(g6
S'\xea[cj\x87\xdd,@'
tRp10
sS'rec-success'
p11
I01
sS'unixtime'
p12
F1399105258.4569199
sS'G_Right'
p13
g4
(g6
S'a\xc7m\x87\\\xd5\x00@'
tRp14
sS'l'
g4
(g6
S'K]\xe8aX\xcfr@'
tRp15
sS'G_Left'
p16
g4
(g6
S'\xea\xfe\xa6\x97gj\xde?'
tRp17
sS'T_Sys_Left'
p18
g4
(g6
S'\x14p\xe1\x8f9\x9es@'
tRp19
sS'jd'
p20
F2456780.8478935184
sS'lst'
p21
g4
(g6
S'\x00\x80,\x0eV\xe6-@'
tRp22
sS'vel-peaks'
p23
cnumpy.core.multiarray
_reconstruct
p24
(cnumpy
ndarray
p25
(I0
tS'b'
tRp26
(I1
(I1
tg6
I00
S'\xf9<\x12\x1d=\xba4@'
tbsS'grid'
p27
(I26
I28
tp28
sS'fname'
p29
S'data_l_300.96_b_052.00_grid_026_028'
p30
sS'time'
p31
ctime
struct_time
p32
((I2014
I5
I3
I1
I20
I58
I5
I123
I1
t(dtRp33
sS'f_low'
p34
F1268.9000000000001
sS'T_Sys_Right'
p35
g4
(g6
S'\x80I6\x8d\x04\x85p@'
tRp36
sS'f_high'
p37
F1271.9000000000001
sS'col-density'
p38
g4
(g6
S'rO4\xa6\xbc\xe86D'
tRp39
s.