(dp1
S'n_obs'
p2
I87
sS'dispersion'
p3
cnumpy.core.multiarray
scalar
p4
(cnumpy
dtype
p5
(S'f8'
I0
I1
tRp6
(I3
S'<'
NNNI-1
I-1
I0
tbS'\xc8g\xe2\xcb\xce\x900@'
tRp7
sS'b'
F80
sS'n_cal'
p8
I9
sS'vel-center'
p9
g4
(g6
S'K\x9f\xe61\x0b\xee\x19\xc0'
tRp10
sS'rec-success'
p11
I01
sS'unixtime'
p12
F1399283288.4566369
sS'G_Right'
p13
g4
(g6
S'\x8f\xa8_\x83\xed>\xf7?'
tRp14
sS'l'
F210
sS'G_Left'
p15
g4
(g6
S'\x81*\x13h\x85\x06\xe6?'
tRp16
sS'T_Sys_Left'
p17
g4
(g6
S'\xe1e\n\xf1kKp@'
tRp18
sS'jd'
p19
F2456782.9084259258
sS'lst'
p20
g4
(g6
S'\x00p\x1b\xaa\xbd\x890@'
tRp21
sS'vel-peaks'
p22
cnumpy.core.multiarray
_reconstruct
p23
(cnumpy
ndarray
p24
(I0
tS'b'
tRp25
(I1
(I0
tg6
I00
S''
tbsS'grid'
p26
(I40
I0
tp27
sS'fname'
p28
S'data_l_210.00_b_080.00_grid_040_000'
p29
sS'time'
p30
ctime
struct_time
p31
((I2014
I5
I5
I2
I48
I8
I0
I125
I1
t(dtRp32
sS'f_low'
p33
F1268.9000000000001
sS'T_Sys_Right'
p34
g4
(g6
S'\x88\xecX!\xb5\xean@'
tRp35
sS'f_high'
p36
F1271.9000000000001
sS'col-density'
p37
g4
(g6
S'\xd4\xdaV\x0eG10D'
tRp38
s.