(dp1
S'n_obs'
p2
I87
sS'dispersion'
p3
cnumpy.core.multiarray
scalar
p4
(cnumpy
dtype
p5
(S'f8'
I0
I1
tRp6
(I3
S'<'
NNNI-1
I-1
I0
tbS'{fTc\xc1@!@'
tRp7
sS'b'
F28
sS'n_cal'
p8
I9
sS'vel-center'
p9
g4
(g6
S'\xd6\xb2\xa9s&wM\xc0'
tRp10
sS'rec-success'
p11
I01
sS'unixtime'
p12
F1398842859
sS'G_Right'
p13
g4
(g6
S'\xfb\xd5+\xd35\xaf\xf9?'
tRp14
sS'l'
g4
(g6
S'`}\x94g\xd0\x9e1@'
tRp15
sS'G_Left'
p16
g4
(g6
S'\x83"~\',\xef\xe3?'
tRp17
sS'T_Sys_Left'
p18
g4
(g6
S'\xcfa\xdd\xfa\xc0Mr@'
tRp19
sS'jd'
p20
F2456777.8108680556
sS'lst'
p21
g4
(g6
S'\x00\xe0\xd6\xf90\xb9+@'
tRp22
sS'vel-peaks'
p23
cnumpy.core.multiarray
_reconstruct
p24
(cnumpy
ndarray
p25
(I0
tS'b'
tRp26
(I1
(I1
tg6
I00
S'\x0bC\xa0\xb7&\x9eM\xc0'
tbsS'grid'
p27
(I14
I74
tp28
sS'fname'
p29
S'data_l_017.62_b_028.00_grid_014_074'
p30
sS'time'
p31
ctime
struct_time
p32
((I2014
I4
I30
I0
I27
I39
I2
I120
I1
t(dtRp33
sS'f_low'
p34
F1268.9000000000001
sS'T_Sys_Right'
p35
g4
(g6
S'\x99\xfd@\x1da\xfez@'
tRp36
sS'f_high'
p37
F1271.9000000000001
sS'col-density'
p38
g4
(g6
S'\xc9.\xb5,\xb7[GD'
tRp39
s.