(dp1
S'n_obs'
p2
I87
sS'dispersion'
p3
cnumpy.core.multiarray
scalar
p4
(cnumpy
dtype
p5
(S'f8'
I0
I1
tRp6
(I3
S'<'
NNNI-1
I-1
I0
tbS'\x13\xbb\xa8\xb7\x9530@'
tRp7
sS'b'
F72
sS'n_cal'
p8
I9
sS'vel-center'
p9
g4
(g6
S'\xf4p\xc3?\x9f\xa1\xdc\xbf'
tRp10
sS'rec-success'
p11
I01
sS'unixtime'
p12
F1399281730.272902
sS'G_Right'
p13
g4
(g6
S'Z\xd4U\x04U3\xf3?'
tRp14
sS'l'
g4
(g6
S'\xd2\xbc\xc2\xa3\xf9gt@'
tRp15
sS'G_Left'
p16
g4
(g6
S'\x1c\xd90\xb3{\xaa\xea?'
tRp17
sS'T_Sys_Left'
p18
g4
(g6
S'{\xe9[n<\x9an@'
tRp19
sS'jd'
p20
F2456782.8903935184
sS'lst'
p21
g4
(g6
S'\x00\xa0m|\xa5\x1a0@'
tRp22
sS'vel-peaks'
p23
cnumpy.core.multiarray
_reconstruct
p24
(cnumpy
ndarray
p25
(I0
tS'b'
tRp26
(I1
(I1
tg6
I00
S'l^X\x1c\xe4l$@'
tbsS'grid'
p27
(I36
I18
tp28
sS'fname'
p29
S'data_l_326.50_b_072.00_grid_036_018'
p30
sS'time'
p31
ctime
struct_time
p32
((I2014
I5
I5
I2
I22
I10
I0
I125
I1
t(dtRp33
sS'f_low'
p34
F1268.9000000000001
sS'T_Sys_Right'
p35
g4
(g6
S'S\x06\x0bgZ\x0eo@'
tRp36
sS'f_high'
p37
F1271.9000000000001
sS'col-density'
p38
g4
(g6
S'\xf8\xa2\xa1M[]*D'
tRp39
s.