(dp1
S'n_obs'
p2
I87
sS'dispersion'
p3
cnumpy.core.multiarray
scalar
p4
(cnumpy
dtype
p5
(S'f8'
I0
I1
tRp6
(I3
S'<'
NNNI-1
I-1
I0
tbS"L\x0fN\x9eVf'@"
tRp7
sS'b'
F52
sS'n_cal'
p8
I9
sS'vel-center'
p9
g4
(g6
S';\x84\x81\xacbQ\x1a\xc0'
tRp10
sS'rec-success'
p11
I01
sS'unixtime'
p12
F1399106460.823894
sS'G_Right'
p13
g4
(g6
S'&\x84\xb1\xaa\xf3)\x01@'
tRp14
sS'l'
g4
(g6
S'Q\xec\xdf\x84\x1c\xd7t@'
tRp15
sS'G_Left'
p16
g4
(g6
S'\xcew\xe9\x19\x81\xd4\xdd?'
tRp17
sS'T_Sys_Left'
p18
g4
(g6
S'\x8eH\x99\xaf\xe0\xc8q@'
tRp19
sS'jd'
p20
F2456780.8618055554
sS'lst'
p21
g4
(g6
S'\x00\xc05\\\xc1\x91.@'
tRp22
sS'vel-peaks'
p23
cnumpy.core.multiarray
_reconstruct
p24
(cnumpy
ndarray
p25
(I0
tS'b'
tRp26
(I1
(I1
tg6
I00
S'\xeeLFR\xb5\xb1\x1c\xc0'
tbsS'grid'
p27
(I26
I38
tp28
sS'fname'
p29
S'data_l_333.44_b_052.00_grid_026_038'
p30
sS'time'
p31
ctime
struct_time
p32
((I2014
I5
I3
I1
I41
I0
I5
I123
I1
t(dtRp33
sS'f_low'
p34
F1268.9000000000001
sS'T_Sys_Right'
p35
g4
(g6
S'\xac\x04y\x8d\x8e\x13q@'
tRp36
sS'f_high'
p37
F1271.9000000000001
sS'col-density'
p38
g4
(g6
S'\xab\xd7s\xc7?W2D'
tRp39
s.