(dp1
S'n_obs'
p2
I87
sS'Paths'
p3
(dp4
S'save-name'
p5
S'/Users/caleblevy/galaxy-lab/langley/data-process/data_l_001.52_b_030.00_grid_015_008_process.pkl'
p6
sS'save-dir'
p7
S'/Users/caleblevy/galaxy-lab/langley/data-process'
p8
sS'save-prefix'
p9
S'/Users/caleblevy/galaxy-lab/langley/data-process/data_l_001.52_b_030.00_grid_015_008'
p10
sS'dependencies-dir'
p11
S'/Users/caleblevy/galaxy-lab/langley/data'
p12
sS'backup-name'
p13
S'/Users/caleblevy/galaxy-lab/langley/data-process/backup/data_l_001.52_b_030.00_grid_015_008_backup.pkl'
p14
ssS'b'
F30
sS'n_cal'
p15
I9
sS'l'
cnumpy.core.multiarray
scalar
p16
(cnumpy
dtype
p17
(S'f8'
I0
I1
tRp18
(I3
S'<'
NNNI-1
I-1
I0
tbS'\x00\xd0\xfc\xa6\x8be\xf8?'
tRp19
sS'rec-success'
p20
I01
sS'Tokens'
p21
(dp22
sS'grid'
p23
(I15
I8
tp24
sS'fname'
p25
S'data_l_001.52_b_030.00_grid_015_008'
p26
sS'time'
p27
ctime
struct_time
p28
((I2014
I4
I28
I23
I47
I4
I0
I118
I1
t(dtRp29
sS'f_low'
p30
F1268.9000000000001
sS'f_high'
p31
F1271.9000000000001
s.