(dp1
S'n_obs'
p2
I174
sS'Paths'
p3
(dp4
S'save-name'
p5
S'/Users/caleblevy/galaxy-lab/langley/data-process/data_l_218.02_b_004.00_grid_002_004_process.pkl'
p6
sS'save-dir'
p7
S'/Users/caleblevy/galaxy-lab/langley/data-process'
p8
sS'save-prefix'
p9
S'/Users/caleblevy/galaxy-lab/langley/data-process/data_l_218.02_b_004.00_grid_002_004'
p10
sS'dependencies-dir'
p11
S'/Users/caleblevy/galaxy-lab/langley/data'
p12
sS'backup-name'
p13
S'/Users/caleblevy/galaxy-lab/langley/data-process/backup/data_l_218.02_b_004.00_grid_002_004_backup.pkl'
p14
ssS'b'
F4
sS'n_cal'
p15
I18
sS'l'
cnumpy.core.multiarray
scalar
p16
(cnumpy
dtype
p17
(S'f8'
I0
I1
tRp18
(I3
S'<'
NNNI-1
I-1
I0
tbS'\x18f@\x08\xa0@k@'
tRp19
sS'rec-success'
p20
I01
sS'Tokens'
p21
(dp22
sS'grid'
p23
(I2
I4
tp24
sS'fname'
p25
S'data_l_218.02_b_004.00_grid_002_004'
p26
sS'f_low'
p27
F1268.9000000000001
sS'f_high'
p28
F1271.9000000000001
s.