(dp1
S'n_obs'
p2
I174
sS'Paths'
p3
(dp4
S'save-name'
p5
S'/Users/caleblevy/galaxy-lab/langley/data-process/data_l_213.09_b_006.00_grid_003_083_process.pkl'
p6
sS'save-dir'
p7
S'/Users/caleblevy/galaxy-lab/langley/data-process'
p8
sS'save-prefix'
p9
S'/Users/caleblevy/galaxy-lab/langley/data-process/data_l_213.09_b_006.00_grid_003_083'
p10
sS'dependencies-dir'
p11
S'/Users/caleblevy/galaxy-lab/langley/data'
p12
sS'backup-name'
p13
S'/Users/caleblevy/galaxy-lab/langley/data-process/backup/data_l_213.09_b_006.00_grid_003_083_backup.pkl'
p14
ssS'b'
F6
sS'n_cal'
p15
I18
sS'l'
cnumpy.core.multiarray
scalar
p16
(cnumpy
dtype
p17
(S'f8'
I0
I1
tRp18
(I3
S'<'
NNNI-1
I-1
I0
tbS'\xa8\xe9\xe1q\xbd\xa2j@'
tRp19
sS'rec-success'
p20
I01
sS'Tokens'
p21
(dp22
sS'grid'
p23
(I3
I83
tp24
sS'fname'
p25
S'data_l_213.09_b_006.00_grid_003_083'
p26
sS'time'
p27
ctime
struct_time
p28
((I2014
I4
I28
I21
I21
I56
I0
I118
I1
t(dtRp29
sS'f_low'
p30
F1268.9000000000001
sS'f_high'
p31
F1271.9000000000001
s.