(dp1
S'n_obs'
p2
I87
sS'dispersion'
p3
cnumpy.core.multiarray
scalar
p4
(cnumpy
dtype
p5
(S'f8'
I0
I1
tRp6
(I3
S'<'
NNNI-1
I-1
I0
tbS'\x0f\x86B\xda\x94`(@'
tRp7
sS'b'
F44
sS'n_cal'
p8
I9
sS'vel-center'
p9
g4
(g6
S'q>b\xa8\xc4]\x0b\xc0'
tRp10
sS'rec-success'
p11
I01
sS'unixtime'
p12
F1399193601.6699531
sS'G_Right'
p13
g4
(g6
S'\xf4t\xdd@\xc9\xc7\x00@'
tRp14
sS'l'
g4
(g6
S'\x80\x86M\x93\x98\x84&@'
tRp15
sS'G_Left'
p16
g4
(g6
S'G*\x14\xc4\x02\x83\xde?'
tRp17
sS'T_Sys_Left'
p18
g4
(g6
S']6uz\xf6mm@'
tRp19
sS'jd'
p20
F2456781.8703819443
sS'lst'
p21
g4
(g6
S'\x00\xc0`\xee\x12\x1d/@'
tRp22
sS'vel-peaks'
p23
cnumpy.core.multiarray
_reconstruct
p24
(cnumpy
ndarray
p25
(I0
tS'b'
tRp26
(I1
(I1
tg6
I00
S'\xf0\xcf\x00\xd3\x16\xf9\x07\xc0'
tbsS'grid'
p27
(I22
I58
tp28
sS'fname'
p29
S'data_l_011.26_b_044.00_grid_022_058'
p30
sS'time'
p31
ctime
struct_time
p32
((I2014
I5
I4
I1
I53
I21
I6
I124
I1
t(dtRp33
sS'f_low'
p34
F1268.9000000000001
sS'T_Sys_Right'
p35
g4
(g6
S'\x90Im\x17y\xb7p@'
tRp36
sS'f_high'
p37
F1271.9000000000001
sS'col-density'
p38
g4
(g6
S'\xb9\x83\x91\x03\x13\x11;D'
tRp39
s.