(dp1
S'n_obs'
p2
I87
sS'dispersion'
p3
cnumpy.core.multiarray
scalar
p4
(cnumpy
dtype
p5
(S'f8'
I0
I1
tRp6
(I3
S'<'
NNNI-1
I-1
I0
tbS'\x0b\xbfh\x9c\xaa\xf1!@'
tRp7
sS'b'
F26
sS'n_cal'
p8
I9
sS'vel-center'
p9
g4
(g6
S'\xc2Tp\x13\x07z\xe0?'
tRp10
sS'rec-success'
p11
I01
sS'unixtime'
p12
F1399292347.4522259
sS'G_Right'
p13
g4
(g6
S'v\x99\xd1\xfcm\x9f\xfd?'
tRp14
sS'l'
g4
(g6
S'\x8c\xb7\x89\x15\x92\x7fv@'
tRp15
sS'G_Left'
p16
g4
(g6
S'\xcf\xe4\x08>\xb4H\xe1?'
tRp17
sS'T_Sys_Left'
p18
g4
(g6
S'{\xc9p\xa1\xdd3n@'
tRp19
sS'jd'
p20
F2456783.0132754631
sS'lst'
p21
g4
(g6
S'\x000:?\xb3\x0f3@'
tRp22
sS'vel-peaks'
p23
cnumpy.core.multiarray
_reconstruct
p24
(cnumpy
ndarray
p25
(I0
tS'b'
tRp26
(I1
(I1
tg6
I00
S'\xa8\x13mc\xcd\x06\x01@'
tbsS'grid'
p27
(I13
I9
tp28
sS'fname'
p29
S'data_l_359.97_b_026.00_grid_013_009'
p30
sS'time'
p31
ctime
struct_time
p32
((I2014
I5
I5
I5
I19
I7
I0
I125
I1
t(dtRp33
sS'f_low'
p34
F1268.9000000000001
sS'T_Sys_Right'
p35
g4
(g6
S'Lv\xf8i\x02_p@'
tRp36
sS'f_high'
p37
F1271.9000000000001
sS'col-density'
p38
g4
(g6
S'W\x1ez\xf8\x05mSD'
tRp39
s.