(dp1
S'n_obs'
p2
I87
sS'dispersion'
p3
cnumpy.core.multiarray
scalar
p4
(cnumpy
dtype
p5
(S'f8'
I0
I1
tRp6
(I3
S'<'
NNNI-1
I-1
I0
tbS'\xea,5?w\x89)@'
tRp7
sS'b'
F6
sS'n_cal'
p8
I9
sS'vel-center'
p9
g4
(g6
S'\xfe\xdd\xc6\xa6/\xb7\x1c@'
tRp10
sS'rec-success'
p11
I01
sS'unixtime'
p12
F1399286773.223361
sS'G_Right'
p13
g4
(g6
S'\xf6\x11\xe4 \xa9]\x00@'
tRp14
sS'l'
g4
(g6
S'\x00a\x9f\x86\x08\xb1\x17@'
tRp15
sS'G_Left'
p16
g4
(g6
S'|\xcd\x00\xc5\xddH\xdf?'
tRp17
sS'T_Sys_Left'
p18
g4
(g6
S'\xf4\x9e\xef\\*\xd6o@'
tRp19
sS'jd'
p20
F2456782.948761574
sS'lst'
p21
g4
(g6
S'\x00\x90p\xda=\x821@'
tRp22
sS'vel-peaks'
p23
cnumpy.core.multiarray
_reconstruct
p24
(cnumpy
ndarray
p25
(I0
tS'b'
tRp26
(I1
(I1
tg6
I00
S'\x90iS\x16\xbe8 @'
tbsS'grid'
p27
(I3
I7
tp28
sS'fname'
p29
S'data_l_005.92_b_006.00_grid_003_007'
p30
sS'time'
p31
ctime
struct_time
p32
((I2014
I5
I5
I3
I46
I13
I0
I125
I1
t(dtRp33
sS'f_low'
p34
F1268.9000000000001
sS'T_Sys_Right'
p35
g4
(g6
S'ru\xb2\xf3\x19\x9ap@'
tRp36
sS'f_high'
p37
F1271.9000000000001
sS'col-density'
p38
g4
(g6
S'\x9c*\xbdt\xa1\xe1aD'
tRp39
s.