(dp1
S'n_obs'
p2
I174
sS'dispersion'
p3
cnumpy.core.multiarray
scalar
p4
(cnumpy
dtype
p5
(S'f8'
I0
I1
tRp6
(I3
S'<'
NNNI-1
I-1
I0
tbS'^\x1f\xd1l{\xda0@'
tRp7
sS'b'
F0
sS'fname'
p8
S'data_l_210.00_b_000.00_grid_000_000'
p9
sS'vel-center'
p10
g4
(g6
S'){\\\xde\x80\xbf:@'
tRp11
sS'rec-success'
p12
I01
sS'unixtime'
p13
F1398562680
sS'G_Right'
p14
g4
(g6
S'\x8e^\x17$\xe9(\xfd?'
tRp15
sS'l'
F210
sS'G_Left'
p16
g4
(g6
S's`\xc7H\xf4\x8e\xe1?'
tRp17
sS'T_Sys_Left'
p18
g4
(g6
S'vW\xa9\xa4\x16!p@'
tRp19
sS'jd'
p20
F2456774.5680555557
sS'lst'
p21
g4
(g6
S'\x00\x80\xc2\xee\xd2H\x1f@'
tRp22
sS'vel-peaks'
p23
cnumpy.core.multiarray
_reconstruct
p24
(cnumpy
ndarray
p25
(I0
tS'b'
tRp26
(I1
(I3
tg6
I00
S'>v{\xa7\xc8\x83E@d\xe4\xbe\xd4\xbe\xc66@`\x03\xe3-i\xe3#@'
tbsS'grid'
p27
(I0
I0
tp28
sS'n_cal'
p29
I18
sS'time'
p30
ctime
struct_time
p31
((I2014
I4
I26
I18
I38
I0
I5
I116
I1
t(dtRp32
sS'f_low'
p33
F1268.9000000000001
sS'T_Sys_Right'
p34
g4
(g6
S'\xf06\x0b/\x85\xc1r@'
tRp35
sS'f_high'
p36
F1271.9000000000001
sS'col-density'
p37
g4
(g6
S'Lt\xaa\xddyGuD'
tRp38
s.