(dp1
S'n_obs'
p2
I87
sS'dispersion'
p3
cnumpy.core.multiarray
scalar
p4
(cnumpy
dtype
p5
(S'f8'
I0
I1
tRp6
(I3
S'<'
NNNI-1
I-1
I0
tbS"\x0b$\x9by\x8d.'@"
tRp7
sS'b'
F44
sS'n_cal'
p8
I9
sS'vel-center'
p9
g4
(g6
S'(\x04\xe4v&J\x18\xc0'
tRp10
sS'rec-success'
p11
I01
sS'unixtime'
p12
F1399098486.0539939
sS'G_Right'
p13
g4
(g6
S'A\xad.A\x00-\x02@'
tRp14
sS'l'
g4
(g6
S'L&\xa8\x9a\x8eVr@'
tRp15
sS'G_Left'
p16
g4
(g6
S'\\5\x9cTZ+\xdc?'
tRp17
sS'T_Sys_Left'
p18
g4
(g6
S'\x9d\x16\xce\xc4\x80xq@'
tRp19
sS'jd'
p20
F2456780.7695138888
sS'lst'
p21
g4
(g6
S'\x00\xc0\x83\xff\x91 *@'
tRp22
sS'vel-peaks'
p23
cnumpy.core.multiarray
_reconstruct
p24
(cnumpy
ndarray
p25
(I0
tS'b'
tRp26
(I1
(I1
tg6
I00
S'\xf6\x8ct\x16\x12O\x10\xc0'
tbsS'grid'
p27
(I22
I30
tp28
sS'fname'
p29
S'data_l_293.41_b_044.00_grid_022_030'
p30
sS'time'
p31
ctime
struct_time
p32
((I2014
I5
I2
I23
I28
I6
I4
I122
I1
t(dtRp33
sS'f_low'
p34
F1268.9000000000001
sS'T_Sys_Right'
p35
g4
(g6
S'uRak\\\xc4q@'
tRp36
sS'f_high'
p37
F1271.9000000000001
sS'col-density'
p38
g4
(g6
S'\x03\xf4\xa2\xca\xa0\x017D'
tRp39
s.