(dp1
S'n_obs'
p2
I87
sS'dispersion'
p3
cnumpy.core.multiarray
scalar
p4
(cnumpy
dtype
p5
(S'f8'
I0
I1
tRp6
(I3
S'<'
NNNI-1
I-1
I0
tbS'F\x069\x91\x06\xbd0@'
tRp7
sS'b'
F44
sS'n_cal'
p8
I9
sS'vel-center'
p9
g4
(g6
S"\xd4\xdb\xefj\xa1\xcf'\xc0"
tRp10
sS'rec-success'
p11
I01
sS'unixtime'
p12
F1399096037.279942
sS'G_Right'
p13
g4
(g6
S'e\xef\xaf\xfc\xc3\xb3\x00@'
tRp14
sS'l'
g4
(g6
S'\xac\x81\xd7\xc2\xe1\xa3k@'
tRp15
sS'G_Left'
p16
g4
(g6
S'G\x1c1\xa7\x95\xa7\xde?'
tRp17
sS'T_Sys_Left'
p18
g4
(g6
S'\x06\xd1\xa7~\xebcr@'
tRp19
sS'jd'
p20
F2456780.7411689814
sS'lst'
p21
g4
(g6
S'\x00\x80\xb4\x80P\xc3(@'
tRp22
sS'vel-peaks'
p23
cnumpy.core.multiarray
_reconstruct
p24
(cnumpy
ndarray
p25
(I0
tS'b'
tRp26
(I1
(I1
tg6
I00
S'P\xe7\xea\x99}\x93\t\xc0'
tbsS'grid'
p27
(I22
I4
tp28
sS'fname'
p29
S'data_l_221.12_b_044.00_grid_022_004'
p30
sS'time'
p31
ctime
struct_time
p32
((I2014
I5
I2
I22
I47
I17
I4
I122
I1
t(dtRp33
sS'f_low'
p34
F1268.9000000000001
sS'T_Sys_Right'
p35
g4
(g6
S'\x7f\x1b\xde\x84;\to@'
tRp36
sS'f_high'
p37
F1271.9000000000001
sS'col-density'
p38
g4
(g6
S'\x9ep\xfd\xb9\xfb,6D'
tRp39
s.