(dp1
S'n_obs'
p2
I87
sS'dispersion'
p3
cnumpy.core.multiarray
scalar
p4
(cnumpy
dtype
p5
(S'f8'
I0
I1
tRp6
(I3
S'<'
NNNI-1
I-1
I0
tbS'\x08\x19:mC~\x1f@'
tRp7
sS'b'
F24
sS'n_cal'
p8
I9
sS'vel-center'
p9
g4
(g6
S'\x8b\x84\x89\x86\x99\x92\xd0\xbf'
tRp10
sS'rec-success'
p11
I01
sS'unixtime'
p12
F1399182723.0436261
sS'G_Right'
p13
g4
(g6
S'd\x96\xed\x98\xc2\xb1\xff?'
tRp14
sS'l'
g4
(g6
S'`\xcb$U\xe8\xa0n@'
tRp15
sS'G_Left'
p16
g4
(g6
S"d\x90\x8cE\x7f'\xe0?"
tRp17
sS'T_Sys_Left'
p18
g4
(g6
S'|H\x15W\x10\xfaq@'
tRp19
sS'jd'
p20
F2456781.7444791668
sS'lst'
p21
g4
(g6
S'\x00`g\xac\xbe\r)@'
tRp22
sS'vel-peaks'
p23
cnumpy.core.multiarray
_reconstruct
p24
(cnumpy
ndarray
p25
(I0
tS'b'
tRp26
(I1
(I1
tg6
I00
S'\xb0\xb7\\\xa7U\xb6\x03\xc0'
tbsS'grid'
p27
(I12
I16
tp28
sS'fname'
p29
S'data_l_245.03_b_024.00_grid_012_016'
p30
sS'time'
p31
ctime
struct_time
p32
((I2014
I5
I3
I22
I52
I3
I5
I123
I1
t(dtRp33
sS'f_low'
p34
F1268.9000000000001
sS'T_Sys_Right'
p35
g4
(g6
S'[*\xd2\xd9>\xb7p@'
tRp36
sS'f_high'
p37
F1271.9000000000001
sS'col-density'
p38
g4
(g6
S'\xed\xa5O\x19\x1eT9D'
tRp39
s.