(dp1
S'n_obs'
p2
I87
sS'dispersion'
p3
cnumpy.core.multiarray
scalar
p4
(cnumpy
dtype
p5
(S'f8'
I0
I1
tRp6
(I3
S'<'
NNNI-1
I-1
I0
tbS'\xd9\xc8_\x9at\x86-@'
tRp7
sS'b'
F52
sS'n_cal'
p8
I9
sS'vel-center'
p9
g4
(g6
S"\xd1}\xbc \xf9'\x12\xc0"
tRp10
sS'rec-success'
p11
I01
sS'unixtime'
p12
F1399106722.2688639
sS'G_Right'
p13
g4
(g6
S'`wwC\x0f\xef\x01@'
tRp14
sS'l'
g4
(g6
S'\x1f<\xde\x8b\x10?u@'
tRp15
sS'G_Left'
p16
g4
(g6
S't87\x83\xa5\x8c\xdc?'
tRp17
sS'T_Sys_Left'
p18
g4
(g6
S's\x90!\xc5\xda\xbdo@'
tRp19
sS'jd'
p20
F2456780.8648379631
sS'lst'
p21
g4
(g6
S'\x00`{\x9b\x1e\xb7.@'
tRp22
sS'vel-peaks'
p23
cnumpy.core.multiarray
_reconstruct
p24
(cnumpy
ndarray
p25
(I0
tS'b'
tRp26
(I1
(I1
tg6
I00
S'x\xae`lH\xee\xf5\xbf'
tbsS'grid'
p27
(I26
I40
tp28
sS'fname'
p29
S'data_l_339.94_b_052.00_grid_026_040'
p30
sS'time'
p31
ctime
struct_time
p32
((I2014
I5
I3
I1
I45
I22
I5
I123
I1
t(dtRp33
sS'f_low'
p34
F1268.9000000000001
sS'T_Sys_Right'
p35
g4
(g6
S'$|\\<\xd2\xdep@'
tRp36
sS'f_high'
p37
F1271.9000000000001
sS'col-density'
p38
g4
(g6
S'\x0c\x9e\x9cL\xc1c:D'
tRp39
s.