(dp1
S'n_obs'
p2
I174
sS'dispersion'
p3
cnumpy.core.multiarray
scalar
p4
(cnumpy
dtype
p5
(S'f8'
I0
I1
tRp6
(I3
S'<'
NNNI-1
I-1
I0
tbS'\xc9\x9c\x19c-\xf33@'
tRp7
sS'b'
F2
sS'fname'
p8
S'data_l_217.90_b_002.00_grid_001_081'
p9
sS'vel-center'
p10
g4
(g6
S'*\xfe;\xd1?WA@'
tRp11
sS'rec-success'
p12
I01
sS'unixtime'
p13
F1398571740
sS'G_Right'
p14
g4
(g6
S'\xda?\xfc1G=\x01@'
tRp15
sS'l'
g4
(g6
S' 7B\x12\xd7<k@'
tRp16
sS'G_Left'
p17
g4
(g6
S'\x10z}(\x10\xb3\xdd?'
tRp18
sS'T_Sys_Left'
p19
g4
(g6
S'f\xce\x87Gk\xd3p@'
tRp20
sS'jd'
p21
F2456774.6729166666
sS'lst'
p22
g4
(g6
S'\x00@c#y\xb0$@'
tRp23
sS'vel-peaks'
p24
cnumpy.core.multiarray
_reconstruct
p25
(cnumpy
ndarray
p26
(I0
tS'b'
tRp27
(I1
(I2
tg6
I00
S'\xb0X=d\x8a\xf4I@\x98\xe7Y\x80\rT;@'
tbsS'grid'
p28
(I1
I81
tp29
sS'n_cal'
p30
I18
sS'time'
p31
ctime
struct_time
p32
((I2014
I4
I26
I21
I9
I0
I5
I116
I1
t(dtRp33
sS'f_low'
p34
F1268.9000000000001
sS'T_Sys_Right'
p35
g4
(g6
S'p\xcd\x9d@\xc4\x87s@'
tRp36
sS'f_high'
p37
F1271.9000000000001
sS'col-density'
p38
g4
(g6
S'$W$t?osD'
tRp39
s.