(dp1
S'n_obs'
p2
I87
sS'dispersion'
p3
cnumpy.core.multiarray
scalar
p4
(cnumpy
dtype
p5
(S'f8'
I0
I1
tRp6
(I3
S'<'
NNNI-1
I-1
I0
tbS'A\x90\x96rw\xaf7@'
tRp7
sS'b'
F8
sS'n_cal'
p8
I9
sS'vel-center'
p9
g4
(g6
S'\n\xdd##\xa1T;@'
tRp10
sS'rec-success'
p11
I01
sS'unixtime'
p12
F1399177347.3451729
sS'G_Right'
p13
g4
(g6
S'#6\xd5\xf1<\xb0\xfe?'
tRp14
sS'l'
g4
(g6
S'\x10"\x9d\x1e\x08El@'
tRp15
sS'G_Left'
p16
g4
(g6
S'\x00A\xf7O\x0e\xaf\xe0?'
tRp17
sS'T_Sys_Left'
p18
g4
(g6
S'\xa7>-u\xb0`q@'
tRp19
sS'jd'
p20
F2456781.6822569445
sS'lst'
p21
g4
(g6
S'\x00\x80\x7f\x95\x10\x0f&@'
tRp22
sS'vel-peaks'
p23
cnumpy.core.multiarray
_reconstruct
p24
(cnumpy
ndarray
p25
(I0
tS'b'
tRp26
(I1
(I2
tg6
I00
S'\xc6\xd6eS\xd6\xfc3@\xa0\xf9\x89\x84^o\xf9?'
tbsS'grid'
p27
(I4
I8
tp28
sS'fname'
p29
S'data_l_226.16_b_008.00_grid_004_008'
p30
sS'time'
p31
ctime
struct_time
p32
((I2014
I5
I3
I21
I22
I27
I5
I123
I1
t(dtRp33
sS'f_low'
p34
F1268.9000000000001
sS'T_Sys_Right'
p35
g4
(g6
S'\xa8\xc7`<\x98\xe7o@'
tRp36
sS'f_high'
p37
F1271.9000000000001
sS'col-density'
p38
g4
(g6
S"\x0e^&\xa9\x15'XD"
tRp39
s.