(dp1
S'n_obs'
p2
I87
sS'dispersion'
p3
cnumpy.core.multiarray
scalar
p4
(cnumpy
dtype
p5
(S'f8'
I0
I1
tRp6
(I3
S'<'
NNNI-1
I-1
I0
tbS'\xfd\xb2\\\xe5<\x96&@'
tRp7
sS'b'
F52
sS'n_cal'
p8
I9
sS'vel-center'
p9
g4
(g6
S'}\x91\x8c\xe5\xbd\xd1\x10\xc0'
tRp10
sS'rec-success'
p11
I01
sS'unixtime'
p12
F1399107879.8969669
sS'G_Right'
p13
g4
(g6
S'\xbd;\xfc\x9c\x1f\xbe\x01@'
tRp14
sS'l'
g4
(g6
S'\xa0d\xb9\xda\x95\xda(@'
tRp15
sS'G_Left'
p16
g4
(g6
S'\x12a\xa0\x85c\xdb\xdc?'
tRp17
sS'T_Sys_Left'
p18
g4
(g6
S'Su\x7f&\xaa}q@'
tRp19
sS'jd'
p20
F2456780.8782291664
sS'lst'
p21
g4
(g6
S'\x00\x80g\x06\x1f\\/@'
tRp22
sS'vel-peaks'
p23
cnumpy.core.multiarray
_reconstruct
p24
(cnumpy
ndarray
p25
(I0
tS'b'
tRp26
(I1
(I1
tg6
I00
S'@\x17\xb4\x13\x1e\x87\x03\xc0'
tbsS'grid'
p27
(I26
I50
tp28
sS'fname'
p29
S'data_l_012.43_b_052.00_grid_026_050'
p30
sS'time'
p31
ctime
struct_time
p32
((I2014
I5
I3
I2
I4
I39
I5
I123
I1
t(dtRp33
sS'f_low'
p34
F1268.9000000000001
sS'T_Sys_Right'
p35
g4
(g6
S'm\xe4*\x88NBs@'
tRp36
sS'f_high'
p37
F1271.9000000000001
sS'col-density'
p38
g4
(g6
S'\n\xa9\xfc\xde\x1b06D'
tRp39
s.