(dp1
S'n_obs'
p2
I87
sS'dispersion'
p3
cnumpy.core.multiarray
scalar
p4
(cnumpy
dtype
p5
(S'f8'
I0
I1
tRp6
(I3
S'<'
NNNI-1
I-1
I0
tbS'\xde|",\x83\xd5*@'
tRp7
sS'b'
F60
sS'n_cal'
p8
I9
sS'vel-center'
p9
g4
(g6
S'\xd5\xa9\x18\xba\x02\xbe.\xc0'
tRp10
sS'rec-success'
p11
I01
sS'unixtime'
p12
F1399273171.096776
sS'G_Right'
p13
g4
(g6
S'/\x8aW<\x9e\xf4\xff?'
tRp14
sS'l'
g4
(g6
S'\x00\x00\x00\x00\x00@k@'
tRp15
sS'G_Left'
p16
g4
(g6
S'\xbce\xbd\xe8\xb2\x05\xe0?'
tRp17
sS'T_Sys_Left'
p18
g4
(g6
S';\x82Eu\x83lp@'
tRp19
sS'jd'
p20
F2456782.7913310183
sS'lst'
p21
g4
(g6
S'\x00\xe02\x18\xaep+@'
tRp22
sS'vel-peaks'
p23
cnumpy.core.multiarray
_reconstruct
p24
(cnumpy
ndarray
p25
(I0
tS'b'
tRp26
(I1
(I0
tg6
I00
S''
tbsS'grid'
p27
(I30
I2
tp28
sS'fname'
p29
S'data_l_218.00_b_060.00_grid_030_002'
p30
sS'time'
p31
ctime
struct_time
p32
((I2014
I5
I4
I23
I59
I31
I6
I124
I1
t(dtRp33
sS'f_low'
p34
F1268.9000000000001
sS'T_Sys_Right'
p35
g4
(g6
S'[\x11.\xd3\x10@o@'
tRp36
sS'f_high'
p37
F1271.9000000000001
sS'col-density'
p38
g4
(g6
S'\xbay\x18K\x11\x83%D'
tRp39
s.