(dp1
S'n_obs'
p2
I87
sS'dispersion'
p3
cnumpy.core.multiarray
scalar
p4
(cnumpy
dtype
p5
(S'f8'
I0
I1
tRp6
(I3
S'<'
NNNI-1
I-1
I0
tbS'\xa4]S\xc07J @'
tRp7
sS'b'
F28
sS'n_cal'
p8
I9
sS'vel-center'
p9
g4
(g6
S'\xbf3m\x86\x93\x88\x02\xc0'
tRp10
sS'rec-success'
p11
I01
sS'unixtime'
p12
F1399183275.293618
sS'G_Right'
p13
g4
(g6
S'\x19\xb3\xf7\x1b\xf2\xe5\xfe?'
tRp14
sS'l'
g4
(g6
S'\x8a\x9f\xb0\x7f\xb8Xo@'
tRp15
sS'G_Left'
p16
g4
(g6
S'\xba\x9d\x87O\x0e\x92\xe0?'
tRp17
sS'T_Sys_Left'
p18
g4
(g6
S'i&\x0b%\x10xp@'
tRp19
sS'jd'
p20
F2456781.7508680555
sS'lst'
p21
g4
(g6
S'\x00\x80\xbbgw\\)@'
tRp22
sS'vel-peaks'
p23
cnumpy.core.multiarray
_reconstruct
p24
(cnumpy
ndarray
p25
(I0
tS'b'
tRp26
(I1
(I1
tg6
I00
S'\xa8\x9c>\x80\x908\x11\xc0'
tbsS'grid'
p27
(I14
I18
tp28
sS'fname'
p29
S'data_l_250.77_b_028.00_grid_014_018'
p30
sS'time'
p31
ctime
struct_time
p32
((I2014
I5
I3
I23
I1
I15
I5
I123
I1
t(dtRp33
sS'f_low'
p34
F1268.9000000000001
sS'T_Sys_Right'
p35
g4
(g6
S'\xf4\xd5V\xa2\xd3\x00p@'
tRp36
sS'f_high'
p37
F1271.9000000000001
sS'col-density'
p38
g4
(g6
S'\xbb@t9jL;D'
tRp39
s.