(dp1
S'n_obs'
p2
I87
sS'dispersion'
p3
cnumpy.core.multiarray
scalar
p4
(cnumpy
dtype
p5
(S'f8'
I0
I1
tRp6
(I3
S'<'
NNNI-1
I-1
I0
tbS'\xd6\xe5,\x0e\xc8\xac&@'
tRp7
sS'b'
F48
sS'n_cal'
p8
I9
sS'vel-center'
p9
g4
(g6
S"\x18/\x0f1\xd1q'\xc0"
tRp10
sS'rec-success'
p11
I01
sS'unixtime'
p12
F1399100899.876528
sS'G_Right'
p13
g4
(g6
S'\xa5\x81\x97M\xf9M\x00@'
tRp14
sS'l'
g4
(g6
S'h\x9d\xc4\x07,\x1dp@'
tRp15
sS'G_Left'
p16
g4
(g6
S'z\x97\xba/\xf7f\xdf?'
tRp17
sS'T_Sys_Left'
p18
g4
(g6
S'\xfdP\xfe\xbbi!n@'
tRp19
sS'jd'
p20
F2456780.7974421298
sS'lst'
p21
g4
(g6
S'\x00\x80\xa2/\xb1x+@'
tRp22
sS'vel-peaks'
p23
cnumpy.core.multiarray
_reconstruct
p24
(cnumpy
ndarray
p25
(I0
tS'b'
tRp26
(I1
(I1
tg6
I00
S'\x9c\xc4\x17\x07R} \xc0'
tbsS'grid'
p27
(I24
I16
tp28
sS'fname'
p29
S'data_l_257.82_b_048.00_grid_024_016'
p30
sS'time'
p31
ctime
struct_time
p32
((I2014
I5
I3
I0
I8
I19
I5
I123
I1
t(dtRp33
sS'f_low'
p34
F1268.9000000000001
sS'T_Sys_Right'
p35
g4
(g6
S'\x17\x10\x95\\\xbf\xa2p@'
tRp36
sS'f_high'
p37
F1271.9000000000001
sS'col-density'
p38
g4
(g6
S'C\xa4 Z\x89+3D'
tRp39
s.