(dp1
S'n_obs'
p2
I87
sS'dispersion'
p3
cnumpy.core.multiarray
scalar
p4
(cnumpy
dtype
p5
(S'f8'
I0
I1
tRp6
(I3
S'<'
NNNI-1
I-1
I0
tbS'\x115\x10^\x832 @'
tRp7
sS'b'
F28
sS'n_cal'
p8
I9
sS'vel-center'
p9
g4
(g6
S'\xcb\xce\x1a\xb9\xfc\x17\t\xc0'
tRp10
sS'rec-success'
p11
I01
sS'unixtime'
p12
F1398840279
sS'G_Right'
p13
g4
(g6
S'_L\x9b\x9cPI\xfd?'
tRp14
sS'l'
g4
(g6
S'\xd0\x8d\x80q\xc0\xc7n@'
tRp15
sS'G_Left'
p16
g4
(g6
S'\x0f\x1e\\\xcd\x86{\xe1?'
tRp17
sS'T_Sys_Left'
p18
g4
(g6
S'\xc4p\xadHS9k@'
tRp19
sS'jd'
p20
F2456777.7810069444
sS'lst'
p21
g4
(g6
S'\x00\xe0d\xdb@I*@'
tRp22
sS'vel-peaks'
p23
cnumpy.core.multiarray
_reconstruct
p24
(cnumpy
ndarray
p25
(I0
tS'b'
tRp26
(I1
(I1
tg6
I00
S'\xb0\x05\xa4XOU\x08\xc0'
tbsS'grid'
p27
(I14
I16
tp28
sS'fname'
p29
S'data_l_246.24_b_028.00_grid_014_016'
p30
sS'time'
p31
ctime
struct_time
p32
((I2014
I4
I29
I23
I44
I39
I1
I119
I1
t(dtRp33
sS'f_low'
p34
F1268.9000000000001
sS'T_Sys_Right'
p35
g4
(g6
S'a3\xac\x92\\\x85v@'
tRp36
sS'f_high'
p37
F1271.9000000000001
sS'col-density'
p38
g4
(g6
S'\xcc\xc8\x94\xbc\x89\xa18D'
tRp39
s.