(dp1
S'n_obs'
p2
I87
sS'dispersion'
p3
cnumpy.core.multiarray
scalar
p4
(cnumpy
dtype
p5
(S'f8'
I0
I1
tRp6
(I3
S'<'
NNNI-1
I-1
I0
tbS'{\xa7\x1b\xf1\xb0\x8a,@'
tRp7
sS'b'
F64
sS'n_cal'
p8
I9
sS'vel-center'
p9
g4
(g6
S'\\q2H\x1d\xd7$\xc0'
tRp10
sS'rec-success'
p11
I01
sS'unixtime'
p12
F1399114423.008153
sS'G_Right'
p13
g4
(g6
S'\xd7\x1b\x01<H\xaa\xfd?'
tRp14
sS'l'
g4
(g6
S'\x80zR5 },@'
tRp15
sS'G_Left'
p16
g4
(g6
S'\xf7\x03\xf7\x88aB\xe1?'
tRp17
sS'T_Sys_Left'
p18
g4
(g6
S'&\xef\xa0\xae\x823q@'
tRp19
sS'jd'
p20
F2456780.9539699075
sS'lst'
p21
g4
(g6
S'\x00\xf0x\x90\xaf\x801@'
tRp22
sS'vel-peaks'
p23
cnumpy.core.multiarray
_reconstruct
p24
(cnumpy
ndarray
p25
(I0
tS'b'
tRp26
(I1
(I1
tg6
I00
S'h\x9a\xbbI\xf3\x95\x03\xc0'
tbsS'grid'
p27
(I32
I36
tp28
sS'fname'
p29
S'data_l_014.24_b_064.00_grid_032_036'
p30
sS'time'
p31
ctime
struct_time
p32
((I2014
I5
I3
I3
I53
I43
I5
I123
I1
t(dtRp33
sS'f_low'
p34
F1268.9000000000001
sS'T_Sys_Right'
p35
g4
(g6
S'\x0c\x15f(o7p@'
tRp36
sS'f_high'
p37
F1271.9000000000001
sS'col-density'
p38
g4
(g6
S'\xdf\x06 \xd05\x9f.D'
tRp39
s.