(dp1
S'n_obs'
p2
I87
sS'dispersion'
p3
cnumpy.core.multiarray
scalar
p4
(cnumpy
dtype
p5
(S'f8'
I0
I1
tRp6
(I3
S'<'
NNNI-1
I-1
I0
tbS'gq\xe0\xe6\xaa\x9b$@'
tRp7
sS'b'
F36
sS'n_cal'
p8
I9
sS'vel-center'
p9
g4
(g6
S'\xf1\xd3\x14\xa9\x1fb\x07\xc0'
tRp10
sS'rec-success'
p11
I01
sS'unixtime'
p12
F1399186087.574178
sS'G_Right'
p13
g4
(g6
S'w\xcf`\xaa\xe5\xc0\xfe?'
tRp14
sS'l'
g4
(g6
S'\x9ay\x85G\xf3\xcfo@'
tRp15
sS'G_Left'
p16
g4
(g6
S'1\x93@\xb2\x04\xa6\xe0?'
tRp17
sS'T_Sys_Left'
p18
g4
(g6
S'\xe8\x1b\x1a\xf8\xa9\x0ep@'
tRp19
sS'jd'
p20
F2456781.7834143518
sS'lst'
p21
g4
(g6
S'\x00\xa0?\x83}\xed*@'
tRp22
sS'vel-peaks'
p23
cnumpy.core.multiarray
_reconstruct
p24
(cnumpy
ndarray
p25
(I0
tS'b'
tRp26
(I1
(I1
tg6
I00
S' \x15\x8b}\x81\xa3\x10\xc0'
tbsS'grid'
p27
(I18
I18
tp28
sS'fname'
p29
S'data_l_254.50_b_036.00_grid_018_018'
p30
sS'time'
p31
ctime
struct_time
p32
((I2014
I5
I3
I23
I48
I7
I5
I123
I1
t(dtRp33
sS'f_low'
p34
F1268.9000000000001
sS'T_Sys_Right'
p35
g4
(g6
S'\xb3\xe8\xb34\xf3[o@'
tRp36
sS'f_high'
p37
F1271.9000000000001
sS'col-density'
p38
g4
(g6
S'\xaf\x7fYy\x0eZ;D'
tRp39
s.