(dp1
S'n_obs'
p2
I87
sS'dispersion'
p3
cnumpy.core.multiarray
scalar
p4
(cnumpy
dtype
p5
(S'f8'
I0
I1
tRp6
(I3
S'<'
NNNI-1
I-1
I0
tbS'{w\xf7\x8d\xd8Q @'
tRp7
sS'b'
F28
sS'n_cal'
p8
I9
sS'vel-center'
p9
g4
(g6
S'\xb0c\xd6\x8e\xdb`\xd3?'
tRp10
sS'rec-success'
p11
I01
sS'unixtime'
p12
F1398841638
sS'G_Right'
p13
g4
(g6
S'U^\xcd\x19\xbc\x1c\xfa?'
tRp14
sS'l'
g4
(g6
S'\x80PKL<\x1e\x10@'
tRp15
sS'G_Left'
p16
g4
(g6
S'\xe5I\xac\x8a\x8f\x9b\xe3?'
tRp17
sS'T_Sys_Left'
p18
g4
(g6
S'`\xa1\xcfbu\rp@'
tRp19
sS'jd'
p20
F2456777.7967361109
sS'lst'
p21
g4
(g6
S'\x00`\xf0\x01\x10\x0b+@'
tRp22
sS'vel-peaks'
p23
cnumpy.core.multiarray
_reconstruct
p24
(cnumpy
ndarray
p25
(I0
tS'b'
tRp26
(I1
(I1
tg6
I00
S'\x18\xfc\x0fk\xfeg\x01@'
tbsS'grid'
p27
(I14
I68
tp28
sS'fname'
p29
S'data_l_004.03_b_028.00_grid_014_068'
p30
sS'time'
p31
ctime
struct_time
p32
((I2014
I4
I30
I0
I7
I18
I2
I120
I1
t(dtRp33
sS'f_low'
p34
F1268.9000000000001
sS'T_Sys_Right'
p35
g4
(g6
S"\t\x1c\xfb\xef\xaf'\x80@"
tRp36
sS'f_high'
p37
F1271.9000000000001
sS'col-density'
p38
g4
(g6
S'\xbc\xeb\x1b\x94f\x13XD'
tRp39
s.