(dp1
S'n_obs'
p2
I87
sS'dispersion'
p3
cnumpy.core.multiarray
scalar
p4
(cnumpy
dtype
p5
(S'f8'
I0
I1
tRp6
(I3
S'<'
NNNI-1
I-1
I0
tbS';\xf8\x11\xfc\x13_"@'
tRp7
sS'b'
F32
sS'n_cal'
p8
I9
sS'vel-center'
p9
g4
(g6
S'S\xaa\x8e9Mg\x02@'
tRp10
sS'rec-success'
p11
I01
sS'unixtime'
p12
F1398846229
sS'G_Right'
p13
g4
(g6
S'\xa8\tv\x9eNF\x00@'
tRp14
sS'l'
g4
(g6
S'\x80\xeb\xb4\x8f;\xcd3@'
tRp15
sS'G_Left'
p16
g4
(g6
S'\xdao\xa28\xc2u\xdf?'
tRp17
sS'T_Sys_Left'
p18
g4
(g6
S'\x91\xcdZ\xd7;!n@'
tRp19
sS'jd'
p20
F2456777.849872685
sS'lst'
p21
g4
(g6
S'\x00\xc0\xec\xdd\xca\x99-@'
tRp22
sS'vel-peaks'
p23
cnumpy.core.multiarray
_reconstruct
p24
(cnumpy
ndarray
p25
(I0
tS'b'
tRp26
(I1
(I1
tg6
I00
S'\x00!\x9f\xbf\x1a\xeb\xb9\xbf'
tbsS'grid'
p27
(I16
I72
tp28
sS'fname'
p29
S'data_l_019.80_b_032.00_grid_016_072'
p30
sS'time'
p31
ctime
struct_time
p32
((I2014
I4
I30
I1
I23
I49
I2
I120
I1
t(dtRp33
sS'f_low'
p34
F1268.9000000000001
sS'T_Sys_Right'
p35
g4
(g6
S'\x87\xcdm\x02\x9a#l@'
tRp36
sS'f_high'
p37
F1271.9000000000001
sS'col-density'
p38
g4
(g6
S'\xc8\x84SC\x96\x86<D'
tRp39
s.