(dp1
S'n_obs'
p2
I87
sS'dispersion'
p3
cnumpy.core.multiarray
scalar
p4
(cnumpy
dtype
p5
(S'f8'
I0
I1
tRp6
(I3
S'<'
NNNI-1
I-1
I0
tbS'\x9aB4\xe7\x8b\xc6"@'
tRp7
sS'b'
F44
sS'n_cal'
p8
I9
sS'vel-center'
p9
g4
(g6
S'\xee=\x19]\xf5\x93\x11\xc0'
tRp10
sS'rec-success'
p11
I01
sS'unixtime'
p12
F1399098255.367276
sS'G_Right'
p13
g4
(g6
S"B'\xd7\xf2<\xa1\x01@"
tRp14
sS'l'
g4
(g6
S'\xe0E\xf2)\x96\xfdq@'
tRp15
sS'G_Left'
p16
g4
(g6
S'v\x13\x87N\xab\n\xdd?'
tRp17
sS'T_Sys_Left'
p18
g4
(g6
S'\x9c\xf1\xd2zOgp@'
tRp19
sS'jd'
p20
F2456780.7668402777
sS'lst'
p21
g4
(g6
S'\x00`\x96\x84\xa0\xff)@'
tRp22
sS'vel-peaks'
p23
cnumpy.core.multiarray
_reconstruct
p24
(cnumpy
ndarray
p25
(I0
tS'b'
tRp26
(I1
(I1
tg6
I00
S'\xe8\xedt\xc5\xbcP\x11\xc0'
tbsS'grid'
p27
(I22
I28
tp28
sS'fname'
p29
S'data_l_287.85_b_044.00_grid_022_028'
p30
sS'time'
p31
ctime
struct_time
p32
((I2014
I5
I2
I23
I24
I15
I4
I122
I1
t(dtRp33
sS'f_low'
p34
F1268.9000000000001
sS'T_Sys_Right'
p35
g4
(g6
S'\xed\xf3\r\x0b\x08\xc7r@'
tRp36
sS'f_high'
p37
F1271.9000000000001
sS'col-density'
p38
g4
(g6
S"\xf8'\x90\x91n(8D"
tRp39
s.