(dp1
S'n_obs'
p2
I174
sS'dispersion'
p3
cnumpy.core.multiarray
scalar
p4
(cnumpy
dtype
p5
(S'f8'
I0
I1
tRp6
(I3
S'<'
NNNI-1
I-1
I0
tbS'e\x9b\xb3\x17\xc2\xb92@'
tRp7
sS'b'
F4
sS'fname'
p8
S'data_l_212.00_b_004.00_grid_002_001'
p9
sS'vel-center'
p10
g4
(g6
S'\xd3J\xbd\xc7\x1e\xab8@'
tRp11
sS'rec-success'
p12
I01
sS'unixtime'
p13
F1398645540
sS'G_Right'
p14
g4
(g6
S'9\xbf\xe2\xd91M\xfc?'
tRp15
sS'l'
g4
(g6
S'\x86\x19\x10\x02(\x80j@'
tRp16
sS'G_Left'
p17
g4
(g6
S'6\x97\xc0`D\x17\xe2?'
tRp18
sS'T_Sys_Left'
p19
g4
(g6
S'B~5L\x17l{@'
tRp20
sS'jd'
p21
F2456775.5270833336
sS'lst'
p22
g4
(g6
S'\x00\x80\x01\xack\x9a\x1b@'
tRp23
sS'vel-peaks'
p24
cnumpy.core.multiarray
_reconstruct
p25
(cnumpy
ndarray
p26
(I0
tS'b'
tRp27
(I1
(I2
tg6
I00
S'\xfe\xdf\xb7\xc2\x96\x81E@8\x0b\xc9\x01\xbc\x04&@'
tbsS'grid'
p28
(I2
I1
tp29
sS'n_cal'
p30
I18
sS'time'
p31
ctime
struct_time
p32
((I2014
I4
I27
I17
I39
I0
I6
I117
I1
t(dtRp33
sS'f_low'
p34
F1268.9000000000001
sS'T_Sys_Right'
p35
g4
(g6
S'\x97:0S\xb5\x04t@'
tRp36
sS'f_high'
p37
F1271.9000000000001
sS'col-density'
p38
g4
(g6
S'\x1b\x06\x97`\xeaLqD'
tRp39
s.