(dp1
S'n_obs'
p2
I87
sS'dispersion'
p3
cnumpy.core.multiarray
scalar
p4
(cnumpy
dtype
p5
(S'f8'
I0
I1
tRp6
(I3
S'<'
NNNI-1
I-1
I0
tbS'\x1c\xac\xf3\xa4o\xfe0@'
tRp7
sS'b'
F52
sS'n_cal'
p8
I9
sS'vel-center'
p9
g4
(g6
S'_HK\x9d\xa9`0\xc0'
tRp10
sS'rec-success'
p11
I01
sS'unixtime'
p12
F1399103614.290107
sS'G_Right'
p13
g4
(g6
S'}\xf9\x04\x04\xa8\xa2\x00@'
tRp14
sS'l'
g4
(g6
S'R]\xe8aX\xefo@'
tRp15
sS'G_Left'
p16
g4
(g6
S'\x83(\x18\xca\x1c\xc7\xde?'
tRp17
sS'T_Sys_Left'
p18
g4
(g6
S':\x12\x18\xb2\xcaSp@'
tRp19
sS'jd'
p20
F2456780.8288657404
sS'lst'
p21
g4
(g6
S'\x00\xa0\xea\xf5\xe1\xfb,@'
tRp22
sS'vel-peaks'
p23
cnumpy.core.multiarray
_reconstruct
p24
(cnumpy
ndarray
p25
(I0
tS'b'
tRp26
(I1
(I1
tg6
I00
S'xq\x92\x8e;E\x1c\xc0'
tbsS'grid'
p27
(I26
I14
tp28
sS'fname'
p29
S'data_l_255.48_b_052.00_grid_026_014'
p30
sS'time'
p31
ctime
struct_time
p32
((I2014
I5
I3
I0
I53
I34
I5
I123
I1
t(dtRp33
sS'f_low'
p34
F1268.9000000000001
sS'T_Sys_Right'
p35
g4
(g6
S'O`c\xc3\xae2p@'
tRp36
sS'f_high'
p37
F1271.9000000000001
sS'col-density'
p38
g4
(g6
S'1\x14v\x87\xe5\xc86D'
tRp39
s.