(dp1
S'n_obs'
p2
I87
sS'dispersion'
p3
cnumpy.core.multiarray
scalar
p4
(cnumpy
dtype
p5
(S'f8'
I0
I1
tRp6
(I3
S'<'
NNNI-1
I-1
I0
tbS'\xe4\x14r\xe2\xfc\xaf#@'
tRp7
sS'b'
F36
sS'n_cal'
p8
I9
sS'vel-center'
p9
g4
(g6
S'a\xa7\x05\x86Xy\xdd\xbf'
tRp10
sS'rec-success'
p11
I01
sS'unixtime'
p12
F1398848688
sS'G_Right'
p13
g4
(g6
S'\xa1*o#A\xc0\xf7?'
tRp14
sS'l'
g4
(g6
S'ku\xde!@ev@'
tRp15
sS'G_Left'
p16
g4
(g6
S'sJ\xd5\x10\x97\x8e\xe5?'
tRp17
sS'T_Sys_Left'
p18
g4
(g6
S'\x9f/\xe7p\xdc\x8a\x8a@'
tRp19
sS'jd'
p20
F2456777.8783333334
sS'lst'
p21
g4
(g6
S'\x00@\xedry\xf8.@'
tRp22
sS'vel-peaks'
p23
cnumpy.core.multiarray
_reconstruct
p24
(cnumpy
ndarray
p25
(I0
tS'b'
tRp26
(I1
(I1
tg6
I00
S' \xe3\r\x98\xa4\xb3\xe3\xbf'
tbsS'grid'
p27
(I18
I60
tp28
sS'fname'
p29
S'data_l_358.33_b_036.00_grid_018_060'
p30
sS'time'
p31
ctime
struct_time
p32
((I2014
I4
I30
I2
I4
I48
I2
I120
I1
t(dtRp33
sS'f_low'
p34
F1268.9000000000001
sS'T_Sys_Right'
p35
g4
(g6
S'vG*\xe7!\xd4r@'
tRp36
sS'f_high'
p37
F1271.9000000000001
sS'col-density'
p38
g4
(g6
S'\xc7\x8c"~\x03\x94\\D'
tRp39
s.