(dp1
S'n_obs'
p2
I87
sS'dispersion'
p3
cnumpy.core.multiarray
scalar
p4
(cnumpy
dtype
p5
(S'f8'
I0
I1
tRp6
(I3
S'<'
NNNI-1
I-1
I0
tbS':\x8d\xe8\x03\xf4\xc33@'
tRp7
sS'b'
F44
sS'n_cal'
p8
I9
sS'vel-center'
p9
g4
(g6
S'`\xba\x8b%Z\xdc\xce\xbf'
tRp10
sS'rec-success'
p11
I01
sS'unixtime'
p12
F1399098695.7695761
sS'G_Right'
p13
g4
(g6
S"\xf7\xde\xd8\xc1'\x91\x01@"
tRp14
sS'l'
g4
(g6
S'\xb8\x06^\x0b\x87\xafr@'
tRp15
sS'G_Left'
p16
g4
(g6
S'\xb9\xa0i\xd2A%\xdd?'
tRp17
sS'T_Sys_Left'
p18
g4
(g6
S'\xbd\xbf\xdbUo\x94s@'
tRp19
sS'jd'
p20
F2456780.7719328701
sS'lst'
p21
g4
(g6
S'\x00 %J`>*@'
tRp22
sS'vel-peaks'
p23
cnumpy.core.multiarray
_reconstruct
p24
(cnumpy
ndarray
p25
(I0
tS'b'
tRp26
(I1
(I1
tg6
I00
S'\xac\xc3\xcc\x01i\xe6\r\xc0'
tbsS'grid'
p27
(I22
I32
tp28
sS'fname'
p29
S'data_l_298.97_b_044.00_grid_022_032'
p30
sS'time'
p31
ctime
struct_time
p32
((I2014
I5
I2
I23
I31
I35
I4
I122
I1
t(dtRp33
sS'f_low'
p34
F1268.9000000000001
sS'T_Sys_Right'
p35
g4
(g6
S'\x06\xe3U\x9d|(r@'
tRp36
sS'f_high'
p37
F1271.9000000000001
sS'col-density'
p38
g4
(g6
S'\xff\xd6\xe7\x0c\xe4J:D'
tRp39
s.