(dp1
S'n_obs'
p2
I87
sS'dispersion'
p3
cnumpy.core.multiarray
scalar
p4
(cnumpy
dtype
p5
(S'f8'
I0
I1
tRp6
(I3
S'<'
NNNI-1
I-1
I0
tbS'/o7!\x12\xf0&@'
tRp7
sS'b'
F36
sS'n_cal'
p8
I9
sS'vel-center'
p9
g4
(g6
S'\xc6\xe5\r\x02\x95\x89\xb0?'
tRp10
sS'rec-success'
p11
I01
sS'unixtime'
p12
F1398847872
sS'G_Right'
p13
g4
(g6
S'\xcdn\xad}\x08\xdc\xf6?'
tRp14
sS'l'
g4
(g6
S'\x1f\xf6$\xa8\x08\xc7u@'
tRp15
sS'G_Left'
p16
g4
(g6
S'+<\x0c\xbc\xcee\xe6?'
tRp17
sS'T_Sys_Left'
p18
g4
(g6
S'C]\xeaoe\xf1\xa0@'
tRp19
sS'jd'
p20
F2456777.868888889
sS'lst'
p21
g4
(g6
S'\x00\xc0\tt\x1a\x84.@'
tRp22
sS'vel-peaks'
p23
cnumpy.core.multiarray
_reconstruct
p24
(cnumpy
ndarray
p25
(I0
tS'b'
tRp26
(I1
(I1
tg6
I00
S'\x00qq\x90\xc9\xff\xb8\xbf'
tbsS'grid'
p27
(I18
I56
tp28
sS'fname'
p29
S'data_l_348.44_b_036.00_grid_018_056'
p30
sS'time'
p31
ctime
struct_time
p32
((I2014
I4
I30
I1
I51
I12
I2
I120
I1
t(dtRp33
sS'f_low'
p34
F1268.9000000000001
sS'T_Sys_Right'
p35
g4
(g6
S"\x86\xdb0t'\xdcb@"
tRp36
sS'f_high'
p37
F1271.9000000000001
sS'col-density'
p38
g4
(g6
S'\xe3G\xf9\xa3\xa0\x13nD'
tRp39
s.