(dp1
S'n_obs'
p2
I174
sS'dispersion'
p3
cnumpy.core.multiarray
scalar
p4
(cnumpy
dtype
p5
(S'f8'
I0
I1
tRp6
(I3
S'<'
NNNI-1
I-1
I0
tbS'\xd2\x97e\x9e\xf5\xee7@'
tRp7
sS'b'
F2
sS'fname'
p8
S'data_l_225.91_b_002.00_grid_001_077'
p9
sS'vel-center'
p10
g4
(g6
S'\x04\xffT\x9cs\xbbB@'
tRp11
sS'rec-success'
p12
I01
sS'unixtime'
p13
F1398569760
sS'G_Right'
p14
g4
(g6
S'\x1c/Z3\x84?\xfd?'
tRp15
sS'l'
g4
(g6
S'T\x0b\xb7\x04\xff<l@'
tRp16
sS'G_Left'
p17
g4
(g6
S'\x1f\xd4\xc5(b\x81\xe1?'
tRp18
sS'T_Sys_Left'
p19
g4
(g6
S'\xcb\xa9\x86\xf7\xac\x00h@'
tRp20
sS'jd'
p21
F2456774.6499999999
sS'lst'
p22
g4
(g6
S'\x00\xe0\xd0)\x1a\x96#@'
tRp23
sS'vel-peaks'
p24
cnumpy.core.multiarray
_reconstruct
p25
(cnumpy
ndarray
p26
(I0
tS'b'
tRp27
(I1
(I4
tg6
I00
S'W8\xa0\x08\xc4\xb6N@\xd7\\C\x14\x91\nC@\xdeE\xae\xd2j\x0e1@\x10\x83\xce\xab\xf9\xe5\x07@'
tbsS'grid'
p28
(I1
I77
tp29
sS'n_cal'
p30
I18
sS'time'
p31
ctime
struct_time
p32
((I2014
I4
I26
I20
I36
I0
I5
I116
I1
t(dtRp33
sS'f_low'
p34
F1268.9000000000001
sS'T_Sys_Right'
p35
g4
(g6
S'\x87\x16\xbf9f`h@'
tRp36
sS'f_high'
p37
F1271.9000000000001
sS'col-density'
p38
g4
(g6
S'I\xb2-\xf5\x89+hD'
tRp39
s.