(dp1
S'n_obs'
p2
I87
sS'dispersion'
p3
cnumpy.core.multiarray
scalar
p4
(cnumpy
dtype
p5
(S'f8'
I0
I1
tRp6
(I3
S'<'
NNNI-1
I-1
I0
tbS'L\xfev\x19\xd2\xad2@'
tRp7
sS'b'
F68
sS'n_cal'
p8
I9
sS'vel-center'
p9
g4
(g6
S'\x95S\x08q\x9f\x184\xc0'
tRp10
sS'rec-success'
p11
I01
sS'unixtime'
p12
F1399279377.9673841
sS'G_Right'
p13
g4
(g6
S"\x19'\x7f1\xde\xef\xf5?"
tRp14
sS'l'
g4
(g6
S'\xee$\xfd\xbf:vp@'
tRp15
sS'G_Left'
p16
g4
(g6
S'\xba\xcb\xa3\xb9\xeeV\xe7?'
tRp17
sS'T_Sys_Left'
p18
g4
(g6
S'\x88\xae\xa3\xcc\xf8\x93o@'
tRp19
sS'jd'
p20
F2456782.8631597222
sS'lst'
p21
g4
(g6
S'\x00\xe0\xc2L\xba\xe5.@'
tRp22
sS'vel-peaks'
p23
cnumpy.core.multiarray
_reconstruct
p24
(cnumpy
ndarray
p25
(I0
tS'b'
tRp26
(I1
(I1
tg6
I00
S'x\xf5\x04\xc6\xfc\x0c\x0e\xc0'
tbsS'grid'
p27
(I34
I10
tp28
sS'fname'
p29
S'data_l_263.39_b_068.00_grid_034_010'
p30
sS'time'
p31
ctime
struct_time
p32
((I2014
I5
I5
I1
I42
I57
I0
I125
I1
t(dtRp33
sS'f_low'
p34
F1268.9000000000001
sS'T_Sys_Right'
p35
g4
(g6
S'\x03\xa5\xfe\x98\x12\x08n@'
tRp36
sS'f_high'
p37
F1271.9000000000001
sS'col-density'
p38
g4
(g6
S'T\x9d\x8a\xce6E+D'
tRp39
s.