(dp1
S'n_obs'
p2
I87
sS'dispersion'
p3
cnumpy.core.multiarray
scalar
p4
(cnumpy
dtype
p5
(S'f8'
I0
I1
tRp6
(I3
S'<'
NNNI-1
I-1
I0
tbS'\x11\x11\x0cn\xd6\xf7+@'
tRp7
sS'b'
F68
sS'n_cal'
p8
I9
sS'vel-center'
p9
g4
(g6
S"\xefI\xcf\xdf\x997'\xc0"
tRp10
sS'rec-success'
p11
I01
sS'unixtime'
p12
F1399114701.230613
sS'G_Right'
p13
g4
(g6
S'9#\x85\xb3\nu\xfe?'
tRp14
sS'l'
g4
(g6
S'\x9e\xf9^&\xff\xccu@'
tRp15
sS'G_Left'
p16
g4
(g6
S'\xcd\xf3+}{\xcf\xe0?'
tRp17
sS'T_Sys_Left'
p18
g4
(g6
S'\x16^xI\xc0#p@'
tRp19
sS'jd'
p20
F2456780.9571874999
sS'lst'
p21
g4
(g6
S'\x00\xd0rA\x82\x941@'
tRp22
sS'vel-peaks'
p23
cnumpy.core.multiarray
_reconstruct
p24
(cnumpy
ndarray
p25
(I0
tS'b'
tRp26
(I1
(I1
tg6
I00
S'\xaf\xc5F\xe1\xf7\xa2\xf7\xbf'
tbsS'grid'
p27
(I34
I26
tp28
sS'fname'
p29
S'data_l_348.81_b_068.00_grid_034_026'
p30
sS'time'
p31
ctime
struct_time
p32
((I2014
I5
I3
I3
I58
I21
I5
I123
I1
t(dtRp33
sS'f_low'
p34
F1268.9000000000001
sS'T_Sys_Right'
p35
g4
(g6
S"\x15\x8a\xaa\xe8'\x8dp@"
tRp36
sS'f_high'
p37
F1271.9000000000001
sS'col-density'
p38
g4
(g6
S'N\x9c\x9c\x00\xf5\xca.D'
tRp39
s.