(dp1
S'n_obs'
p2
I87
sS'dispersion'
p3
cnumpy.core.multiarray
scalar
p4
(cnumpy
dtype
p5
(S'f8'
I0
I1
tRp6
(I3
S'<'
NNNI-1
I-1
I0
tbS'\x0eq\xd3\xaa \xcc&@'
tRp7
sS'b'
F28
sS'n_cal'
p8
I9
sS'vel-center'
p9
g4
(g6
S'\x18R,\xcf\x94[\x03@'
tRp10
sS'rec-success'
p11
I01
sS'unixtime'
p12
F1399267564.712199
sS'G_Right'
p13
g4
(g6
S'\xd1\xe1\xf6\xa2\xaaa\xfd?'
tRp14
sS'l'
g4
(g6
S'\xba\x110\x0e\xf8\xd0j@'
tRp15
sS'G_Left'
p16
g4
(g6
S'\x9e\x0c\x0fr\tm\xe1?'
tRp17
sS'T_Sys_Left'
p18
g4
(g6
S'\xf5\xdeo\xee\xd3\rn@'
tRp19
sS'jd'
p20
F2456782.7264351854
sS'lst'
p21
g4
(g6
S'\x00 \xbe\x86\x0eQ(@'
tRp22
sS'vel-peaks'
p23
cnumpy.core.multiarray
_reconstruct
p24
(cnumpy
ndarray
p25
(I0
tS'b'
tRp26
(I1
(I1
tg6
I00
S'\x10Y\x10Obr\x17@'
tbsS'grid'
p27
(I14
I2
tp28
sS'fname'
p29
S'data_l_214.53_b_028.00_grid_014_002'
p30
sS'time'
p31
ctime
struct_time
p32
((I2014
I5
I4
I22
I26
I4
I6
I124
I1
t(dtRp33
sS'f_low'
p34
F1268.9000000000001
sS'T_Sys_Right'
p35
g4
(g6
S'\x16K\x8b\x02\xaa\xd6o@'
tRp36
sS'f_high'
p37
F1271.9000000000001
sS'col-density'
p38
g4
(g6
S'\x9e\n\x90\xc4\x8c\xce2D'
tRp39
s.