(dp1
S'n_obs'
p2
I87
sS'dispersion'
p3
cnumpy.core.multiarray
scalar
p4
(cnumpy
dtype
p5
(S'f8'
I0
I1
tRp6
(I3
S'<'
NNNI-1
I-1
I0
tbS'\xdb \xdb\xdb\xf6\x886@'
tRp7
sS'b'
F8
sS'n_cal'
p8
I9
sS'vel-center'
p9
g4
(g6
S'\xa50E~\xbf|8@'
tRp10
sS'rec-success'
p11
I01
sS'unixtime'
p12
F1399176880.3790629
sS'G_Right'
p13
g4
(g6
S'\x8f\xbc\xb7\xf1G\xdb\xfc?'
tRp14
sS'l'
g4
(g6
S'\x08\x91N\x0f\x84Bk@'
tRp15
sS'G_Left'
p16
g4
(g6
S'EQ\xd2\x910\xbe\xe1?'
tRp17
sS'T_Sys_Left'
p18
g4
(g6
S'@\x9b\x9b\x86\xe1\xd6o@'
tRp19
sS'jd'
p20
F2456781.6768518519
sS'lst'
p21
g4
(g6
S'\x00@\x8c\x14w\xcc%@'
tRp22
sS'vel-peaks'
p23
cnumpy.core.multiarray
_reconstruct
p24
(cnumpy
ndarray
p25
(I0
tS'b'
tRp26
(I1
(I2
tg6
I00
S'8r\xc3.+\xbeH@t\x98\xf0\xf7\xbf\x98&@'
tbsS'grid'
p27
(I4
I4
tp28
sS'fname'
p29
S'data_l_218.08_b_008.00_grid_004_004'
p30
sS'time'
p31
ctime
struct_time
p32
((I2014
I5
I3
I21
I14
I40
I5
I123
I1
t(dtRp33
sS'f_low'
p34
F1268.9000000000001
sS'T_Sys_Right'
p35
g4
(g6
S'\xa0v\xad\xac3yp@'
tRp36
sS'f_high'
p37
F1271.9000000000001
sS'col-density'
p38
g4
(g6
S'f3}F\xaa\xa1VD'
tRp39
s.