(dp1
S'n_obs'
p2
I87
sS'dispersion'
p3
cnumpy.core.multiarray
scalar
p4
(cnumpy
dtype
p5
(S'f8'
I0
I1
tRp6
(I3
S'<'
NNNI-1
I-1
I0
tbS'\x01\xd7p\x1b\xe9\xe1\x1f@'
tRp7
sS'b'
F36
sS'n_cal'
p8
I9
sS'vel-center'
p9
g4
(g6
S'\\;q\x80\xb0\xde\xe6\xbf'
tRp10
sS'rec-success'
p11
I01
sS'unixtime'
p12
F1399185157.1377211
sS'G_Right'
p13
g4
(g6
S'\x06\x04B\x06\xfd8\xff?'
tRp14
sS'l'
g4
(g6
S'r|\x9f`\x15Wm@'
tRp15
sS'G_Left'
p16
g4
(g6
S' \xac\xd2\xbb\xfbe\xe0?'
tRp17
sS'T_Sys_Left'
p18
g4
(g6
S'Q_\xa4\x98\xfa\xe4o@'
tRp19
sS'jd'
p20
F2456781.772650463
sS'lst'
p21
g4
(g6
S'\x00\xe0L\x8a\xdch*@'
tRp22
sS'vel-peaks'
p23
cnumpy.core.multiarray
_reconstruct
p24
(cnumpy
ndarray
p25
(I0
tS'b'
tRp26
(I1
(I1
tg6
I00
S'@m0h5[\xe2\xbf'
tbsS'grid'
p27
(I18
I10
tp28
sS'fname'
p29
S'data_l_234.72_b_036.00_grid_018_010'
p30
sS'time'
p31
ctime
struct_time
p32
((I2014
I5
I3
I23
I32
I37
I5
I123
I1
t(dtRp33
sS'f_low'
p34
F1268.9000000000001
sS'T_Sys_Right'
p35
g4
(g6
S'\xb1\xf7\xcf\x19\x7fxp@'
tRp36
sS'f_high'
p37
F1271.9000000000001
sS'col-density'
p38
g4
(g6
S'\x17\xe0\xc9\xc4\x94F2D'
tRp39
s.