(dp1
S'n_obs'
p2
I174
sS'dispersion'
p3
cnumpy.core.multiarray
scalar
p4
(cnumpy
dtype
p5
(S'f8'
I0
I1
tRp6
(I3
S'<'
NNNI-1
I-1
I0
tbS"\xb9\xf6=\x1f\xd8'3@"
tRp7
sS'b'
F0
sS'fname'
p8
S'data_l_216.00_b_000.00_grid_000_003'
p9
sS'vel-center'
p10
g4
(g6
S'\x8c\xe0T\xba\x02\xbc@@'
tRp11
sS'rec-success'
p12
I01
sS'unixtime'
p13
F1398564120
sS'G_Right'
p14
g4
(g6
S'\x0e\xa6S\xbdm\xb1\xfd?'
tRp15
sS'l'
g4
(g6
S'\x00\x00\x00\x00\x00\x00k@'
tRp16
sS'G_Left'
p17
g4
(g6
S'\xb4\xcez\x1f:>\xe1?'
tRp18
sS'T_Sys_Left'
p19
g4
(g6
S'\xfb\xc7\xccg\xb0Hr@'
tRp20
sS'jd'
p21
F2456774.5847222223
sS'lst'
p22
g4
(g6
S'\x00 \xba\xcf\xc5q @'
tRp23
sS'vel-peaks'
p24
cnumpy.core.multiarray
_reconstruct
p25
(cnumpy
ndarray
p26
(I0
tS'b'
tRp27
(I1
(I3
tg6
I00
S'\xf4s\xb4W\xd0\xb0H@h\xd1O\xa2\x1f\xcf:@\xf0\xcadn~\xd2 @'
tbsS'grid'
p28
(I0
I3
tp29
sS'n_cal'
p30
I18
sS'time'
p31
ctime
struct_time
p32
((I2014
I4
I26
I19
I2
I0
I5
I116
I1
t(dtRp33
sS'f_low'
p34
F1268.9000000000001
sS'T_Sys_Right'
p35
g4
(g6
S'o\xbb\xa0"@\xecp@'
tRp36
sS'f_high'
p37
F1271.9000000000001
sS'col-density'
p38
g4
(g6
S'\x98\x90\x808\x13-vD'
tRp39
s.