(dp1
S'n_obs'
p2
I87
sS'dispersion'
p3
cnumpy.core.multiarray
scalar
p4
(cnumpy
dtype
p5
(S'f8'
I0
I1
tRp6
(I3
S'<'
NNNI-1
I-1
I0
tbS'\xfeD%T\xbb~-@'
tRp7
sS'b'
F60
sS'n_cal'
p8
I9
sS'vel-center'
p9
g4
(g6
S'{H\\jN ,\xc0'
tRp10
sS'rec-success'
p11
I01
sS'unixtime'
p12
F1399274366.4731989
sS'G_Right'
p13
g4
(g6
S'\xbf\x85\xf9\xa4\x10\xab\xff?'
tRp14
sS'l'
g4
(g6
S'\x00\x00\x00\x00\x00 p@'
tRp15
sS'G_Left'
p16
g4
(g6
S';\\\xa1\x93\xe9*\xe0?'
tRp17
sS'T_Sys_Left'
p18
g4
(g6
S'QB\xe3B\xcb\xccn@'
tRp19
sS'jd'
p20
F2456782.8051620368
sS'lst'
p21
g4
(g6
S'\x00\xe0\xd9\xd6\x19\x1b,@'
tRp22
sS'vel-peaks'
p23
cnumpy.core.multiarray
_reconstruct
p24
(cnumpy
ndarray
p25
(I0
tS'b'
tRp26
(I1
(I1
tg6
I00
S'\x10\x01\x08"H\xaa\x13\xc0'
tbsS'grid'
p27
(I30
I12
tp28
sS'fname'
p29
S'data_l_258.00_b_060.00_grid_030_012'
p30
sS'time'
p31
ctime
struct_time
p32
((I2014
I5
I5
I0
I19
I26
I0
I125
I1
t(dtRp33
sS'f_low'
p34
F1268.9000000000001
sS'T_Sys_Right'
p35
g4
(g6
S'\xc0\xbe2\xc5\x89\x19p@'
tRp36
sS'f_high'
p37
F1271.9000000000001
sS'col-density'
p38
g4
(g6
S'\x86ML\xb9Rh6D'
tRp39
s.