(dp1
S'n_obs'
p2
I87
sS'dispersion'
p3
cnumpy.core.multiarray
scalar
p4
(cnumpy
dtype
p5
(S'f8'
I0
I1
tRp6
(I3
S'<'
NNNI-1
I-1
I0
tbS'\x9f\x93\xc2a\x96s%@'
tRp7
sS'b'
F40
sS'n_cal'
p8
I9
sS'vel-center'
p9
g4
(g6
S'\xe7\xb7\xf6\x12\xf5\x85\x11\xc0'
tRp10
sS'rec-success'
p11
I01
sS'unixtime'
p12
F1399095283.703439
sS'G_Right'
p13
g4
(g6
S'\xf4k\x12i2\xf5\x00@'
tRp14
sS'l'
g4
(g6
S'q\xa8:\xe50\x05r@'
tRp15
sS'G_Left'
p16
g4
(g6
S'%`\xc8\xe6M1\xde?'
tRp17
sS'T_Sys_Left'
p18
g4
(g6
S'\xe0@\xb9\xd9\x87\x1er@'
tRp19
sS'jd'
p20
F2456780.7324421294
sS'lst'
p21
g4
(g6
S'\x00 \xc1\t\xc9W(@'
tRp22
sS'vel-peaks'
p23
cnumpy.core.multiarray
_reconstruct
p24
(cnumpy
ndarray
p25
(I0
tS'b'
tRp26
(I1
(I1
tg6
I00
S'\xc8%\x0e\xda$G\x02\xc0'
tbsS'grid'
p27
(I20
I30
tp28
sS'fname'
p29
S'data_l_288.32_b_040.00_grid_020_030'
p30
sS'time'
p31
ctime
struct_time
p32
((I2014
I5
I2
I22
I34
I43
I4
I122
I1
t(dtRp33
sS'f_low'
p34
F1268.9000000000001
sS'T_Sys_Right'
p35
g4
(g6
S'\xa9P[L\xd0/t@'
tRp36
sS'f_high'
p37
F1271.9000000000001
sS'col-density'
p38
g4
(g6
S'\xf9\x1dLCD\xc89D'
tRp39
s.