(dp1
S'n_obs'
p2
I87
sS'dispersion'
p3
cnumpy.core.multiarray
scalar
p4
(cnumpy
dtype
p5
(S'f8'
I0
I1
tRp6
(I3
S'<'
NNNI-1
I-1
I0
tbS'\x90\xe9\xdeCp> @'
tRp7
sS'b'
F28
sS'n_cal'
p8
I9
sS'vel-center'
p9
g4
(g6
S'GY\x0f\xd1\xa3\xe1\x08\xc0'
tRp10
sS'rec-success'
p11
I01
sS'unixtime'
p12
F1398839873
sS'G_Right'
p13
g4
(g6
S'H_\x1e\xbeY \xf8?'
tRp14
sS'l'
g4
(g6
S'\x16|Pc\xc86n@'
tRp15
sS'G_Left'
p16
g4
(g6
S'6\x0c\xbcW\xba8\xe5?'
tRp17
sS'T_Sys_Left'
p18
g4
(g6
S'H\x99\x19i\xb3s\x82@'
tRp19
sS'jd'
p20
F2456777.7763078706
sS'lst'
p21
g4
(g6
S'\x00@\x9d`Z\x0f*@'
tRp22
sS'vel-peaks'
p23
cnumpy.core.multiarray
_reconstruct
p24
(cnumpy
ndarray
p25
(I0
tS'b'
tRp26
(I1
(I1
tg6
I00
S' F\xa7\x8c-N\xf2\xbf'
tbsS'grid'
p27
(I14
I14
tp28
sS'fname'
p29
S'data_l_241.71_b_028.00_grid_014_014'
p30
sS'time'
p31
ctime
struct_time
p32
((I2014
I4
I29
I23
I37
I53
I1
I119
I1
t(dtRp33
sS'f_low'
p34
F1268.9000000000001
sS'T_Sys_Right'
p35
g4
(g6
S'\xbc\xdd\xac\x9f)\xd9\x82@'
tRp36
sS'f_high'
p37
F1271.9000000000001
sS'col-density'
p38
g4
(g6
S'\x9bs\xbbkg\xf8ED'
tRp39
s.