(dp1
S'n_obs'
p2
I87
sS'dispersion'
p3
cnumpy.core.multiarray
scalar
p4
(cnumpy
dtype
p5
(S'f8'
I0
I1
tRp6
(I3
S'<'
NNNI-1
I-1
I0
tbS'\xc3PN\xac\xb9z"@'
tRp7
sS'b'
F40
sS'n_cal'
p8
I9
sS'vel-center'
p9
g4
(g6
S'\'$"\xb5g\xfb\xfb?'
tRp10
sS'rec-success'
p11
I01
sS'unixtime'
p12
F1399189481.4652359
sS'G_Right'
p13
g4
(g6
S'\x92C\xe4\xec`\xfa\x00@'
tRp14
sS'l'
g4
(g6
S'@6T\x9dr\x98\x1a@'
tRp15
sS'G_Left'
p16
g4
(g6
S'}\xd9\xe2\xea\x16(\xde?'
tRp17
sS'T_Sys_Left'
p18
g4
(g6
S'\x95\x82\xf3P\xc4^p@'
tRp19
sS'jd'
p20
F2456781.8226967594
sS'lst'
p21
g4
(g6
S'\x00\x80K\x9c\x83\xd1,@'
tRp22
sS'vel-peaks'
p23
cnumpy.core.multiarray
_reconstruct
p24
(cnumpy
ndarray
p25
(I0
tS'b'
tRp26
(I1
(I1
tg6
I00
S'@\xef\xb0\xf6\xbe\x10\xf0\xbf'
tbsS'grid'
p27
(I20
I60
tp28
sS'fname'
p29
S'data_l_006.65_b_040.00_grid_020_060'
p30
sS'time'
p31
ctime
struct_time
p32
((I2014
I5
I4
I0
I44
I41
I6
I124
I1
t(dtRp33
sS'f_low'
p34
F1268.9000000000001
sS'T_Sys_Right'
p35
g4
(g6
S'CK\rq\\\x01p@'
tRp36
sS'f_high'
p37
F1271.9000000000001
sS'col-density'
p38
g4
(g6
S'3LSp\xe2\x15CD'
tRp39
s.