(dp1
S'n_obs'
p2
I87
sS'dispersion'
p3
cnumpy.core.multiarray
scalar
p4
(cnumpy
dtype
p5
(S'f8'
I0
I1
tRp6
(I3
S'<'
NNNI-1
I-1
I0
tbS'w \xbfj.\xdf,@'
tRp7
sS'b'
F16
sS'n_cal'
p8
I9
sS'vel-center'
p9
g4
(g6
S'\xcf\xad\xc60\x15\xe3"@'
tRp10
sS'rec-success'
p11
I01
sS'unixtime'
p12
F1399178909.0240691
sS'G_Right'
p13
g4
(g6
S'\xa4JN\xa6\xfe\xd9\xfd?'
tRp14
sS'l'
g4
(g6
S'R\x89+\x88(\xc5j@'
tRp15
sS'G_Left'
p16
g4
(g6
S"\xe7\xbc'\x83\xcb&\xe1?"
tRp17
sS'T_Sys_Left'
p18
g4
(g6
S'W\xc2G\xb4s\x16n@'
tRp19
sS'jd'
p20
F2456781.7003356479
sS'lst'
p21
g4
(g6
S'\x00\xc0n\xf9\xd2\xed&@'
tRp22
sS'vel-peaks'
p23
cnumpy.core.multiarray
_reconstruct
p24
(cnumpy
ndarray
p25
(I0
tS'b'
tRp26
(I1
(I1
tg6
I00
S'@Q\x9fT\x90\x0c\xe4?'
tbsS'grid'
p27
(I8
I2
tp28
sS'fname'
p29
S'data_l_214.16_b_016.00_grid_008_002'
p30
sS'time'
p31
ctime
struct_time
p32
((I2014
I5
I3
I21
I48
I29
I5
I123
I1
t(dtRp33
sS'f_low'
p34
F1268.9000000000001
sS'T_Sys_Right'
p35
g4
(g6
S'\xf9\x94}\xa5\xbf\tp@'
tRp36
sS'f_high'
p37
F1271.9000000000001
sS'col-density'
p38
g4
(g6
S'/\xe2L\x97.N8D'
tRp39
s.