(dp1
S'n_obs'
p2
I174
sS'dispersion'
p3
cnumpy.core.multiarray
scalar
p4
(cnumpy
dtype
p5
(S'f8'
I0
I1
tRp6
(I3
S'<'
NNNI-1
I-1
I0
tbS'\xb3\xa8s$\x1b\x158@'
tRp7
sS'b'
F6
sS'fname'
p8
S'data_l_225.15_b_006.00_grid_003_077'
p9
sS'vel-center'
p10
g4
(g6
S'x\xc7FE\xbd*@@'
tRp11
sS'rec-success'
p12
I01
sS'unixtime'
p13
F1398660180
sS'G_Right'
p14
g4
(g6
S'IR\x8e\x81\xe3@\x00@'
tRp15
sS'l'
g4
(g6
S'X\xc9F\xee\xda$l@'
tRp16
sS'G_Left'
p17
g4
(g6
S'\x08r\n\x19?\x80\xdf?'
tRp18
sS'T_Sys_Left'
p19
g4
(g6
S'\xf3&*\\osW@'
tRp20
sS'jd'
p21
F2456775.6965277777
sS'lst'
p22
g4
(g6
S'\x00\x80sX\x0b\xf5%@'
tRp23
sS'vel-peaks'
p24
cnumpy.core.multiarray
_reconstruct
p25
(cnumpy
ndarray
p26
(I0
tS'b'
tRp27
(I1
(I3
tg6
I00
S'\x9c\x9f\x9a\xc9N\x14P@j\r\x06\xcb{\xa55@ \xc7\xb1\xcb\xd7\xc3\xf8?'
tbsS'grid'
p28
(I3
I77
tp29
sS'n_cal'
p30
I18
sS'time'
p31
ctime
struct_time
p32
((I2014
I4
I27
I21
I43
I0
I6
I117
I1
t(dtRp33
sS'f_low'
p34
F1268.9000000000001
sS'T_Sys_Right'
p35
g4
(g6
S'\xcf\xff\x17\xc1\xad\x80h@'
tRp36
sS'f_high'
p37
F1271.9000000000001
sS'col-density'
p38
g4
(g6
S'lTW\xd4\xec6SD'
tRp39
s.