(dp1
S'n_obs'
p2
I87
sS'dispersion'
p3
cnumpy.core.multiarray
scalar
p4
(cnumpy
dtype
p5
(S'f8'
I0
I1
tRp6
(I3
S'<'
NNNI-1
I-1
I0
tbS'\x17\xc6\xc9p\xd2\xd9)@'
tRp7
sS'b'
F48
sS'n_cal'
p8
I9
sS'vel-center'
p9
g4
(g6
S'\xd64s\xd1\x83\x12\x1e\xc0'
tRp10
sS'rec-success'
p11
I01
sS'unixtime'
p12
F1399102046.3195529
sS'G_Right'
p13
g4
(g6
S'wK\x8f\xcav\x9c\x01@'
tRp14
sS'l'
g4
(g6
S'\xc4\x7f\x9f\x8cg\xfbq@'
tRp15
sS'G_Left'
p16
g4
(g6
S"\x8e'\xa1\xb3\x8a\x12\xdd?"
tRp17
sS'T_Sys_Left'
p18
g4
(g6
S'k\x17+Nx#q@'
tRp19
sS'jd'
p20
F2456780.8107175925
sS'lst'
p21
g4
(g6
S'\x00\xc0\xbd\x84D\x1c,@'
tRp22
sS'vel-peaks'
p23
cnumpy.core.multiarray
_reconstruct
p24
(cnumpy
ndarray
p25
(I0
tS'b'
tRp26
(I1
(I1
tg6
I00
S'\x12\x87B1\x8b\x11\x11\xc0'
tbsS'grid'
p27
(I24
I26
tp28
sS'fname'
p29
S'data_l_287.71_b_048.00_grid_024_026'
p30
sS'time'
p31
ctime
struct_time
p32
((I2014
I5
I3
I0
I27
I26
I5
I123
I1
t(dtRp33
sS'f_low'
p34
F1268.9000000000001
sS'T_Sys_Right'
p35
g4
(g6
S'2d\x05\xf98rq@'
tRp36
sS'f_high'
p37
F1271.9000000000001
sS'col-density'
p38
g4
(g6
S'\xb1\xb1j`\xc6A:D'
tRp39
s.