(dp1
S'n_obs'
p2
I87
sS'dispersion'
p3
cnumpy.core.multiarray
scalar
p4
(cnumpy
dtype
p5
(S'f8'
I0
I1
tRp6
(I3
S'<'
NNNI-1
I-1
I0
tbS'r{\x92?4\x17%@'
tRp7
sS'b'
F60
sS'n_cal'
p8
I9
sS'vel-center'
p9
g4
(g6
S'\xdbe\xc4\x8c-\x81\x18\xc0'
tRp10
sS'rec-success'
p11
I01
sS'unixtime'
p12
F1399112604.0795541
sS'G_Right'
p13
g4
(g6
S';M\x9b\xd9\x15w\x00@'
tRp14
sS'l'
g4
(g6
S'\x00\x00\x00\x00\x00 v@'
tRp15
sS'G_Left'
p16
g4
(g6
S"5\x8b'\xe2\x8e\x18\xdf?"
tRp17
sS'T_Sys_Left'
p18
g4
(g6
S'&\xcb#\xf9Y+p@'
tRp19
sS'jd'
p20
F2456780.9329166664
sS'lst'
p21
g4
(g6
S'\x00\xb0:\x04\xfb\xfe0@'
tRp22
sS'vel-peaks'
p23
cnumpy.core.multiarray
_reconstruct
p24
(cnumpy
ndarray
p25
(I0
tS'b'
tRp26
(I1
(I1
tg6
I00
S'\xfc(\x10\x06\x89^\xfa\xbf'
tbsS'grid'
p27
(I30
I36
tp28
sS'fname'
p29
S'data_l_354.00_b_060.00_grid_030_036'
p30
sS'time'
p31
ctime
struct_time
p32
((I2014
I5
I3
I3
I23
I24
I5
I123
I1
t(dtRp33
sS'f_low'
p34
F1268.9000000000001
sS'T_Sys_Right'
p35
g4
(g6
S'\xb49\xb2\xe9y\xb8p@'
tRp36
sS'f_high'
p37
F1271.9000000000001
sS'col-density'
p38
g4
(g6
S'\x82\xe4\x99;\x7f\xa50D'
tRp39
s.