(dp1
S'n_obs'
p2
I87
sS'dispersion'
p3
cnumpy.core.multiarray
scalar
p4
(cnumpy
dtype
p5
(S'f8'
I0
I1
tRp6
(I3
S'<'
NNNI-1
I-1
I0
tbS'\x0c \xa4).\xa71@'
tRp7
sS'b'
F56
sS'n_cal'
p8
I9
sS'vel-center'
p9
g4
(g6
S'z\xdf:_\x8b\xd8-\xc0'
tRp10
sS'rec-success'
p11
I01
sS'unixtime'
p12
F1399108636.270123
sS'G_Right'
p13
g4
(g6
S'\\Y>e\x02\xf4\x01@'
tRp14
sS'l'
g4
(g6
S'\xd8\x02\xd9qh}r@'
tRp15
sS'G_Left'
p16
g4
(g6
S'\xcf\xec\xd6\x7f\xc6\x84\xdc?'
tRp17
sS'T_Sys_Left'
p18
g4
(g6
S")6\xf6'\xb6+q@"
tRp19
sS'jd'
p20
F2456780.8869907409
sS'lst'
p21
g4
(g6
S'\x00\xc0)\x04\x14\xc8/@'
tRp22
sS'vel-peaks'
p23
cnumpy.core.multiarray
_reconstruct
p24
(cnumpy
ndarray
p25
(I0
tS'b'
tRp26
(I1
(I1
tg6
I00
S'\xd0xu\x91\xcc\xee\n\xc0'
tbsS'grid'
p27
(I28
I24
tp28
sS'fname'
p29
S'data_l_295.84_b_056.00_grid_028_024'
p30
sS'time'
p31
ctime
struct_time
p32
((I2014
I5
I3
I2
I17
I16
I5
I123
I1
t(dtRp33
sS'f_low'
p34
F1268.9000000000001
sS'T_Sys_Right'
p35
g4
(g6
S'\xe3:\xa0\x97b\xc6r@'
tRp36
sS'f_high'
p37
F1271.9000000000001
sS'col-density'
p38
g4
(g6
S'\xc8\xa5\xa5\x9e\x94\xc64D'
tRp39
s.