(dp1
S'n_obs'
p2
I87
sS'dispersion'
p3
cnumpy.core.multiarray
scalar
p4
(cnumpy
dtype
p5
(S'f8'
I0
I1
tRp6
(I3
S'<'
NNNI-1
I-1
I0
tbS'z\xa8\x05\xe2\xd3\xc0,@'
tRp7
sS'b'
F32
sS'n_cal'
p8
I9
sS'vel-center'
p9
g4
(g6
S'\xf3\xe4\xd5\xe7sf\x06\xc0'
tRp10
sS'rec-success'
p11
I01
sS'unixtime'
p12
F1399090193.918263
sS'G_Right'
p13
g4
(g6
S'\x96@\xfa\xa3?}\x00@'
tRp14
sS'l'
g4
(g6
S'|KcQ\xef\xd6j@'
tRp15
sS'G_Left'
p16
g4
(g6
S'\x97\xfa:p\xef\x0c\xdf?'
tRp17
sS'T_Sys_Left'
p18
g4
(g6
S'(|\x15\x9ec\xa7p@'
tRp19
sS'jd'
p20
F2456780.6735300925
sS'lst'
p21
g4
(g6
S'\x00\xa0\xb4f\xe4\x81%@'
tRp22
sS'vel-peaks'
p23
cnumpy.core.multiarray
_reconstruct
p24
(cnumpy
ndarray
p25
(I0
tS'b'
tRp26
(I1
(I0
tg6
I00
S''
tbsS'grid'
p27
(I16
I2
tp28
sS'fname'
p29
S'data_l_214.72_b_032.00_grid_016_002'
p30
sS'time'
p31
ctime
struct_time
p32
((I2014
I5
I2
I21
I9
I53
I4
I122
I1
t(dtRp33
sS'f_low'
p34
F1268.9000000000001
sS'T_Sys_Right'
p35
g4
(g6
S'\x0e\xdb\xff\xc3{Sq@'
tRp36
sS'f_high'
p37
F1271.9000000000001
sS'col-density'
p38
g4
(g6
S'\x16\xcbZ\x12\xb8\x956D'
tRp39
s.