(dp1
S'n_obs'
p2
I87
sS'dispersion'
p3
cnumpy.core.multiarray
scalar
p4
(cnumpy
dtype
p5
(S'f8'
I0
I1
tRp6
(I3
S'<'
NNNI-1
I-1
I0
tbS'\x0e\xc2#\xb9}k @'
tRp7
sS'b'
F26
sS'n_cal'
p8
I9
sS'vel-center'
p9
g4
(g6
S'\xd3?\xf8\xa4\x06\x03\xf3?'
tRp10
sS'rec-success'
p11
I01
sS'unixtime'
p12
F1399291642.1100941
sS'G_Right'
p13
g4
(g6
S'\xd4\x00\xab\xd6\xf2D\xfc?'
tRp14
sS'l'
g4
(g6
S'\x80P\x12;\x16\xa6*@'
tRp15
sS'G_Left'
p16
g4
(g6
S'\xb1\xef\xacP\x8b\x1c\xe2?'
tRp17
sS'T_Sys_Left'
p18
g4
(g6
S'\x92n>=\x0ctp@'
tRp19
sS'jd'
p20
F2456783.0051157409
sS'lst'
p21
g4
(g6
S'\x00\xd0\x98\xf9m\xdd2@'
tRp22
sS'vel-peaks'
p23
cnumpy.core.multiarray
_reconstruct
p24
(cnumpy
ndarray
p25
(I0
tS'b'
tRp26
(I1
(I1
tg6
I00
S'\xa0d}\xa5\xb0\xc1\x0f@'
tbsS'grid'
p27
(I13
I3
tp28
sS'fname'
p29
S'data_l_013.32_b_026.00_grid_013_003'
p30
sS'time'
p31
ctime
struct_time
p32
((I2014
I5
I5
I5
I7
I22
I0
I125
I1
t(dtRp33
sS'f_low'
p34
F1268.9000000000001
sS'T_Sys_Right'
p35
g4
(g6
S'*Sd\xc4e&q@'
tRp36
sS'f_high'
p37
F1271.9000000000001
sS'col-density'
p38
g4
(g6
S'\xb7\xcc\x92\xd6\x95\xc2LD'
tRp39
s.