(dp1
S'n_obs'
p2
I87
sS'dispersion'
p3
cnumpy.core.multiarray
scalar
p4
(cnumpy
dtype
p5
(S'f8'
I0
I1
tRp6
(I3
S'<'
NNNI-1
I-1
I0
tbS'3\xf0\x02G\xbd\xf2"@'
tRp7
sS'b'
F16
sS'n_cal'
p8
I9
sS'vel-center'
p9
g4
(g6
S'\xb7\xc9\xcc=-?\x0e@'
tRp10
sS'rec-success'
p11
I01
sS'unixtime'
p12
F1399297819.6193981
sS'G_Right'
p13
g4
(g6
S'\xb3\x99"\x01"\xd1\xfb?'
tRp14
sS'l'
g4
(g6
S'P\xa8k6\xaar0@'
tRp15
sS'G_Left'
p16
g4
(g6
S'H\xdc\xb9\x90\xf3g\xe2?'
tRp17
sS'T_Sys_Left'
p18
g4
(g6
S'\xd3K\x13\xe0b\x06n@'
tRp19
sS'jd'
p20
F2456783.0766087961
sS'lst'
p21
g4
(g6
S'\x00p\xd9\xb3\xe2\x954@'
tRp22
sS'vel-peaks'
p23
cnumpy.core.multiarray
_reconstruct
p24
(cnumpy
ndarray
p25
(I0
tS'b'
tRp26
(I1
(I1
tg6
I00
S'p3\x1d\x9c\xdf\xb0\x05@'
tbsS'grid'
p27
(I8
I80
tp28
sS'fname'
p29
S'data_l_016.45_b_016.00_grid_008_080'
p30
sS'time'
p31
ctime
struct_time
p32
((I2014
I5
I5
I6
I50
I19
I0
I125
I1
t(dtRp33
sS'f_low'
p34
F1268.9000000000001
sS'T_Sys_Right'
p35
g4
(g6
S'>\xb25\x032\xaco@'
tRp36
sS'f_high'
p37
F1271.9000000000001
sS'col-density'
p38
g4
(g6
S'\x96f\xf6tF\xedSD'
tRp39
s.