(dp1
S'n_obs'
p2
I87
sS'dispersion'
p3
cnumpy.core.multiarray
scalar
p4
(cnumpy
dtype
p5
(S'f8'
I0
I1
tRp6
(I3
S'<'
NNNI-1
I-1
I0
tbS'yv\xc6\x9f<\xd3#@'
tRp7
sS'b'
F14
sS'n_cal'
p8
I9
sS'vel-center'
p9
g4
(g6
S',\xfdF\xb43t\x16@'
tRp10
sS'rec-success'
p11
I01
sS'unixtime'
p12
F1399300075.4557071
sS'G_Right'
p13
g4
(g6
S'\xe1\xc8$\x0f~\xb7\xf8?'
tRp14
sS'l'
F20
sS'G_Left'
p15
g4
(g6
S'>N\x07x\xf5\xb6\xe4?'
tRp16
sS'T_Sys_Left'
p17
g4
(g6
S'\x8e\x98\x8c\xbc\t/o@'
tRp18
sS'jd'
p19
F2456783.1027199076
sS'lst'
p20
g4
(g6
S'\x00\xc0\xa7_\xc065@'
tRp21
sS'vel-peaks'
p22
cnumpy.core.multiarray
_reconstruct
p23
(cnumpy
ndarray
p24
(I0
tS'b'
tRp25
(I1
(I1
tg6
I00
S'H\x8b8\x9b\xa9\x1c\x04@'
tbsS'grid'
p26
(I7
I0
tp27
sS'fname'
p28
S'data_l_020.00_b_014.00_grid_007_000'
p29
sS'time'
p30
ctime
struct_time
p31
((I2014
I5
I5
I7
I27
I55
I0
I125
I1
t(dtRp32
sS'f_low'
p33
F1268.9000000000001
sS'T_Sys_Right'
p34
g4
(g6
S'5\xecD\x8d\xfc\xf8o@'
tRp35
sS'f_high'
p36
F1271.9000000000001
sS'col-density'
p37
g4
(g6
S'\xcb\x9b\x97\x17\xeafUD'
tRp38
s.