(dp1
S'n_obs'
p2
I87
sS'dispersion'
p3
cnumpy.core.multiarray
scalar
p4
(cnumpy
dtype
p5
(S'f8'
I0
I1
tRp6
(I3
S'<'
NNNI-1
I-1
I0
tbS'\xab\xc7<\xad\xe0\xe0#@'
tRp7
sS'b'
F24
sS'n_cal'
p8
I9
sS'vel-center'
p9
g4
(g6
S'\xcd\x98aW\x9eP\x0e@'
tRp10
sS'rec-success'
p11
I01
sS'unixtime'
p12
F1399265749.2783711
sS'G_Right'
p13
g4
(g6
S'\x83#uZ.\x85\xfc?'
tRp14
sS'l'
F210
sS'G_Left'
p15
g4
(g6
S'T\x1aF\x05\xc1\xf3\xe1?'
tRp16
sS'T_Sys_Left'
p17
g4
(g6
S'\xd9\xcc\x9eKW\x1eo@'
tRp18
sS'jd'
p19
F2456782.7054282408
sS'lst'
p20
g4
(g6
S"\x00`5w7N'@"
tRp21
sS'vel-peaks'
p22
cnumpy.core.multiarray
_reconstruct
p23
(cnumpy
ndarray
p24
(I0
tS'b'
tRp25
(I1
(I1
tg6
I00
S'@m!\xd3\x08H\x10@'
tbsS'grid'
p26
(I12
I0
tp27
sS'fname'
p28
S'data_l_210.00_b_024.00_grid_012_000'
p29
sS'time'
p30
ctime
struct_time
p31
((I2014
I5
I4
I21
I55
I49
I6
I124
I1
t(dtRp32
sS'f_low'
p33
F1268.9000000000001
sS'T_Sys_Right'
p34
g4
(g6
S'\xce\xe6\x95\xa3\x9d\xb0o@'
tRp35
sS'f_high'
p36
F1271.9000000000001
sS'col-density'
p37
g4
(g6
S'9`p\xb1\x11\x150D'
tRp38
s.