(dp1
S'n_obs'
p2
I174
sS'dispersion'
p3
cnumpy.core.multiarray
scalar
p4
(cnumpy
dtype
p5
(S'f8'
I0
I1
tRp6
(I3
S'<'
NNNI-1
I-1
I0
tbS'7\xde\xc4V\tk1@'
tRp7
sS'b'
F4
sS'fname'
p8
S'data_l_210.00_b_004.00_grid_002_000'
p9
sS'vel-center'
p10
g4
(g6
S'Fl\xe16\x95\xe28@'
tRp11
sS'rec-success'
p12
I01
sS'unixtime'
p13
F1398645000
sS'G_Right'
p14
g4
(g6
S'H}\xc3\x0f\xaa\x02\xff?'
tRp15
sS'l'
F210
sS'G_Left'
p16
g4
(g6
S'q\xe6=\xc4\xb5\x82\xe0?'
tRp17
sS'T_Sys_Left'
p18
g4
(g6
S'\x98\x83\x80&\x19\xe3k@'
tRp19
sS'jd'
p20
F2456775.5208333335
sS'lst'
p21
g4
(g6
S'\x00\x00\x8fif\x00\x1b@'
tRp22
sS'vel-peaks'
p23
cnumpy.core.multiarray
_reconstruct
p24
(cnumpy
ndarray
p25
(I0
tS'b'
tRp26
(I1
(I2
tg6
I00
S'\x1a.\xb5\xdfE\xc3D@\x8c\xf2?\xe4\x0b#&@'
tbsS'grid'
p27
(I2
I0
tp28
sS'n_cal'
p29
I18
sS'time'
p30
ctime
struct_time
p31
((I2014
I4
I27
I17
I30
I0
I6
I117
I1
t(dtRp32
sS'f_low'
p33
F1268.9000000000001
sS'T_Sys_Right'
p34
g4
(g6
S'\xc3\xd8\x12\xa9\xbc+\x90@'
tRp35
sS'f_high'
p36
F1271.9000000000001
sS'col-density'
p37
g4
(g6
S'm\xcd\x1e9bE|D'
tRp38
s.