(dp1
S'n_obs'
p2
I87
sS'dispersion'
p3
cnumpy.core.multiarray
scalar
p4
(cnumpy
dtype
p5
(S'f8'
I0
I1
tRp6
(I3
S'<'
NNNI-1
I-1
I0
tbS'\x89"\x1e\x0b\x14,0@'
tRp7
sS'b'
F52
sS'n_cal'
p8
I9
sS'vel-center'
p9
g4
(g6
S'\xe0\x82\xfd~\xfax\x1c\xc0'
tRp10
sS'rec-success'
p11
I01
sS'unixtime'
p12
F1399105798.123872
sS'G_Right'
p13
g4
(g6
S'\xc39Z\x87cE\x01@'
tRp14
sS'l'
g4
(g6
S'\xe7\xfc\xe4o@\x9fs@'
tRp15
sS'G_Left'
p16
g4
(g6
S'q@\xca\xac\x1d\xa5\xdd?'
tRp17
sS'T_Sys_Left'
p18
g4
(g6
S'\x06\xcc\xfd\xe0\x13,p@'
tRp19
sS'jd'
p20
F2456780.8541435185
sS'lst'
p21
g4
(g6
S'\x00\xe0e\xafX3.@'
tRp22
sS'vel-peaks'
p23
cnumpy.core.multiarray
_reconstruct
p24
(cnumpy
ndarray
p25
(I0
tS'b'
tRp26
(I1
(I1
tg6
I00
S'\xfa\xce\xeb\xe4\x95\x87\r\xc0'
tbsS'grid'
p27
(I26
I32
tp28
sS'fname'
p29
S'data_l_313.95_b_052.00_grid_026_032'
p30
sS'time'
p31
ctime
struct_time
p32
((I2014
I5
I3
I1
I29
I58
I5
I123
I1
t(dtRp33
sS'f_low'
p34
F1268.9000000000001
sS'T_Sys_Right'
p35
g4
(g6
S'2\x82%\xc7\xa7\x02q@'
tRp36
sS'f_high'
p37
F1271.9000000000001
sS'col-density'
p38
g4
(g6
S'i\xabQ\x93\xfd\x1b3D'
tRp39
s.