(dp1
S'n_obs'
p2
I87
sS'dispersion'
p3
cnumpy.core.multiarray
scalar
p4
(cnumpy
dtype
p5
(S'f8'
I0
I1
tRp6
(I3
S'<'
NNNI-1
I-1
I0
tbS'\x88-f]_\xe3"@'
tRp7
sS'b'
F32
sS'n_cal'
p8
I9
sS'vel-center'
p9
g4
(g6
S'V?\x9b\x18\x97\xb1\x05@'
tRp10
sS'rec-success'
p11
I01
sS'unixtime'
p12
F1398845816
sS'G_Right'
p13
g4
(g6
S'\x89{\xf7\x1e\xd4r\xfe?'
tRp14
sS'l'
g4
(g6
S'@\x1f5\t\x82+.@'
tRp15
sS'G_Left'
p16
g4
(g6
S'\x08\x9czK\xb4\xd0\xe0?'
tRp17
sS'T_Sys_Left'
p18
g4
(g6
S'U)\xf0\xa6\x88\xb5y@'
tRp19
sS'jd'
p20
F2456777.8450925928
sS'lst'
p21
g4
(g6
S'\x00\xa0\xc2\xd3\xe4^-@'
tRp22
sS'vel-peaks'
p23
cnumpy.core.multiarray
_reconstruct
p24
(cnumpy
ndarray
p25
(I0
tS'b'
tRp26
(I1
(I1
tg6
I00
S'\x80\x85\xe0\xf9\xf0%\xde?'
tbsS'grid'
p27
(I16
I70
tp28
sS'fname'
p29
S'data_l_015.08_b_032.00_grid_016_070'
p30
sS'time'
p31
ctime
struct_time
p32
((I2014
I4
I30
I1
I16
I56
I2
I120
I1
t(dtRp33
sS'f_low'
p34
F1268.9000000000001
sS'T_Sys_Right'
p35
g4
(g6
S'ac\xb4\x8210\x88@'
tRp36
sS'f_high'
p37
F1271.9000000000001
sS'col-density'
p38
g4
(g6
S'S\xc7\x1a\xa1\xe7pSD'
tRp39
s.