(dp1
S'n_obs'
p2
I87
sS'dispersion'
p3
cnumpy.core.multiarray
scalar
p4
(cnumpy
dtype
p5
(S'f8'
I0
I1
tRp6
(I3
S'<'
NNNI-1
I-1
I0
tbS'\x89H!\xa1\x0f}*@'
tRp7
sS'b'
F40
sS'n_cal'
p8
I9
sS'vel-center'
p9
g4
(g6
S'u\x9e\xa0\xf5\xa6S\x0f\xc0'
tRp10
sS'rec-success'
p11
I01
sS'unixtime'
p12
F1398851170
sS'G_Right'
p13
g4
(g6
S'+\xdb\x0c`\x95{\xf5?'
tRp14
sS'l'
g4
(g6
S'I\xda]\x08\x1b\xf5t@'
tRp15
sS'G_Left'
p16
g4
(g6
S'\x1a\x15\x15\x92D\xd5\xe7?'
tRp17
sS'T_Sys_Left'
p18
g4
(g6
S'\xd5>\xf6\xd3\xf4Rv@'
tRp19
sS'jd'
p20
F2456777.907060185
sS'lst'
p21
g4
(g6
S'\x00\x10\xff\xdc7-0@'
tRp22
sS'vel-peaks'
p23
cnumpy.core.multiarray
_reconstruct
p24
(cnumpy
ndarray
p25
(I0
tS'b'
tRp26
(I1
(I1
tg6
I00
S'\xc8T\xaa\xfeL\xf2\x07\xc0'
tbsS'grid'
p27
(I20
I48
tp28
sS'fname'
p29
S'data_l_335.32_b_040.00_grid_020_048'
p30
sS'time'
p31
ctime
struct_time
p32
((I2014
I4
I30
I2
I46
I10
I2
I120
I1
t(dtRp33
sS'f_low'
p34
F1268.9000000000001
sS'T_Sys_Right'
p35
g4
(g6
S'\x1ec]\x06\\\x91m@'
tRp36
sS'f_high'
p37
F1271.9000000000001
sS'col-density'
p38
g4
(g6
S'\xa1q\xceip\xa4ID'
tRp39
s.