(dp1
S'n_obs'
p2
I87
sS'dispersion'
p3
cnumpy.core.multiarray
scalar
p4
(cnumpy
dtype
p5
(S'f8'
I0
I1
tRp6
(I3
S'<'
NNNI-1
I-1
I0
tbS'Q\xde\x1d\xbf\xdb\xbf!@'
tRp7
sS'b'
F22
sS'n_cal'
p8
I9
sS'vel-center'
p9
g4
(g6
S'\xd9\xc7\x8bxQ\x8c\xf7?'
tRp10
sS'rec-success'
p11
I01
sS'unixtime'
p12
F1399291161.1631451
sS'G_Right'
p13
g4
(g6
S'8\x16\x07\xaf\xd3e\xfd?'
tRp14
sS'l'
g4
(g6
S'\x00\x96Y\xbb\x94\xc3\xe2?'
tRp15
sS'G_Left'
p16
g4
(g6
S'\t\x00\xd1\x1f\x92j\xe1?'
tRp17
sS'T_Sys_Left'
p18
g4
(g6
S'\xb9\xf1)\xc2\x16\xd3n@'
tRp19
sS'jd'
p20
F2456782.9995486112
sS'lst'
p21
g4
(g6
S'\x00\xd0\xbc\xa9!\xbb2@'
tRp22
sS'vel-peaks'
p23
cnumpy.core.multiarray
_reconstruct
p24
(cnumpy
ndarray
p25
(I0
tS'b'
tRp26
(I1
(I1
tg6
I00
S'(\x99\x12a=\xb9\x05@'
tbsS'grid'
p27
(I11
I9
tp28
sS'fname'
p29
S'data_l_000.59_b_022.00_grid_011_009'
p30
sS'time'
p31
ctime
struct_time
p32
((I2014
I5
I5
I4
I59
I21
I0
I125
I1
t(dtRp33
sS'f_low'
p34
F1268.9000000000001
sS'T_Sys_Right'
p35
g4
(g6
S'\x98\xeb\xc3\xf4\xcc\xa8p@'
tRp36
sS'f_high'
p37
F1271.9000000000001
sS'col-density'
p38
g4
(g6
S'\xa2\xc4.L\xb1@TD'
tRp39
s.