(dp1
S'n_obs'
p2
I87
sS'dispersion'
p3
cnumpy.core.multiarray
scalar
p4
(cnumpy
dtype
p5
(S'f8'
I0
I1
tRp6
(I3
S'<'
NNNI-1
I-1
I0
tbS'\xe9\xba\x9d\x03\xf1\xb8)@'
tRp7
sS'b'
F16
sS'n_cal'
p8
I9
sS'vel-center'
p9
g4
(g6
S'U\xe9\x16\x1f\x893%@'
tRp10
sS'rec-success'
p11
I01
sS'unixtime'
p12
F1399179140.5183489
sS'G_Right'
p13
g4
(g6
S'\x1dY0Y6\xf8\xfd?'
tRp14
sS'l'
g4
(g6
S'\xa4\x12W\x10QJk@'
tRp15
sS'G_Left'
p16
g4
(g6
S'\x1c\xd0Wb\x80\x15\xe1?'
tRp17
sS'T_Sys_Left'
p18
g4
(g6
S'$\x9b\x1a\xb1+\x8ap@'
tRp19
sS'jd'
p20
F2456781.703009259
sS'lst'
p21
g4
(g6
S"\x00 \\t\xc4\x0e'@"
tRp22
sS'vel-peaks'
p23
cnumpy.core.multiarray
_reconstruct
p24
(cnumpy
ndarray
p25
(I0
tS'b'
tRp26
(I1
(I1
tg6
I00
S'\x18YMK\xb4\x9e"@'
tbsS'grid'
p27
(I8
I4
tp28
sS'fname'
p29
S'data_l_218.32_b_016.00_grid_008_004'
p30
sS'time'
p31
ctime
struct_time
p32
((I2014
I5
I3
I21
I52
I20
I5
I123
I1
t(dtRp33
sS'f_low'
p34
F1268.9000000000001
sS'T_Sys_Right'
p35
g4
(g6
S'\xf4\xbds\n\xd5\xe8n@'
tRp36
sS'f_high'
p37
F1271.9000000000001
sS'col-density'
p38
g4
(g6
S'\x7fw\x11\x88Rn6D'
tRp39
s.