(dp1
S'n_obs'
p2
I87
sS'dispersion'
p3
cnumpy.core.multiarray
scalar
p4
(cnumpy
dtype
p5
(S'f8'
I0
I1
tRp6
(I3
S'<'
NNNI-1
I-1
I0
tbS'\x92\xc7\x1b\xea\xecR\x19@'
tRp7
sS'b'
F60
sS'n_cal'
p8
I9
sS'vel-center'
p9
g4
(g6
S'\xcd_\xb8\xdd]\xab\xff\xbf'
tRp10
sS'rec-success'
p11
I01
sS'unixtime'
p12
F1399112830.567462
sS'G_Right'
p13
g4
(g6
S'\xe808\xc7\x19\xc4\xff?'
tRp14
sS'l'
g4
(g6
S'\x00\x00\x00\x00\x00\x00\x00@'
tRp15
sS'G_Left'
p16
g4
(g6
S't\xea\xce\x95+\x1e\xe0?'
tRp17
sS'T_Sys_Left'
p18
g4
(g6
S'f[d&\x992p@'
tRp19
sS'jd'
p20
F2456780.9355324074
sS'lst'
p21
g4
(g6
S'\x00 U|\x18\x0f1@'
tRp22
sS'vel-peaks'
p23
cnumpy.core.multiarray
_reconstruct
p24
(cnumpy
ndarray
p25
(I0
tS'b'
tRp26
(I1
(I1
tg6
I00
S'\x08\x19\x0c\x87\xa2l\xff\xbf'
tbsS'grid'
p27
(I30
I38
tp28
sS'fname'
p29
S'data_l_002.00_b_060.00_grid_030_038'
p30
sS'time'
p31
ctime
struct_time
p32
((I2014
I5
I3
I3
I27
I10
I5
I123
I1
t(dtRp33
sS'f_low'
p34
F1268.9000000000001
sS'T_Sys_Right'
p35
g4
(g6
S'\r\xf5q\xadoDs@'
tRp36
sS'f_high'
p37
F1271.9000000000001
sS'col-density'
p38
g4
(g6
S'\xe3\xc3t\xa6a\x17*D'
tRp39
s.