(dp1
S'n_obs'
p2
I87
sS'dispersion'
p3
cnumpy.core.multiarray
scalar
p4
(cnumpy
dtype
p5
(S'f8'
I0
I1
tRp6
(I3
S'<'
NNNI-1
I-1
I0
tbS'\x9c\rf\xde\x05\xd6+@'
tRp7
sS'b'
F16
sS'n_cal'
p8
I9
sS'vel-center'
p9
g4
(g6
S'Kx\x8a\x1f(\x01!@'
tRp10
sS'rec-success'
p11
I01
sS'unixtime'
p12
F1399264005.8464861
sS'G_Right'
p13
g4
(g6
S'XG\xee}yL\xfe?'
tRp14
sS'l'
F210
sS'G_Left'
p15
g4
(g6
S'\xc4g6u\xfd\xe5\xe0?'
tRp16
sS'T_Sys_Left'
p17
g4
(g6
S'\x1c.k\x84L\x08o@'
tRp18
sS'jd'
p19
F2456782.6852430552
sS'lst'
p20
g4
(g6
S'\x00\xa0H\x83\x80U&@'
tRp21
sS'vel-peaks'
p22
cnumpy.core.multiarray
_reconstruct
p23
(cnumpy
ndarray
p24
(I0
tS'b'
tRp25
(I1
(I1
tg6
I00
S'\xf0\x08\xb3\x07r\xb2\x01@'
tbsS'grid'
p26
(I8
I0
tp27
sS'fname'
p28
S'data_l_210.00_b_016.00_grid_008_000'
p29
sS'time'
p30
ctime
struct_time
p31
((I2014
I5
I4
I21
I26
I45
I6
I124
I1
t(dtRp32
sS'f_low'
p33
F1268.9000000000001
sS'T_Sys_Right'
p34
g4
(g6
S'\x87\x18@\xe5\xd76n@'
tRp35
sS'f_high'
p36
F1271.9000000000001
sS'col-density'
p37
g4
(g6
S'\xde\x1eD~\xa6\x11:D'
tRp38
s.