(dp1
S'n_obs'
p2
I87
sS'dispersion'
p3
cnumpy.core.multiarray
scalar
p4
(cnumpy
dtype
p5
(S'f8'
I0
I1
tRp6
(I3
S'<'
NNNI-1
I-1
I0
tbS'\x00\xc6\x0f)\x19\xab#@'
tRp7
sS'b'
F28
sS'n_cal'
p8
I9
sS'vel-center'
p9
g4
(g6
S'\xadW\x92\x1cpX\x03@'
tRp10
sS'rec-success'
p11
I01
sS'unixtime'
p12
F1399268263.0635431
sS'G_Right'
p13
g4
(g6
S'\x86`\xfc2\xbb|\xfd?'
tRp14
sS'l'
g4
(g6
S'\xe8F\xc08\xe0\x83l@'
tRp15
sS'G_Left'
p16
g4
(g6
S'\xf4=\x1d\xe8\n]\xe1?'
tRp17
sS'T_Sys_Left'
p18
g4
(g6
S'\x1f\t\xf4\x19\x83\x99p@'
tRp19
sS'jd'
p20
F2456782.7345254631
sS'lst'
p21
g4
(g6
S'\x00\xa0\xc3\x04\xbe\xb4(@'
tRp22
sS'vel-peaks'
p23
cnumpy.core.multiarray
_reconstruct
p24
(cnumpy
ndarray
p25
(I0
tS'b'
tRp26
(I1
(I0
tg6
I00
S''
tbsS'grid'
p27
(I14
I8
tp28
sS'fname'
p29
S'data_l_228.12_b_028.00_grid_014_008'
p30
sS'time'
p31
ctime
struct_time
p32
((I2014
I5
I4
I22
I37
I43
I6
I124
I1
t(dtRp33
sS'f_low'
p34
F1268.9000000000001
sS'T_Sys_Right'
p35
g4
(g6
S'\x8a\x9c\x84*SDp@'
tRp36
sS'f_high'
p37
F1271.9000000000001
sS'col-density'
p38
g4
(g6
S'\xdc~y\xb8|\xe42D'
tRp39
s.