(dp1
S'n_obs'
p2
I87
sS'dispersion'
p3
cnumpy.core.multiarray
scalar
p4
(cnumpy
dtype
p5
(S'f8'
I0
I1
tRp6
(I3
S'<'
NNNI-1
I-1
I0
tbS'\xe8\xff\xe5Ov\xe9:@'
tRp7
sS'b'
F8
sS'n_cal'
p8
I9
sS'vel-center'
p9
g4
(g6
S'\xb0\xa7\xa6Ri\xd2=@'
tRp10
sS'rec-success'
p11
I01
sS'unixtime'
p12
F1399263202.637084
sS'G_Right'
p13
g4
(g6
S'\xb1\xadt\xab\xd7_\xfe?'
tRp14
sS'l'
g4
(g6
S'\x18\xb3\xeb-\x8cGm@'
tRp15
sS'G_Left'
p16
g4
(g6
S'\xa8v\x10\n7\xdb\xe0?'
tRp17
sS'T_Sys_Left'
p18
g4
(g6
S'\xb1\xdcP\xb7\xc87p@'
tRp19
sS'jd'
p20
F2456782.6759490743
sS'lst'
p21
g4
(g6
S'\x00`e!\xfc\xe2%@'
tRp22
sS'vel-peaks'
p23
cnumpy.core.multiarray
_reconstruct
p24
(cnumpy
ndarray
p25
(I0
tS'b'
tRp26
(I1
(I2
tg6
I00
S'\xbe;*\xa5\x93N8@\x80Q\x96\xbd\xe8\x9c\xd1\xbf'
tbsS'grid'
p27
(I4
I12
tp28
sS'fname'
p29
S'data_l_234.24_b_008.00_grid_004_012'
p30
sS'time'
p31
ctime
struct_time
p32
((I2014
I5
I4
I21
I13
I22
I6
I124
I1
t(dtRp33
sS'f_low'
p34
F1268.9000000000001
sS'T_Sys_Right'
p35
g4
(g6
S'Y\x96zy\xcc\x85p@'
tRp36
sS'f_high'
p37
F1271.9000000000001
sS'col-density'
p38
g4
(g6
S'\xc4\xd3\xed\xb9\x87wTD'
tRp39
s.