(dp1
S'n_obs'
p2
I87
sS'dispersion'
p3
cnumpy.core.multiarray
scalar
p4
(cnumpy
dtype
p5
(S'f8'
I0
I1
tRp6
(I3
S'<'
NNNI-1
I-1
I0
tbS'\x07\xe9\xbdo\x95b(@'
tRp7
sS'b'
F36
sS'n_cal'
p8
I9
sS'vel-center'
p9
g4
(g6
S'\xa9\x9b\x1c\x8cO3\x18\xc0'
tRp10
sS'rec-success'
p11
I01
sS'unixtime'
p12
F1399092895.747539
sS'G_Right'
p13
g4
(g6
S'\xe5n\xd7\xa1\xc7\xe2\x00@'
tRp14
sS'l'
g4
(g6
S'e\xbb5\x97h$q@'
tRp15
sS'G_Left'
p16
g4
(g6
S'e\x90a\x1d<R\xde?'
tRp17
sS'T_Sys_Left'
p18
g4
(g6
S'#D\xc3Oq\xc8p@'
tRp19
sS'jd'
p20
F2456780.7048032405
sS'lst'
p21
g4
(g6
S"\x00 \xbd\x90:\x03'@"
tRp22
sS'vel-peaks'
p23
cnumpy.core.multiarray
_reconstruct
p24
(cnumpy
ndarray
p25
(I0
tS'b'
tRp26
(I1
(I1
tg6
I00
S'\xc4c\x079\xf8o\x1c\xc0'
tbsS'grid'
p27
(I18
I26
tp28
sS'fname'
p29
S'data_l_274.28_b_036.00_grid_018_026'
p30
sS'time'
p31
ctime
struct_time
p32
((I2014
I5
I2
I21
I54
I55
I4
I122
I1
t(dtRp33
sS'f_low'
p34
F1268.9000000000001
sS'T_Sys_Right'
p35
g4
(g6
S']\xeb\xd8\xb4\x8c\xceq@'
tRp36
sS'f_high'
p37
F1271.9000000000001
sS'col-density'
p38
g4
(g6
S'q\xe6w8\x06\xab<D'
tRp39
s.