(dp1
S'n_obs'
p2
I87
sS'dispersion'
p3
cnumpy.core.multiarray
scalar
p4
(cnumpy
dtype
p5
(S'f8'
I0
I1
tRp6
(I3
S'<'
NNNI-1
I-1
I0
tbS'\xe0\xd0\x99\xbc\x8592@'
tRp7
sS'b'
F4
sS'n_cal'
p8
I9
sS'vel-center'
p9
g4
(g6
S"\xe2f\xec\xd6z\xbb'@"
tRp10
sS'rec-success'
p11
I01
sS'unixtime'
p12
F1399295479.897922
sS'G_Right'
p13
g4
(g6
S"\x9b\xc6'\xc6\xae\x03\xfe?"
tRp14
sS'l'
g4
(g6
S'\xc0\xce\x82\x92\n\xcd,@'
tRp15
sS'G_Left'
p16
g4
(g6
S'$\xbes\xfd\xf8\x0e\xe1?'
tRp17
sS'T_Sys_Left'
p18
g4
(g6
S'\xb9N\xa9\xce\xc4\xfdn@'
tRp19
sS'jd'
p20
F2456783.049525463
sS'lst'
p21
g4
(g6
S'\x00P\x1d\xac\x07\xef3@'
tRp22
sS'vel-peaks'
p23
cnumpy.core.multiarray
_reconstruct
p24
(cnumpy
ndarray
p25
(I0
tS'b'
tRp26
(I1
(I2
tg6
I00
S'\x0ey\xbb{\xad\xad-@\xb85\xaf\x19!\xa2\x15@'
tbsS'grid'
p27
(I2
I82
tp28
sS'fname'
p29
S'data_l_014.40_b_004.00_grid_002_082'
p30
sS'time'
p31
ctime
struct_time
p32
((I2014
I5
I5
I6
I11
I19
I0
I125
I1
t(dtRp33
sS'f_low'
p34
F1268.9000000000001
sS'T_Sys_Right'
p35
g4
(g6
S'\xda\x8e\xbb\xa9\x13gp@'
tRp36
sS'f_high'
p37
F1271.9000000000001
sS'col-density'
p38
g4
(g6
S'\x87GH\xba<BmD'
tRp39
s.