(dp1
S'n_obs'
p2
I87
sS'dispersion'
p3
cnumpy.core.multiarray
scalar
p4
(cnumpy
dtype
p5
(S'f8'
I0
I1
tRp6
(I3
S'<'
NNNI-1
I-1
I0
tbS's\x86\x16?U\xaa!@'
tRp7
sS'b'
F28
sS'n_cal'
p8
I9
sS'vel-center'
p9
g4
(g6
S'\x12\xf8\x0f9y5\x14@'
tRp10
sS'rec-success'
p11
I01
sS'unixtime'
p12
F1399268028.88169
sS'G_Right'
p13
g4
(g6
S'q\xf83\x06\xff\x80\xfd?'
tRp14
sS'l'
g4
(g6
S'.5\x90*\xe8\xf2k@'
tRp15
sS'G_Left'
p16
g4
(g6
S'\x02dAZ\x88Z\xe1?'
tRp17
sS'T_Sys_Left'
p18
g4
(g6
S'\x1b\x9b\x9a\xbc\x04\x9co@'
tRp19
sS'jd'
p20
F2456782.7318055555
sS'lst'
p21
g4
(g6
S'\x00\x80\xe2\x80:\x93(@'
tRp22
sS'vel-peaks'
p23
cnumpy.core.multiarray
_reconstruct
p24
(cnumpy
ndarray
p25
(I0
tS'b'
tRp26
(I1
(I1
tg6
I00
S'\xb0s\xc9\xf7="\x0c@'
tbsS'grid'
p27
(I14
I6
tp28
sS'fname'
p29
S'data_l_223.59_b_028.00_grid_014_006'
p30
sS'time'
p31
ctime
struct_time
p32
((I2014
I5
I4
I22
I33
I48
I6
I124
I1
t(dtRp33
sS'f_low'
p34
F1268.9000000000001
sS'T_Sys_Right'
p35
g4
(g6
S'\x7f\x07\xf9\xadr\x1ap@'
tRp36
sS'f_high'
p37
F1271.9000000000001
sS'col-density'
p38
g4
(g6
S'\x07U@{"\xd32D'
tRp39
s.