(dp1
S'n_obs'
p2
I87
sS'dispersion'
p3
cnumpy.core.multiarray
scalar
p4
(cnumpy
dtype
p5
(S'f8'
I0
I1
tRp6
(I3
S'<'
NNNI-1
I-1
I0
tbS'I\x08\xec\xe60\xb83@'
tRp7
sS'b'
F48
sS'n_cal'
p8
I9
sS'vel-center'
p9
g4
(g6
S'\x9e\xe8\xc8Go-!\xc0'
tRp10
sS'rec-success'
p11
I01
sS'unixtime'
p12
F1399194384.6070559
sS'G_Right'
p13
g4
(g6
S'1\x93O\xf3U=\x00@'
tRp14
sS'l'
g4
(g6
S'\xc8:\x89\x0fX\x1as@'
tRp15
sS'G_Left'
p16
g4
(g6
S'\x1fh\x98k#\x87\xdf?'
tRp17
sS'T_Sys_Left'
p18
g4
(g6
S'vf\xa6\xbb!\xb2g@'
tRp19
sS'jd'
p20
F2456781.8794444446
sS'lst'
p21
g4
(g6
S'\x00`\x02%\xbd\x8c/@'
tRp22
sS'vel-peaks'
p23
cnumpy.core.multiarray
_reconstruct
p24
(cnumpy
ndarray
p25
(I0
tS'b'
tRp26
(I1
(I1
tg6
I00
S'\x82\xb0\xbb\xf5#\xc3\r\xc0'
tbsS'grid'
p27
(I24
I32
tp28
sS'fname'
p29
S'data_l_305.65_b_048.00_grid_024_032'
p30
sS'time'
p31
ctime
struct_time
p32
((I2014
I5
I4
I2
I6
I24
I6
I124
I1
t(dtRp33
sS'f_low'
p34
F1268.9000000000001
sS'T_Sys_Right'
p35
g4
(g6
S'=\x13\xcd\xd3L\np@'
tRp36
sS'f_high'
p37
F1271.9000000000001
sS'col-density'
p38
g4
(g6
S'\xb6\x83\xf5\x9e\x93n6D'
tRp39
s.