(dp1
S'n_obs'
p2
I87
sS'dispersion'
p3
cnumpy.core.multiarray
scalar
p4
(cnumpy
dtype
p5
(S'f8'
I0
I1
tRp6
(I3
S'<'
NNNI-1
I-1
I0
tbS' \x9cx\x02|\xba\x1f@'
tRp7
sS'b'
F68
sS'n_cal'
p8
I9
sS'vel-center'
p9
g4
(g6
S'e\x11\x98\xdcL\x84\x16\xc0'
tRp10
sS'rec-success'
p11
I01
sS'unixtime'
p12
F1399197896.6160979
sS'G_Right'
p13
g4
(g6
S'p\xde\xc9\xdb>\xc0\xfd?'
tRp14
sS'l'
g4
(g6
S'\xdcI\xfa\x7fu\xccs@'
tRp15
sS'G_Left'
p16
g4
(g6
S'$b\x91\xb4\xa35\xe1?'
tRp17
sS'T_Sys_Left'
p18
g4
(g6
S'\xaa\xfcs\x07\xea\xfcp@'
tRp19
sS'jd'
p20
F2456781.9200925925
sS'lst'
p21
g4
(g6
S'\x00pX\xa0\xcb\xc00@'
tRp22
sS'vel-peaks'
p23
cnumpy.core.multiarray
_reconstruct
p24
(cnumpy
ndarray
p25
(I0
tS'b'
tRp26
(I1
(I1
tg6
I00
S'\x18"Vp>\x07\xfb\xbf'
tbsS'grid'
p27
(I34
I20
tp28
sS'fname'
p29
S'data_l_316.78_b_068.00_grid_034_020'
p30
sS'time'
p31
ctime
struct_time
p32
((I2014
I5
I4
I3
I4
I56
I6
I124
I1
t(dtRp33
sS'f_low'
p34
F1268.9000000000001
sS'T_Sys_Right'
p35
g4
(g6
S'\x1ah\xd8 \x1aln@'
tRp36
sS'f_high'
p37
F1271.9000000000001
sS'col-density'
p38
g4
(g6
S"\xca\x07U`\x97<'D"
tRp39
s.