(dp1
S'n_obs'
p2
I87
sS'dispersion'
p3
cnumpy.core.multiarray
scalar
p4
(cnumpy
dtype
p5
(S'f8'
I0
I1
tRp6
(I3
S'<'
NNNI-1
I-1
I0
tbS'cw\x94l\x87\xd5/@'
tRp7
sS'b'
F44
sS'n_cal'
p8
I9
sS'vel-center'
p9
g4
(g6
S'\\\xed\xea\x0c\xfe\x93%\xc0'
tRp10
sS'rec-success'
p11
I01
sS'unixtime'
p12
F1399095550.0416679
sS'G_Right'
p13
g4
(g6
S'kj\xbe\xe1\x11\xf2\x00@'
tRp14
sS'l'
F210
sS'G_Left'
p15
g4
(g6
S'6\x0b\xdd;\xe06\xde?'
tRp16
sS'T_Sys_Left'
p17
g4
(g6
S'\xee\xec@\xeac\x15p@'
tRp18
sS'jd'
p19
F2456780.7355324076
sS'lst'
p20
g4
(g6
S'\x00@\x1f\xd4\xdc}(@'
tRp21
sS'vel-peaks'
p22
cnumpy.core.multiarray
_reconstruct
p23
(cnumpy
ndarray
p24
(I0
tS'b'
tRp25
(I1
(I1
tg6
I00
S'\x00\xbf\xde`\xc0\x9f\xdf?'
tbsS'grid'
p26
(I22
I0
tp27
sS'fname'
p28
S'data_l_210.00_b_044.00_grid_022_000'
p29
sS'time'
p30
ctime
struct_time
p31
((I2014
I5
I2
I22
I39
I10
I4
I122
I1
t(dtRp32
sS'f_low'
p33
F1268.9000000000001
sS'T_Sys_Right'
p34
g4
(g6
S'\xceP\x9eF\t\x17q@'
tRp35
sS'f_high'
p36
F1271.9000000000001
sS'col-density'
p37
g4
(g6
S'\xfe\xf8=\xa4y\x1b4D'
tRp38
s.