(dp1
S'n_obs'
p2
I87
sS'dispersion'
p3
cnumpy.core.multiarray
scalar
p4
(cnumpy
dtype
p5
(S'f8'
I0
I1
tRp6
(I3
S'<'
NNNI-1
I-1
I0
tbS'^\x18 \x0b\xffl$@'
tRp7
sS'b'
F40
sS'n_cal'
p8
I9
sS'vel-center'
p9
g4
(g6
S'\xe7\x96w\xd1\xc9\x13\x1e\xc0'
tRp10
sS'rec-success'
p11
I01
sS'unixtime'
p12
F1399187267.571445
sS'G_Right'
p13
g4
(g6
S'\x04+\r@\x0b\x1e\x00@'
tRp14
sS'l'
g4
(g6
S'\xe11##\xea\x0fp@'
tRp15
sS'G_Left'
p16
g4
(g6
S'\xc0%\x03\x82Y\xc4\xdf?'
tRp17
sS'T_Sys_Left'
p18
g4
(g6
S'\x97\xab\xea\xce\x10\xfbo@'
tRp19
sS'jd'
p20
F2456781.7970717591
sS'lst'
p21
g4
(g6
S'\x00\xc0\xfc\xa0\xc5\x95+@'
tRp22
sS'vel-peaks'
p23
cnumpy.core.multiarray
_reconstruct
p24
(cnumpy
ndarray
p25
(I0
tS'b'
tRp26
(I1
(I1
tg6
I00
S'\xfc\xec\xeb\xd7M\x8a\x10\xc0'
tbsS'grid'
p27
(I20
I18
tp28
sS'fname'
p29
S'data_l_256.99_b_040.00_grid_020_018'
p30
sS'time'
p31
ctime
struct_time
p32
((I2014
I5
I4
I0
I7
I47
I6
I124
I1
t(dtRp33
sS'f_low'
p34
F1268.9000000000001
sS'T_Sys_Right'
p35
g4
(g6
S'G\x7f\xc2\x1a\xc8\xe1p@'
tRp36
sS'f_high'
p37
F1271.9000000000001
sS'col-density'
p38
g4
(g6
S'\xb7\x16g}\xd0\xf56D'
tRp39
s.