(dp1
S'n_obs'
p2
I87
sS'dispersion'
p3
cnumpy.core.multiarray
scalar
p4
(cnumpy
dtype
p5
(S'f8'
I0
I1
tRp6
(I3
S'<'
NNNI-1
I-1
I0
tbS':\x96=O\x03\x97$@'
tRp7
sS'b'
F28
sS'n_cal'
p8
I9
sS'vel-center'
p9
g4
(g6
S'\x96\xda\xcd\x92)\xc9\x07@'
tRp10
sS'rec-success'
p11
I01
sS'unixtime'
p12
F1399267314.4517739
sS'G_Right'
p13
g4
(g6
S'\x9fw\x1a^]O\xfb?'
tRp14
sS'l'
F210
sS'G_Left'
p15
g4
(g6
S'+\x8bw0i\xbf\xe2?'
tRp16
sS'T_Sys_Left'
p17
g4
(g6
S'\xba\x14v\xdb\x91wn@'
tRp18
sS'jd'
p19
F2456782.7235416668
sS'lst'
p20
g4
(g6
S'\x00\x80\xf3ag-(@'
tRp21
sS'vel-peaks'
p22
cnumpy.core.multiarray
_reconstruct
p23
(cnumpy
ndarray
p24
(I0
tS'b'
tRp25
(I1
(I1
tg6
I00
S'\xf0\x0b\xf1l\xa8\xb7\x1a@'
tbsS'grid'
p26
(I14
I0
tp27
sS'fname'
p28
S'data_l_210.00_b_028.00_grid_014_000'
p29
sS'time'
p30
ctime
struct_time
p31
((I2014
I5
I4
I22
I21
I54
I6
I124
I1
t(dtRp32
sS'f_low'
p33
F1268.9000000000001
sS'T_Sys_Right'
p34
g4
(g6
S'(\xa6\x8f\xfdn\x0fp@'
tRp35
sS'f_high'
p36
F1271.9000000000001
sS'col-density'
p37
g4
(g6
S'=\xc9\xab\x0f\xc9\xf31D'
tRp38
s.