(dp1
S'n_obs'
p2
I87
sS'dispersion'
p3
cnumpy.core.multiarray
scalar
p4
(cnumpy
dtype
p5
(S'f8'
I0
I1
tRp6
(I3
S'<'
NNNI-1
I-1
I0
tbS'\xb3U<>\x00~\x1d@'
tRp7
sS'b'
F32
sS'n_cal'
p8
I9
sS'vel-center'
p9
g4
(g6
S'\\\xda\xc9\xb8\xde\xe5\n@'
tRp10
sS'rec-success'
p11
I01
sS'unixtime'
p12
F1399183542.3308959
sS'G_Right'
p13
g4
(g6
S'\x99\x1f\xc4fcP\x00@'
tRp14
sS'l'
g4
(g6
S't\xe2)\xf4\xcd\x04l@'
tRp15
sS'G_Left'
p16
g4
(g6
S'\xc7\x15\xeanQb\xdf?'
tRp17
sS'T_Sys_Left'
p18
g4
(g6
S'\x17d\x91\xda\x80\x04o@'
tRp19
sS'jd'
p20
F2456781.7539583333
sS'lst'
p21
g4
(g6
S'\x00`\xb91\x8b\x82)@'
tRp22
sS'vel-peaks'
p23
cnumpy.core.multiarray
_reconstruct
p24
(cnumpy
ndarray
p25
(I0
tS'b'
tRp26
(I1
(I1
tg6
I00
S'8\x93\n,\x80n\x16@'
tbsS'grid'
p27
(I16
I6
tp28
sS'fname'
p29
S'data_l_224.15_b_032.00_grid_016_006'
p30
sS'time'
p31
ctime
struct_time
p32
((I2014
I5
I3
I23
I5
I42
I5
I123
I1
t(dtRp33
sS'f_low'
p34
F1268.9000000000001
sS'T_Sys_Right'
p35
g4
(g6
S'Ld\xaf4\x16\x1bp@'
tRp36
sS'f_high'
p37
F1271.9000000000001
sS'col-density'
p38
g4
(g6
S'\xc5=\xb8=\xdcL5D'
tRp39
s.