(dp1
S'n_obs'
p2
I87
sS'dispersion'
p3
cnumpy.core.multiarray
scalar
p4
(cnumpy
dtype
p5
(S'f8'
I0
I1
tRp6
(I3
S'<'
NNNI-1
I-1
I0
tbS'\xd7\xc4\x8eo\xe3\xbc.@'
tRp7
sS'b'
F64
sS'n_cal'
p8
I9
sS'vel-center'
p9
g4
(g6
S'\x027\x1c\x03\x91\x17-\xc0'
tRp10
sS'rec-success'
p11
I01
sS'unixtime'
p12
F1399278151.798521
sS'G_Right'
p13
g4
(g6
S'n\xeb%s\xf5>\xfb?'
tRp14
sS'l'
g4
(g6
S'\x04\x8b\xd09\xf3\xd3r@'
tRp15
sS'G_Left'
p16
g4
(g6
S'I\xa3 \x1e\xb3\xca\xe2?'
tRp17
sS'T_Sys_Left'
p18
g4
(g6
S'\xfa\xfd\x9f\xbaP\xcen@'
tRp19
sS'jd'
p20
F2456782.8489699075
sS'lst'
p21
g4
(g6
S'\x00\x00$\xca\xe26.@'
tRp22
sS'vel-peaks'
p23
cnumpy.core.multiarray
_reconstruct
p24
(cnumpy
ndarray
p25
(I0
tS'b'
tRp26
(I1
(I1
tg6
I00
S':T\x10\xb67\x81\x11\xc0'
tbsS'grid'
p27
(I32
I20
tp28
sS'fname'
p29
S'data_l_301.25_b_064.00_grid_032_020'
p30
sS'time'
p31
ctime
struct_time
p32
((I2014
I5
I5
I1
I22
I31
I0
I125
I1
t(dtRp33
sS'f_low'
p34
F1268.9000000000001
sS'T_Sys_Right'
p35
g4
(g6
S'"]\x8cA\xfc\xdco@'
tRp36
sS'f_high'
p37
F1271.9000000000001
sS'col-density'
p38
g4
(g6
S'j\xfb\xd7x \x87*D'
tRp39
s.