(dp1
S'n_obs'
p2
I87
sS'dispersion'
p3
cnumpy.core.multiarray
scalar
p4
(cnumpy
dtype
p5
(S'f8'
I0
I1
tRp6
(I3
S'<'
NNNI-1
I-1
I0
tbS'\x84\x03\xed=n\xeb\x1e@'
tRp7
sS'b'
F36
sS'n_cal'
p8
I9
sS'vel-center'
p9
g4
(g6
S"'\xc82F{\x86\x0c\xc0"
tRp10
sS'rec-success'
p11
I01
sS'unixtime'
p12
F1399185853.3715501
sS'G_Right'
p13
g4
(g6
S'+\xeb\xcc\xc5\x13\xe5\xff?'
tRp14
sS'l'
g4
(g6
S'P\xfa\xcb\xcd\xbb1o@'
tRp15
sS'G_Left'
p16
g4
(g6
S'\x80\x1e\x00z\x81\r\xe0?'
tRp17
sS'T_Sys_Left'
p18
g4
(g6
S't\xde\xaf3D\xf3o@'
tRp19
sS'jd'
p20
F2456781.7807060187
sS'lst'
p21
g4
(g6
S'\x00\xc0\xe3\x81\x1e\xcc*@'
tRp22
sS'vel-peaks'
p23
cnumpy.core.multiarray
_reconstruct
p24
(cnumpy
ndarray
p25
(I0
tS'b'
tRp26
(I1
(I1
tg6
I00
S'\xb0Dm\x87`]\n\xc0'
tbsS'grid'
p27
(I18
I16
tp28
sS'fname'
p29
S'data_l_249.55_b_036.00_grid_018_016'
p30
sS'time'
p31
ctime
struct_time
p32
((I2014
I5
I3
I23
I44
I13
I5
I123
I1
t(dtRp33
sS'f_low'
p34
F1268.9000000000001
sS'T_Sys_Right'
p35
g4
(g6
S'\xf2fWn]\x0eq@'
tRp36
sS'f_high'
p37
F1271.9000000000001
sS'col-density'
p38
g4
(g6
S'\xa9\x9a\x90\xd9;\xdb9D'
tRp39
s.