(dp1
S'n_obs'
p2
I87
sS'dispersion'
p3
cnumpy.core.multiarray
scalar
p4
(cnumpy
dtype
p5
(S'f8'
I0
I1
tRp6
(I3
S'<'
NNNI-1
I-1
I0
tbS'\xb3\x02)4#r3@'
tRp7
sS'b'
F56
sS'n_cal'
p8
I9
sS'vel-center'
p9
g4
(g6
S'\xf9\x13\xa0\xfc\xd1\xa1)\xc0'
tRp10
sS'rec-success'
p11
I01
sS'unixtime'
p12
F1399109338.1163909
sS'G_Right'
p13
g4
(g6
S'\x94>\x1d\xd8\xf5n\x01@'
tRp14
sS'l'
g4
(g6
S'\x8eCO\x8e\xc2\xd4s@'
tRp15
sS'G_Left'
p16
g4
(g6
S'\xb9\xcbL\xc5l^\xdd?'
tRp17
sS'T_Sys_Left'
p18
g4
(g6
S'\xc1\xe3\x1b:#7p@'
tRp19
sS'jd'
p20
F2456780.8951157406
sS'lst'
p21
g4
(g6
S'\x00\xf0N\x84\x18\x160@'
tRp22
sS'vel-peaks'
p23
cnumpy.core.multiarray
_reconstruct
p24
(cnumpy
ndarray
p25
(I0
tS'b'
tRp26
(I1
(I1
tg6
I00
S'\x18\xc0\xec\xee\xd7V\x07\xc0'
tbsS'grid'
p27
(I28
I30
tp28
sS'fname'
p29
S'data_l_317.30_b_056.00_grid_028_030'
p30
sS'time'
p31
ctime
struct_time
p32
((I2014
I5
I3
I2
I28
I58
I5
I123
I1
t(dtRp33
sS'f_low'
p34
F1268.9000000000001
sS'T_Sys_Right'
p35
g4
(g6
S"\xdf\x0f`Z6'q@"
tRp36
sS'f_high'
p37
F1271.9000000000001
sS'col-density'
p38
g4
(g6
S'<\x91~\x8e\xd0\x9d4D'
tRp39
s.