(dp1
S'n_obs'
p2
I87
sS'dispersion'
p3
cnumpy.core.multiarray
scalar
p4
(cnumpy
dtype
p5
(S'f8'
I0
I1
tRp6
(I3
S'<'
NNNI-1
I-1
I0
tbS'\x7f\xa1\xae\xb1Oz#@'
tRp7
sS'b'
F36
sS'n_cal'
p8
I9
sS'vel-center'
p9
g4
(g6
S'\xb1\xd8\x1d\xa3\xfd1\x14@'
tRp10
sS'rec-success'
p11
I01
sS'unixtime'
p12
F1398850319
sS'G_Right'
p13
g4
(g6
S'\x82\xe7\x83wX\xe9\x06@'
tRp14
sS'l'
g4
(g6
S'0@\x17U\xf1\x1a2@'
tRp15
sS'G_Left'
p16
g4
(g6
S'\xeb\xdf\xda/\xcbX\xd6?'
tRp17
sS'T_Sys_Left'
p18
g4
(g6
S';\xed\x90\xbe\x01\x94Y@'
tRp19
sS'jd'
p20
F2456777.8972106483
sS'lst'
p21
g4
(g6
S'\x00@\x8f\xee\x12\xe1/@'
tRp22
sS'vel-peaks'
p23
cnumpy.core.multiarray
_reconstruct
p24
(cnumpy
ndarray
p25
(I0
tS'b'
tRp26
(I1
(I1
tg6
I00
S'\xe0~\xc6m\xa1\x04\x00@'
tbsS'grid'
p27
(I18
I68
tp28
sS'fname'
p29
S'data_l_018.11_b_036.00_grid_018_068'
p30
sS'time'
p31
ctime
struct_time
p32
((I2014
I4
I30
I2
I31
I59
I2
I120
I1
t(dtRp33
sS'f_low'
p34
F1268.9000000000001
sS'T_Sys_Right'
p35
g4
(g6
S"\xe3\x04\x18}'S{@"
tRp36
sS'f_high'
p37
F1271.9000000000001
sS'col-density'
p38
g4
(g6
S'\xfb\xd4\xb71\xe58?D'
tRp39
s.