(dp1
S'n_obs'
p2
I87
sS'dispersion'
p3
cnumpy.core.multiarray
scalar
p4
(cnumpy
dtype
p5
(S'f8'
I0
I1
tRp6
(I3
S'<'
NNNI-1
I-1
I0
tbS'\x97W\xabr\t\xc7-@'
tRp7
sS'b'
F76
sS'n_cal'
p8
I9
sS'vel-center'
p9
g4
(g6
S'7\x1b\xad\xb9\xef\xa0*\xc0'
tRp10
sS'rec-success'
p11
I01
sS'unixtime'
p12
F1399200434.8880711
sS'G_Right'
p13
g4
(g6
S'\xf0\xa6\xb8\x1apD\xfd?'
tRp14
sS'l'
g4
(g6
S'\x00\x15\x07\xdck\xaf.@'
tRp15
sS'G_Left'
p16
g4
(g6
S'\xf6\xa1\xa3\x95p~\xe1?'
tRp17
sS'T_Sys_Left'
p18
g4
(g6
S"'\xc8\x15\xd5\xfb\xdcl@"
tRp19
sS'jd'
p20
F2456781.9494675929
sS'lst'
p21
g4
(g6
S'\x00\x90\x9a\x01\xc5u1@'
tRp22
sS'vel-peaks'
p23
cnumpy.core.multiarray
_reconstruct
p24
(cnumpy
ndarray
p25
(I0
tS'b'
tRp26
(I1
(I1
tg6
I00
S's\xf7\x03qTx\xe4\xbf'
tbsS'grid'
p27
(I38
I20
tp28
sS'fname'
p29
S'data_l_015.34_b_076.00_grid_038_020'
p30
sS'time'
p31
ctime
struct_time
p32
((I2014
I5
I4
I3
I47
I14
I6
I124
I1
t(dtRp33
sS'f_low'
p34
F1268.9000000000001
sS'T_Sys_Right'
p35
g4
(g6
S'\xd2\xe55\xce\xebkp@'
tRp36
sS'f_high'
p37
F1271.9000000000001
sS'col-density'
p38
g4
(g6
S'\xe5\x06\xe3[\xf6\x87+D'
tRp39
s.