(dp1
S'n_obs'
p2
I87
sS'dispersion'
p3
cnumpy.core.multiarray
scalar
p4
(cnumpy
dtype
p5
(S'f8'
I0
I1
tRp6
(I3
S'<'
NNNI-1
I-1
I0
tbS'\x82=\x1e\x12{\x1d$@'
tRp7
sS'b'
F44
sS'n_cal'
p8
I9
sS'vel-center'
p9
g4
(g6
S'\xbd\x0b\x1c~\xac\n"\xc0'
tRp10
sS'rec-success'
p11
I01
sS'unixtime'
p12
F1399190285.373456
sS'G_Right'
p13
g4
(g6
S'!`Y>y\xd4\xfb?'
tRp14
sS'l'
g4
(g6
S'0\xc4\x1ag\xb4\x99p@'
tRp15
sS'G_Left'
p16
g4
(g6
S'E\xd7e\xee\xbde\xe2?'
tRp17
sS'T_Sys_Left'
p18
g4
(g6
S'\xf2\xdb\x99\x1c\xee\xf1s@'
tRp19
sS'jd'
p20
F2456781.8320023147
sS'lst'
p21
g4
(g6
S'\x00\xe0\xb3\x80,D-@'
tRp22
sS'vel-peaks'
p23
cnumpy.core.multiarray
_reconstruct
p24
(cnumpy
ndarray
p25
(I0
tS'b'
tRp26
(I1
(I1
tg6
I00
S'T\xe5\xf3\xe6\x8c\xc2\x19\xc0'
tbsS'grid'
p27
(I22
I20
tp28
sS'fname'
p29
S'data_l_265.61_b_044.00_grid_022_020'
p30
sS'time'
p31
ctime
struct_time
p32
((I2014
I5
I4
I0
I58
I5
I6
I124
I1
t(dtRp33
sS'f_low'
p34
F1268.9000000000001
sS'T_Sys_Right'
p35
g4
(g6
S'r-\xd1\x87\xbb\x1cq@'
tRp36
sS'f_high'
p37
F1271.9000000000001
sS'col-density'
p38
g4
(g6
S'\xa7;\xd5O\xb6\xe18D'
tRp39
s.