(dp1
S'n_obs'
p2
I174
sS'dispersion'
p3
cnumpy.core.multiarray
scalar
p4
(cnumpy
dtype
p5
(S'f8'
I0
I1
tRp6
(I3
S'<'
NNNI-1
I-1
I0
tbS'\x7f\xae\x83\xec\x19\x8a8@'
tRp7
sS'b'
F6
sS'fname'
p8
S'data_l_231.18_b_006.00_grid_003_074'
p9
sS'vel-center'
p10
g4
(g6
S'\xce\xafU\xce\xb8\xe8?@'
tRp11
sS'rec-success'
p12
I01
sS'unixtime'
p13
F1398658620
sS'G_Right'
p14
g4
(g6
S'\x195\xe8\x17\x96\xcd\x01@'
tRp15
sS'l'
g4
(g6
S'09y\xac\xe9\xe5l@'
tRp16
sS'G_Left'
p17
g4
(g6
S'H\xf4V9S\xc2\xdc?'
tRp18
sS'T_Sys_Left'
p19
g4
(g6
S'\xaf\xe0\n\xc1D\x03^@'
tRp20
sS'jd'
p21
F2456775.6784722223
sS'lst'
p22
g4
(g6
S'\x00\xe0\xcd\xf8\x91\x16%@'
tRp23
sS'vel-peaks'
p24
cnumpy.core.multiarray
_reconstruct
p25
(cnumpy
ndarray
p26
(I0
tS'b'
tRp27
(I1
(I2
tg6
I00
S'Di\xfb\xbc%\x027@\x80d\x80\x98\x14\x18\x01@'
tbsS'grid'
p28
(I3
I74
tp29
sS'n_cal'
p30
I18
sS'time'
p31
ctime
struct_time
p32
((I2014
I4
I27
I21
I17
I0
I6
I117
I1
t(dtRp33
sS'f_low'
p34
F1268.9000000000001
sS'T_Sys_Right'
p35
g4
(g6
S'\xc6q\x97\x1fPIh@'
tRp36
sS'f_high'
p37
F1271.9000000000001
sS'col-density'
p38
g4
(g6
S' U\xeeo+\x15TD'
tRp39
s.