(dp1
S'n_obs'
p2
I87
sS'dispersion'
p3
cnumpy.core.multiarray
scalar
p4
(cnumpy
dtype
p5
(S'f8'
I0
I1
tRp6
(I3
S'<'
NNNI-1
I-1
I0
tbS'K@\xbaA\xb69.@'
tRp7
sS'b'
F64
sS'n_cal'
p8
I9
sS'vel-center'
p9
g4
(g6
S':\xf3\xf2\x9f\xd9\x81/\xc0'
tRp10
sS'rec-success'
p11
I01
sS'unixtime'
p12
F1399277921.145829
sS'G_Right'
p13
g4
(g6
S'\xa4Oz\x18+\xf4\xf9?'
tRp14
sS'l'
g4
(g6
S'\xeaI\xd5\x80\xf4Ar@'
tRp15
sS'G_Left'
p16
g4
(g6
S'J\x92Y>5\xba\xe3?'
tRp17
sS'T_Sys_Left'
p18
g4
(g6
S'\xdd\xac:yJ6n@'
tRp19
sS'jd'
p20
F2456782.8463078705
sS'lst'
p21
g4
(g6
S'\x00\xa0[\xd1\x15\x16.@'
tRp22
sS'vel-peaks'
p23
cnumpy.core.multiarray
_reconstruct
p24
(cnumpy
ndarray
p25
(I0
tS'b'
tRp26
(I1
(I1
tg6
I00
S'\xd6\xb8\x96?\x17\n\x17\xc0'
tbsS'grid'
p27
(I32
I18
tp28
sS'fname'
p29
S'data_l_292.12_b_064.00_grid_032_018'
p30
sS'time'
p31
ctime
struct_time
p32
((I2014
I5
I5
I1
I18
I41
I0
I125
I1
t(dtRp33
sS'f_low'
p34
F1268.9000000000001
sS'T_Sys_Right'
p35
g4
(g6
S'\x1d\x14\xa4\xd4Ryn@'
tRp36
sS'f_high'
p37
F1271.9000000000001
sS'col-density'
p38
g4
(g6
S"\x8f\xfeW\x9dB\xc4'D"
tRp39
s.