(dp1
S'n_obs'
p2
I87
sS'dispersion'
p3
cnumpy.core.multiarray
scalar
p4
(cnumpy
dtype
p5
(S'f8'
I0
I1
tRp6
(I3
S'<'
NNNI-1
I-1
I0
tbS'\xe3<K\x82\xe7\xf8#@'
tRp7
sS'b'
F48
sS'n_cal'
p8
I9
sS'vel-center'
p9
g4
(g6
S'*\x11\n\xd0\xdd\x83\x18\xc0'
tRp10
sS'rec-success'
p11
I01
sS'unixtime'
p12
F1399100422.4248459
sS'G_Right'
p13
g4
(g6
S']\xa2\xc4\xa5,3\x00@'
tRp14
sS'l'
g4
(g6
S'\x1c\xec\xa6\x0b\xc2\xbbn@'
tRp15
sS'G_Left'
p16
g4
(g6
S'\x02\xcb\x9b\x04\xea\x9a\xdf?'
tRp17
sS'T_Sys_Left'
p18
g4
(g6
S'}q\xf8\x012\xa1p@'
tRp19
sS'jd'
p20
F2456780.7919212962
sS'lst'
p21
g4
(g6
S'\x00\x00~\x98\xaa4+@'
tRp22
sS'vel-peaks'
p23
cnumpy.core.multiarray
_reconstruct
p24
(cnumpy
ndarray
p25
(I0
tS'b'
tRp26
(I1
(I1
tg6
I00
S'P\x02:\xd2\x92\x1d\x0e\xc0'
tbsS'grid'
p27
(I24
I12
tp28
sS'fname'
p29
S'data_l_245.87_b_048.00_grid_024_012'
p30
sS'time'
p31
ctime
struct_time
p32
((I2014
I5
I3
I0
I0
I22
I5
I123
I1
t(dtRp33
sS'f_low'
p34
F1268.9000000000001
sS'T_Sys_Right'
p35
g4
(g6
S't\x896\xdf\x94\xd5p@'
tRp36
sS'f_high'
p37
F1271.9000000000001
sS'col-density'
p38
g4
(g6
S'\x7fc/\x87\xa8A8D'
tRp39
s.