(dp1
S'n_obs'
p2
I87
sS'dispersion'
p3
cnumpy.core.multiarray
scalar
p4
(cnumpy
dtype
p5
(S'f8'
I0
I1
tRp6
(I3
S'<'
NNNI-1
I-1
I0
tbS'I"\xa06G\xc6,@'
tRp7
sS'b'
F8
sS'n_cal'
p8
I9
sS'vel-center'
p9
g4
(g6
S'*\xe2\xec\xd2fA!@'
tRp10
sS'rec-success'
p11
I01
sS'unixtime'
p12
F1399296138.4033389
sS'G_Right'
p13
g4
(g6
S'}\xd5\x93\xb7\xb2r\xfd?'
tRp14
sS'l'
g4
(g6
S'@\xd2\xa9\x9c39/@'
tRp15
sS'G_Left'
p16
g4
(g6
S'\x9d\x94\\\\\xf5b\xe1?'
tRp17
sS'T_Sys_Left'
p18
g4
(g6
S'\xe8i\xfcA\x7f\x18n@'
tRp19
sS'jd'
p20
F2456783.0571527779
sS'lst'
p21
g4
(g6
S'\x00\xf0M?\x05\x1e4@'
tRp22
sS'vel-peaks'
p23
cnumpy.core.multiarray
_reconstruct
p24
(cnumpy
ndarray
p25
(I0
tS'b'
tRp26
(I1
(I1
tg6
I00
S'\x00y\x0c]\xef\x93\x0c@'
tbsS'grid'
p27
(I4
I82
tp28
sS'fname'
p29
S'data_l_015.61_b_008.00_grid_004_082'
p30
sS'time'
p31
ctime
struct_time
p32
((I2014
I5
I5
I6
I22
I18
I0
I125
I1
t(dtRp33
sS'f_low'
p34
F1268.9000000000001
sS'T_Sys_Right'
p35
g4
(g6
S'\x80\x93\x07\x96g\x17p@'
tRp36
sS'f_high'
p37
F1271.9000000000001
sS'col-density'
p38
g4
(g6
S'6S\x15V\xf6$aD'
tRp39
s.