(dp1
S'n_obs'
p2
I87
sS'dispersion'
p3
cnumpy.core.multiarray
scalar
p4
(cnumpy
dtype
p5
(S'f8'
I0
I1
tRp6
(I3
S'<'
NNNI-1
I-1
I0
tbS'\xd2*1\xf7\xdcx*@'
tRp7
sS'b'
F44
sS'n_cal'
p8
I9
sS'vel-center'
p9
g4
(g6
S'kb\x17\xdbN|\r\xc0'
tRp10
sS'rec-success'
p11
I01
sS'unixtime'
p12
F1399193179.0726011
sS'G_Right'
p13
g4
(g6
S'5\xd4\xbc\xc2\nL\x00@'
tRp14
sS'l'
g4
(g6
S'\x00\xe0Zu\x19\x9f\xc1?'
tRp15
sS'G_Left'
p16
g4
(g6
S'V\xebs\x1a\xb0j\xdf?'
tRp17
sS'T_Sys_Left'
p18
g4
(g6
S'\x92%\xb12\x9e\xdfl@'
tRp19
sS'jd'
p20
F2456781.865497685
sS'lst'
p21
g4
(g6
S'\x00@*P\xe4\xe0.@'
tRp22
sS'vel-peaks'
p23
cnumpy.core.multiarray
_reconstruct
p24
(cnumpy
ndarray
p25
(I0
tS'b'
tRp26
(I1
(I1
tg6
I00
S'@\x83I\xb9\xbe.\xd8?'
tbsS'grid'
p27
(I22
I54
tp28
sS'fname'
p29
S'data_l_000.14_b_044.00_grid_022_054'
p30
sS'time'
p31
ctime
struct_time
p32
((I2014
I5
I4
I1
I46
I19
I6
I124
I1
t(dtRp33
sS'f_low'
p34
F1268.9000000000001
sS'T_Sys_Right'
p35
g4
(g6
S'\x9a\x9f\xcd\xf6\x08\x1cp@'
tRp36
sS'f_high'
p37
F1271.9000000000001
sS'col-density'
p38
g4
(g6
S'\xbf\xb3\x83g\x1bdAD'
tRp39
s.