(dp1
S'n_obs'
p2
I87
sS'dispersion'
p3
cnumpy.core.multiarray
scalar
p4
(cnumpy
dtype
p5
(S'f8'
I0
I1
tRp6
(I3
S'<'
NNNI-1
I-1
I0
tbS'\xfe\xf8\xa0\x16\xe5\\%@'
tRp7
sS'b'
F32
sS'n_cal'
p8
I9
sS'vel-center'
p9
g4
(g6
S']=\xf8J7\xaf\x17\xc0'
tRp10
sS'rec-success'
p11
I01
sS'unixtime'
p12
F1399184907.5763049
sS'G_Right'
p13
g4
(g6
S'\xa3\x81QR\xd9"\x00@'
tRp14
sS'l'
g4
(g6
S'\\\xa7}\xdci\x8eo@'
tRp15
sS'G_Left'
p16
g4
(g6
S'\x85\x10\xce\xe1\xe3\xba\xdf?'
tRp17
sS'T_Sys_Left'
p18
g4
(g6
S'\x0f\xa4D\x91\xcb\x90o@'
tRp19
sS'jd'
p20
F2456781.7697569444
sS'lst'
p21
g4
(g6
S'\x00@\x82e5E*@'
tRp22
sS'vel-peaks'
p23
cnumpy.core.multiarray
_reconstruct
p24
(cnumpy
ndarray
p25
(I0
tS'b'
tRp26
(I1
(I1
tg6
I00
S'\xecqX<I?\x10\xc0'
tbsS'grid'
p27
(I16
I18
tp28
sS'fname'
p29
S'data_l_252.45_b_032.00_grid_016_018'
p30
sS'time'
p31
ctime
struct_time
p32
((I2014
I5
I3
I23
I28
I27
I5
I123
I1
t(dtRp33
sS'f_low'
p34
F1268.9000000000001
sS'T_Sys_Right'
p35
g4
(g6
S'\x04\xbb*w\xb4\x10p@'
tRp36
sS'f_high'
p37
F1271.9000000000001
sS'col-density'
p38
g4
(g6
S'H\x8f\xef\x83u\x85<D'
tRp39
s.