(dp1
S'n_obs'
p2
I87
sS'dispersion'
p3
cnumpy.core.multiarray
scalar
p4
(cnumpy
dtype
p5
(S'f8'
I0
I1
tRp6
(I3
S'<'
NNNI-1
I-1
I0
tbS'\xb8[h\x1f\x1d\xe5\x1d@'
tRp7
sS'b'
F24
sS'n_cal'
p8
I9
sS'vel-center'
p9
g4
(g6
S'x\xa7\x19\x97\xbf\xd7\xe5\xbf'
tRp10
sS'rec-success'
p11
I01
sS'unixtime'
p12
F1398838983
sS'G_Right'
p13
g4
(g6
S'x\xb3\x80S\x9e\xd4\xff?'
tRp14
sS'l'
g4
(g6
S'\xf41\x80J\xcb\x14n@'
tRp15
sS'G_Left'
p16
g4
(g6
S'\xfa\x1d(f\xce\x15\xe0?'
tRp17
sS'T_Sys_Left'
p18
g4
(g6
S'\xbd\xfe\xcd\xd3\x9e\x17\x87@'
tRp19
sS'jd'
p20
F2456777.7660069447
sS'lst'
p21
g4
(g6
S'\x00\xa0N\xbfm\x90)@'
tRp22
sS'vel-peaks'
p23
cnumpy.core.multiarray
_reconstruct
p24
(cnumpy
ndarray
p25
(I0
tS'b'
tRp26
(I1
(I1
tg6
I00
S'\x80(K{\x90\x9f\xd7\xbf'
tbsS'grid'
p27
(I12
I14
tp28
sS'fname'
p29
S'data_l_240.65_b_024.00_grid_012_014'
p30
sS'time'
p31
ctime
struct_time
p32
((I2014
I4
I29
I23
I23
I3
I1
I119
I1
t(dtRp33
sS'f_low'
p34
F1268.9000000000001
sS'T_Sys_Right'
p35
g4
(g6
S'\xf8\xc1\x85`\x82\x8a{@'
tRp36
sS'f_high'
p37
F1271.9000000000001
sS'col-density'
p38
g4
(g6
S'\xbe\x14\xd3\x19J\x1cHD'
tRp39
s.