(dp1
S'n_obs'
p2
I87
sS'dispersion'
p3
cnumpy.core.multiarray
scalar
p4
(cnumpy
dtype
p5
(S'f8'
I0
I1
tRp6
(I3
S'<'
NNNI-1
I-1
I0
tbS"\x8d'\xcb\x17\xec\xe5)@"
tRp7
sS'b'
F16
sS'n_cal'
p8
I9
sS'vel-center'
p9
g4
(g6
S'\xab\t2v\x16\xdb%@'
tRp10
sS'rec-success'
p11
I01
sS'unixtime'
p12
F1399179373.1937189
sS'G_Right'
p13
g4
(g6
S"\x8eA'\x8a=6\xfd?"
tRp14
sS'l'
g4
(g6
S'\xf6\x9b\x82\x98y\xcfk@'
tRp15
sS'G_Left'
p16
g4
(g6
S'\x00I\xa60\xf1\x86\xe1?'
tRp17
sS'T_Sys_Left'
p18
g4
(g6
S'\x90\xf7xx\xcf\x0bq@'
tRp19
sS'jd'
p20
F2456781.7057060185
sS'lst'
p21
g4
(g6
S"\x00\x80\xf3\xf3\xfe/'@"
tRp22
sS'vel-peaks'
p23
cnumpy.core.multiarray
_reconstruct
p24
(cnumpy
ndarray
p25
(I0
tS'b'
tRp26
(I1
(I1
tg6
I00
S'\x90\xcd\xe9\xce1^\r@'
tbsS'grid'
p27
(I8
I6
tp28
sS'fname'
p29
S'data_l_222.48_b_016.00_grid_008_006'
p30
sS'time'
p31
ctime
struct_time
p32
((I2014
I5
I3
I21
I56
I13
I5
I123
I1
t(dtRp33
sS'f_low'
p34
F1268.9000000000001
sS'T_Sys_Right'
p35
g4
(g6
S'\x1c\xf0U\x19\xe8\x15p@'
tRp36
sS'f_high'
p37
F1271.9000000000001
sS'col-density'
p38
g4
(g6
S'\x19\x16\x19\x80\xa9\xff6D'
tRp39
s.