(dp1
S'n_obs'
p2
I87
sS'dispersion'
p3
cnumpy.core.multiarray
scalar
p4
(cnumpy
dtype
p5
(S'f8'
I0
I1
tRp6
(I3
S'<'
NNNI-1
I-1
I0
tbS'W&\xbbg\x85P2@'
tRp7
sS'b'
F84
sS'n_cal'
p8
I9
sS'vel-center'
p9
g4
(g6
S'#\xe3o\xabj^0\xc0'
tRp10
sS'rec-success'
p11
I01
sS'unixtime'
p12
F1399284494.3187909
sS'G_Right'
p13
g4
(g6
S'\x19:J\xb7\x9c\x98\xf4?'
tRp14
sS'l'
g4
(g6
S'\x01d#\xfd\xd1Lt@'
tRp15
sS'G_Left'
p16
g4
(g6
S'L\xb2\xfe\x16\xe9\xdb\xe8?'
tRp17
sS'T_Sys_Left'
p18
g4
(g6
S')\x98\xb2\xcf\x16\xc8k@'
tRp19
sS'jd'
p20
F2456782.9223842593
sS'lst'
p21
g4
(g6
S'\x00\x00\x9aU\xbc\xdf0@'
tRp22
sS'vel-peaks'
p23
cnumpy.core.multiarray
_reconstruct
p24
(cnumpy
ndarray
p25
(I0
tS'b'
tRp26
(I1
(I0
tg6
I00
S''
tbsS'grid'
p27
(I42
I6
tp28
sS'fname'
p29
S'data_l_324.80_b_084.00_grid_042_006'
p30
sS'time'
p31
ctime
struct_time
p32
((I2014
I5
I5
I3
I8
I14
I0
I125
I1
t(dtRp33
sS'f_low'
p34
F1268.9000000000001
sS'T_Sys_Right'
p35
g4
(g6
S'\xbb\xce\x88?\xa3\xefn@'
tRp36
sS'f_high'
p37
F1271.9000000000001
sS'col-density'
p38
g4
(g6
S'\xebZp\xca\xa3\xa0,D'
tRp39
s.