(dp1
S'n_obs'
p2
I87
sS'dispersion'
p3
cnumpy.core.multiarray
scalar
p4
(cnumpy
dtype
p5
(S'f8'
I0
I1
tRp6
(I3
S'<'
NNNI-1
I-1
I0
tbS'\xdd\x15\x0e\x92\xbf?#@'
tRp7
sS'b'
F32
sS'n_cal'
p8
I9
sS'vel-center'
p9
g4
(g6
S'\xba\xf5K\x03\xa1\xfb\x00\xc0'
tRp10
sS'rec-success'
p11
I01
sS'unixtime'
p12
F1398843282
sS'G_Right'
p13
g4
(g6
S"\x81\xdd\x1f'\x02\x8d\xfa?"
tRp14
sS'l'
g4
(g6
S'\x86\xc6\x1f\x1c\x8e\xacu@'
tRp15
sS'G_Left'
p16
g4
(g6
S'\xc3W\xc2\xa9\xa5H\xe3?'
tRp17
sS'T_Sys_Left'
p18
g4
(g6
S'}\x98)e\xe5zt@'
tRp19
sS'jd'
p20
F2456777.8157638889
sS'lst'
p21
g4
(g6
S'\x00@2\x1a\x84\xf5+@'
tRp22
sS'vel-peaks'
p23
cnumpy.core.multiarray
_reconstruct
p24
(cnumpy
ndarray
p25
(I0
tS'b'
tRp26
(I1
(I1
tg6
I00
S'p\xaa\x96,\xae\xe0\xf1\xbf'
tbsS'grid'
p27
(I16
I58
tp28
sS'fname'
p29
S'data_l_346.78_b_032.00_grid_016_058'
p30
sS'time'
p31
ctime
struct_time
p32
((I2014
I4
I30
I0
I34
I42
I2
I120
I1
t(dtRp33
sS'f_low'
p34
F1268.9000000000001
sS'T_Sys_Right'
p35
g4
(g6
S'\x1f\xe9\xafI\xaa\xebb@'
tRp36
sS'f_high'
p37
F1271.9000000000001
sS'col-density'
p38
g4
(g6
S'L\xdbZ\xddK\x89DD'
tRp39
s.