(dp1
S'n_obs'
p2
I87
sS'dispersion'
p3
cnumpy.core.multiarray
scalar
p4
(cnumpy
dtype
p5
(S'f8'
I0
I1
tRp6
(I3
S'<'
NNNI-1
I-1
I0
tbS'\x00/\xbdg\xdbg)@'
tRp7
sS'b'
F72
sS'n_cal'
p8
I9
sS'vel-center'
p9
g4
(g6
S'-\xb9K\xdafD&\xc0'
tRp10
sS'rec-success'
p11
I01
sS'unixtime'
p12
F1399199053.5442941
sS'G_Right'
p13
g4
(g6
S"\x10$\x93'\x96H\xfe?"
tRp14
sS'l'
g4
(g6
S'x|\x9f`\x157u@'
tRp15
sS'G_Left'
p16
g4
(g6
S'\x82Z\xb2\xdc(\xe8\xe0?'
tRp17
sS'T_Sys_Left'
p18
g4
(g6
S'\x95\xedQ\xb0\xd1\xe5n@'
tRp19
sS'jd'
p20
F2456781.9334837962
sS'lst'
p21
g4
(g6
S'\x00\xb0\xfe\xd5K\x131@'
tRp22
sS'vel-peaks'
p23
cnumpy.core.multiarray
_reconstruct
p24
(cnumpy
ndarray
p25
(I0
tS'b'
tRp26
(I1
(I1
tg6
I00
S',\xb2\xe1\x84\x17(\x02\xc0'
tbsS'grid'
p27
(I36
I20
tp28
sS'fname'
p29
S'data_l_339.44_b_072.00_grid_036_020'
p30
sS'time'
p31
ctime
struct_time
p32
((I2014
I5
I4
I3
I24
I13
I6
I124
I1
t(dtRp33
sS'f_low'
p34
F1268.9000000000001
sS'T_Sys_Right'
p35
g4
(g6
S'p\xc56\x057\x12p@'
tRp36
sS'f_high'
p37
F1271.9000000000001
sS'col-density'
p38
g4
(g6
S'\x1a\xf2j\x8a\xd70*D'
tRp39
s.