(dp1
S'n_obs'
p2
I87
sS'dispersion'
p3
cnumpy.core.multiarray
scalar
p4
(cnumpy
dtype
p5
(S'f8'
I0
I1
tRp6
(I3
S'<'
NNNI-1
I-1
I0
tbS'|Md\x02\x80y0@'
tRp7
sS'b'
F88
sS'n_cal'
p8
I9
sS'vel-center'
p9
g4
(g6
S'0\xb5\x8f4\xc3j:\xc0'
tRp10
sS'rec-success'
p11
I01
sS'unixtime'
p12
F1399285206.651262
sS'G_Right'
p13
g4
(g6
S'\x0b\xcc/\xede\xfc\xf4?'
tRp14
sS'l'
g4
(g6
S'\x1c\xc7\x89[\xd6It@'
tRp15
sS'G_Left'
p16
g4
(g6
S'\x86o\x93V\xb5e\xe8?'
tRp17
sS'T_Sys_Left'
p18
g4
(g6
S'x#.\xdb\t\no@'
tRp19
sS'jd'
p20
F2456782.930625
sS'lst'
p21
g4
(g6
S'\x00\xa0\xecb\x81\x121@'
tRp22
sS'vel-peaks'
p23
cnumpy.core.multiarray
_reconstruct
p24
(cnumpy
ndarray
p25
(I0
tS'b'
tRp26
(I1
(I0
tg6
I00
S''
tbsS'grid'
p27
(I44
I2
tp28
sS'fname'
p29
S'data_l_324.61_b_088.00_grid_044_002'
p30
sS'time'
p31
ctime
struct_time
p32
((I2014
I5
I5
I3
I20
I6
I0
I125
I1
t(dtRp33
sS'f_low'
p34
F1268.9000000000001
sS'T_Sys_Right'
p35
g4
(g6
S'Zv\xde\xad7\xa4m@'
tRp36
sS'f_high'
p37
F1271.9000000000001
sS'col-density'
p38
g4
(g6
S'\x866\x0f\xb2\xe0\x84&D'
tRp39
s.