(dp1
S'n_obs'
p2
I87
sS'dispersion'
p3
cnumpy.core.multiarray
scalar
p4
(cnumpy
dtype
p5
(S'f8'
I0
I1
tRp6
(I3
S'<'
NNNI-1
I-1
I0
tbS'\xea\xf4g\xe5D\xc7#@'
tRp7
sS'b'
F12
sS'n_cal'
p8
I9
sS'vel-center'
p9
g4
(g6
S'\xba\x8f \xd6\x16\xb4\x18@'
tRp10
sS'rec-success'
p11
I01
sS'unixtime'
p12
F1399297114.9765661
sS'G_Right'
p13
g4
(g6
S'\x0b1\xf1d\x84<\xfb?'
tRp14
sS'l'
g4
(g6
S' ;\xa4\x91\xf2\xa91@'
tRp15
sS'G_Left'
p16
g4
(g6
S'\xb3 1`b\xcc\xe2?'
tRp17
sS'T_Sys_Left'
p18
g4
(g6
S'}\xa5dY\xc5\x92p@'
tRp19
sS'jd'
p20
F2456783.0684490739
sS'lst'
p21
g4
(g6
S'\x00\x108n\x9dc4@'
tRp22
sS'vel-peaks'
p23
cnumpy.core.multiarray
_reconstruct
p24
(cnumpy
ndarray
p25
(I0
tS'b'
tRp26
(I1
(I1
tg6
I00
S'h8\xaak~p\x10@'
tbsS'grid'
p27
(I6
I82
tp28
sS'fname'
p29
S'data_l_017.66_b_012.00_grid_006_082'
p30
sS'time'
p31
ctime
struct_time
p32
((I2014
I5
I5
I6
I38
I34
I0
I125
I1
t(dtRp33
sS'f_low'
p34
F1268.9000000000001
sS'T_Sys_Right'
p35
g4
(g6
S'\x15\x06\xe09\xd5\x9co@'
tRp36
sS'f_high'
p37
F1271.9000000000001
sS'col-density'
p38
g4
(g6
S'\x1b\x93\n\x00\x8e\xceYD'
tRp39
s.