(dp1
S'n_obs'
p2
I87
sS'dispersion'
p3
cnumpy.core.multiarray
scalar
p4
(cnumpy
dtype
p5
(S'f8'
I0
I1
tRp6
(I3
S'<'
NNNI-1
I-1
I0
tbS'\xc3=\xf9\xd5A\x9e$@'
tRp7
sS'b'
F44
sS'n_cal'
p8
I9
sS'vel-center'
p9
g4
(g6
S'b\xf1d}\xfc\x15\x13\xc0'
tRp10
sS'rec-success'
p11
I01
sS'unixtime'
p12
F1399096973.308924
sS'G_Right'
p13
g4
(g6
S'\x96\xd3M\xef\xef"\x01@'
tRp14
sS'l'
g4
(g6
S'\x04\x85\x86H\xa5kn@'
tRp15
sS'G_Left'
p16
g4
(g6
S'1\x90\x9b\xff\xb6\xe0\xdd?'
tRp17
sS'T_Sys_Left'
p18
g4
(g6
S'J\xb8\x08\xba\x95\xd7q@'
tRp19
sS'jd'
p20
F2456780.7520023147
sS'lst'
p21
g4
(g6
S'\x00\xa0\xe4\x86\xccH)@'
tRp22
sS'vel-peaks'
p23
cnumpy.core.multiarray
_reconstruct
p24
(cnumpy
ndarray
p25
(I0
tS'b'
tRp26
(I1
(I1
tg6
I00
S'\xd8*\xfe\xc1W\xb5\x0f\xc0'
tbsS'grid'
p27
(I22
I12
tp28
sS'fname'
p29
S'data_l_243.36_b_044.00_grid_022_012'
p30
sS'time'
p31
ctime
struct_time
p32
((I2014
I5
I2
I23
I2
I53
I4
I122
I1
t(dtRp33
sS'f_low'
p34
F1268.9000000000001
sS'T_Sys_Right'
p35
g4
(g6
S'\x7fn\xa41\xf8qn@'
tRp36
sS'f_high'
p37
F1271.9000000000001
sS'col-density'
p38
g4
(g6
S'\xce\x9e\x06qnV3D'
tRp39
s.