(dp1
S'n_obs'
p2
I87
sS'dispersion'
p3
cnumpy.core.multiarray
scalar
p4
(cnumpy
dtype
p5
(S'f8'
I0
I1
tRp6
(I3
S'<'
NNNI-1
I-1
I0
tbS'\x14\xc5\xbfM\x9d\x18\x1e@'
tRp7
sS'b'
F56
sS'n_cal'
p8
I9
sS'vel-center'
p9
g4
(g6
S'\x943\xb0\xe9\xb3\x8d\x10\xc0'
tRp10
sS'rec-success'
p11
I01
sS'unixtime'
p12
F1399270609.0767751
sS'G_Right'
p13
g4
(g6
S'/V\x98P\xffi\xfc?'
tRp14
sS'l'
g4
(g6
S'$+\xa4\xbd\xe6$k@'
tRp15
sS'G_Left'
p16
g4
(g6
S'\xd5\xb7"\xc8\xed\x04\xe2?'
tRp17
sS'T_Sys_Left'
p18
g4
(g6
S'\xef\xf3{-\x82\x03n@'
tRp19
sS'jd'
p20
F2456782.7616782407
sS'lst'
p21
g4
(g6
S'\x00`y!O\x03*@'
tRp22
sS'vel-peaks'
p23
cnumpy.core.multiarray
_reconstruct
p24
(cnumpy
ndarray
p25
(I0
tS'b'
tRp26
(I1
(I1
tg6
I00
S'\x00h\x9a:\xd4;\x18\xc0'
tbsS'grid'
p27
(I28
I2
tp28
sS'fname'
p29
S'data_l_217.15_b_056.00_grid_028_002'
p30
sS'time'
p31
ctime
struct_time
p32
((I2014
I5
I4
I23
I16
I49
I6
I124
I1
t(dtRp33
sS'f_low'
p34
F1268.9000000000001
sS'T_Sys_Right'
p35
g4
(g6
S'\x99\xcf\x16\xac Xo@'
tRp36
sS'f_high'
p37
F1271.9000000000001
sS'col-density'
p38
g4
(g6
S')C\xd8U\x801!D'
tRp39
s.