(dp1
S'n_obs'
p2
I87
sS'dispersion'
p3
cnumpy.core.multiarray
scalar
p4
(cnumpy
dtype
p5
(S'f8'
I0
I1
tRp6
(I3
S'<'
NNNI-1
I-1
I0
tbS'\xe5\xd1\x9e\xd5!\x11&@'
tRp7
sS'b'
F38
sS'n_cal'
p8
I9
sS'vel-center'
p9
g4
(g6
S'\xde\xe37\xeb\xc0K\x04@'
tRp10
sS'rec-success'
p11
I01
sS'unixtime'
p12
F1399294487.2460561
sS'G_Right'
p13
g4
(g6
S'>\xe2\xeeo\xa3\x1e\xf6?'
tRp14
sS'l'
g4
(g6
S'Px\x98>Cv1@'
tRp15
sS'G_Left'
p16
g4
(g6
S'\n\xc3a(\x95%\xe7?'
tRp17
sS'T_Sys_Left'
p18
g4
(g6
S'\xdc\xb8\xcc\x8a-mn@'
tRp19
sS'jd'
p20
F2456783.0380439814
sS'lst'
p21
g4
(g6
S'\x00\xd0{kK\xa83@'
tRp22
sS'vel-peaks'
p23
cnumpy.core.multiarray
_reconstruct
p24
(cnumpy
ndarray
p25
(I0
tS'b'
tRp26
(I1
(I1
tg6
I00
S'\xe0?\xda\xf5\x0e\x86\xe0\xbf'
tbsS'grid'
p27
(I19
I1
tp28
sS'fname'
p29
S'data_l_017.46_b_038.00_grid_019_001'
p30
sS'time'
p31
ctime
struct_time
p32
((I2014
I5
I5
I5
I54
I47
I0
I125
I1
t(dtRp33
sS'f_low'
p34
F1268.9000000000001
sS'T_Sys_Right'
p35
g4
(g6
S'X\xadIHK6q@'
tRp36
sS'f_high'
p37
F1271.9000000000001
sS'col-density'
p38
g4
(g6
S'`\x9c\xb3;*\x82>D'
tRp39
s.