(dp1
S'n_obs'
p2
I87
sS'dispersion'
p3
cnumpy.core.multiarray
scalar
p4
(cnumpy
dtype
p5
(S'f8'
I0
I1
tRp6
(I3
S'<'
NNNI-1
I-1
I0
tbS'\x9c\xaa\xe84\xce\x1c\x12@'
tRp7
sS'b'
F64
sS'n_cal'
p8
I9
sS'vel-center'
p9
g4
(g6
S'\xbb`\x1d\xc4\x15\x0b\x15\xc0'
tRp10
sS'rec-success'
p11
I01
sS'unixtime'
p12
F1399277460.4712901
sS'G_Right'
p13
g4
(g6
S'\xeeE\x08\x89\x9d\x94\xfb?'
tRp14
sS'l'
g4
(g6
S'\xb6\xc7\xde\x0e\xf7\x1dq@'
tRp15
sS'G_Left'
p16
g4
(g6
S'\x88\xe0\xe4\x92V\x90\xe2?'
tRp17
sS'T_Sys_Left'
p18
g4
(g6
S'R\x8e \xfe\xef&o@'
tRp19
sS'jd'
p20
F2456782.8409722224
sS'lst'
p21
g4
(g6
S'\x00\xe0\xa5]W\xd4-@'
tRp22
sS'vel-peaks'
p23
cnumpy.core.multiarray
_reconstruct
p24
(cnumpy
ndarray
p25
(I0
tS'b'
tRp26
(I1
(I1
tg6
I00
S'\x1e\xff\xaf\xe1\xdbQ\x12\xc0'
tbsS'grid'
p27
(I32
I14
tp28
sS'fname'
p29
S'data_l_273.87_b_064.00_grid_032_014'
p30
sS'time'
p31
ctime
struct_time
p32
((I2014
I5
I5
I1
I11
I0
I0
I125
I1
t(dtRp33
sS'f_low'
p34
F1268.9000000000001
sS'T_Sys_Right'
p35
g4
(g6
S'6\xf7-\x90"\xcdo@'
tRp36
sS'f_high'
p37
F1271.9000000000001
sS'col-density'
p38
g4
(g6
S'\xc4l\xf1KV\xc5\x17D'
tRp39
s.