(dp1
S'n_obs'
p2
I87
sS'dispersion'
p3
cnumpy.core.multiarray
scalar
p4
(cnumpy
dtype
p5
(S'f8'
I0
I1
tRp6
(I3
S'<'
NNNI-1
I-1
I0
tbS'\x8e\x9a\r\x95\xc2#.@'
tRp7
sS'b'
F44
sS'n_cal'
p8
I9
sS'vel-center'
p9
g4
(g6
S'\x02EV<X\n\x05\xc0'
tRp10
sS'rec-success'
p11
I01
sS'unixtime'
p12
F1399191073.9024849
sS'G_Right'
p13
g4
(g6
S't\xe8U\xd4\x04-\x00@'
tRp14
sS'l'
g4
(g6
S'\x90\xc7\xc9\xecwas@'
tRp15
sS'G_Left'
p16
g4
(g6
S'\x0cb\x9c\xec\xf0\xa6\xdf?'
tRp17
sS'T_Sys_Left'
p18
g4
(g6
S'\xbeJ[S\x0c\x0fo@'
tRp19
sS'jd'
p20
F2456781.841122685
sS'lst'
p21
g4
(g6
S'\x00\xe0\rB\x8d\xb4-@'
tRp22
sS'vel-peaks'
p23
cnumpy.core.multiarray
_reconstruct
p24
(cnumpy
ndarray
p25
(I0
tS'b'
tRp26
(I1
(I1
tg6
I00
S'\n\x98\x91\xb9\xeb\x81\x12\xc0'
tbsS'grid'
p27
(I22
I36
tp28
sS'fname'
p29
S'data_l_310.09_b_044.00_grid_022_036'
p30
sS'time'
p31
ctime
struct_time
p32
((I2014
I5
I4
I1
I11
I13
I6
I124
I1
t(dtRp33
sS'f_low'
p34
F1268.9000000000001
sS'T_Sys_Right'
p35
g4
(g6
S'\x19\xd3\x83\xb5f\xddp@'
tRp36
sS'f_high'
p37
F1271.9000000000001
sS'col-density'
p38
g4
(g6
S'\xf8\xbb3\xbf\x11\xf6AD'
tRp39
s.