(dp1
S'n_obs'
p2
I87
sS'dispersion'
p3
cnumpy.core.multiarray
scalar
p4
(cnumpy
dtype
p5
(S'f8'
I0
I1
tRp6
(I3
S'<'
NNNI-1
I-1
I0
tbS'O\xa1P \xb712@'
tRp7
sS'b'
F4
sS'n_cal'
p8
I9
sS'vel-center'
p9
g4
(g6
S'\x03\xe4)\x84nr(@'
tRp10
sS'rec-success'
p11
I01
sS'unixtime'
p12
F1399300790.5844359
sS'G_Right'
p13
g4
(g6
S'\xf7\xd6\xf4GM\xec\xfa?'
tRp14
sS'l'
g4
(g6
S'\x903\xc2Y\xc5g0@'
tRp15
sS'G_Left'
p16
g4
(g6
S'$y\x83\x86d\x04\xe3?'
tRp17
sS'T_Sys_Left'
p18
g4
(g6
S'\xab2mr\xaa\x18q@'
tRp19
sS'jd'
p20
F2456783.1109953704
sS'lst'
p21
g4
(g6
S'\x00\xc010\xbci5@'
tRp22
sS'vel-peaks'
p23
cnumpy.core.multiarray
_reconstruct
p24
(cnumpy
ndarray
p25
(I0
tS'b'
tRp26
(I1
(I2
tg6
I00
S'\x1c\xb4\xb8\x9a\xde\x881@l\xa9\x92d_\xf4\x10@'
tbsS'grid'
p27
(I2
I83
tp28
sS'fname'
p29
S'data_l_016.41_b_004.00_grid_002_083'
p30
sS'time'
p31
ctime
struct_time
p32
((I2014
I5
I5
I7
I39
I50
I0
I125
I1
t(dtRp33
sS'f_low'
p34
F1268.9000000000001
sS'T_Sys_Right'
p35
g4
(g6
S'\x0e\x05\xc8\x8eiLp@'
tRp36
sS'f_high'
p37
F1271.9000000000001
sS'col-density'
p38
g4
(g6
S'\xd9[\x9fr\xf5GmD'
tRp39
s.