(dp1
S'n_obs'
p2
I87
sS'dispersion'
p3
cnumpy.core.multiarray
scalar
p4
(cnumpy
dtype
p5
(S'f8'
I0
I1
tRp6
(I3
S'<'
NNNI-1
I-1
I0
tbS"c\xb1y\x12'N&@"
tRp7
sS'b'
F10
sS'n_cal'
p8
I9
sS'vel-center'
p9
g4
(g6
S';\xb3;\xca\x00\xa9\x15@'
tRp10
sS'rec-success'
p11
I01
sS'unixtime'
p12
F1399287688.2803409
sS'G_Right'
p13
g4
(g6
S'{\x0e\xfc\xb4\xebo\x00@'
tRp14
sS'l'
g4
(g6
S'\x80\xe8i\x16\xd8"\x17@'
tRp15
sS'G_Left'
p16
g4
(g6
S'\x1f\xce\xa1\xb8\x1c&\xdf?'
tRp17
sS'T_Sys_Left'
p18
g4
(g6
S'\xc4~7\xae\xdano@'
tRp19
sS'jd'
p20
F2456782.9593518516
sS'lst'
p21
g4
(g6
S'\x00 u\x86|\xc31@'
tRp22
sS'vel-peaks'
p23
cnumpy.core.multiarray
_reconstruct
p24
(cnumpy
ndarray
p25
(I0
tS'b'
tRp26
(I1
(I1
tg6
I00
S'\x0cei\t\xc7q\x11@'
tbsS'grid'
p27
(I5
I7
tp28
sS'fname'
p29
S'data_l_005.78_b_010.00_grid_005_007'
p30
sS'time'
p31
ctime
struct_time
p32
((I2014
I5
I5
I4
I1
I28
I0
I125
I1
t(dtRp33
sS'f_low'
p34
F1268.9000000000001
sS'T_Sys_Right'
p35
g4
(g6
S'\n\xa7\xa6\xecI\x9dp@'
tRp36
sS'f_high'
p37
F1271.9000000000001
sS'col-density'
p38
g4
(g6
S'\x1e\xe1\x14\xb0\xbf\xe8YD'
tRp39
s.