(dp1
S'n_obs'
p2
I174
sS'dispersion'
p3
cnumpy.core.multiarray
scalar
p4
(cnumpy
dtype
p5
(S'f8'
I0
I1
tRp6
(I3
S'<'
NNNI-1
I-1
I0
tbS'\xc3\xea[H\xa0\xf46@'
tRp7
sS'b'
F4
sS'fname'
p8
S'data_l_224.03_b_004.00_grid_002_007'
p9
sS'vel-center'
p10
g4
(g6
S'J\xd34\xa0,\x80A@'
tRp11
sS'rec-success'
p12
I01
sS'unixtime'
p13
F1398648720
sS'G_Right'
p14
g4
(g6
S'\xac\xca\xbec{y\xfc?'
tRp15
sS'l'
g4
(g6
S'\xaa\xb2p\x0e\x18\x01l@'
tRp16
sS'G_Left'
p17
g4
(g6
S'\xf3=\x91<!\xfb\xe1?'
tRp18
sS'T_Sys_Left'
p19
g4
(g6
S'\xd3\xb2*\xbb\xddd~@'
tRp20
sS'jd'
p21
F2456775.5638888888
sS'lst'
p22
g4
(g6
S'\x00\xc0\xe41n%\x1f@'
tRp23
sS'vel-peaks'
p24
cnumpy.core.multiarray
_reconstruct
p25
(cnumpy
ndarray
p26
(I0
tS'b'
tRp27
(I1
(I3
tg6
I00
S'\x9e9\x8e\xfb\x83\xfcM@"\xb19\n\xdcd4@\x00z\xf92wv\xfd?'
tbsS'grid'
p28
(I2
I7
tp29
sS'n_cal'
p30
I18
sS'time'
p31
ctime
struct_time
p32
((I2014
I4
I27
I18
I32
I0
I6
I117
I1
t(dtRp33
sS'f_low'
p34
F1268.9000000000001
sS'T_Sys_Right'
p35
g4
(g6
S"\x9e\x81'g\xa2\xb0~@"
tRp36
sS'f_high'
p37
F1271.9000000000001
sS'col-density'
p38
g4
(g6
S'\x01\x8e*\x07\x84\xd3tD'
tRp39
s.