(dp1
S'n_obs'
p2
I87
sS'dispersion'
p3
cnumpy.core.multiarray
scalar
p4
(cnumpy
dtype
p5
(S'f8'
I0
I1
tRp6
(I3
S'<'
NNNI-1
I-1
I0
tbS'\xc9 \xc5\xce\xf4L2@'
tRp7
sS'b'
F60
sS'n_cal'
p8
I9
sS'vel-center'
p9
g4
(g6
S'_0Y\xc0\xfd\x943\xc0'
tRp10
sS'rec-success'
p11
I01
sS'unixtime'
p12
F1399274610.4414301
sS'G_Right'
p13
g4
(g6
S'\xe0<+\x9a8\x1f\xff?'
tRp14
sS'l'
g4
(g6
S'\x00\x00\x00\x00\x00\xa0p@'
tRp15
sS'G_Left'
p16
g4
(g6
S'(L\x07o\x8fs\xe0?'
tRp17
sS'T_Sys_Left'
p18
g4
(g6
S'\x97V\xb5\x1b\xd7\x8bn@'
tRp19
sS'jd'
p20
F2456782.8079861109
sS'lst'
p21
g4
(g6
S'\x00 g\xee\xe5=,@'
tRp22
sS'vel-peaks'
p23
cnumpy.core.multiarray
_reconstruct
p24
(cnumpy
ndarray
p25
(I0
tS'b'
tRp26
(I1
(I1
tg6
I00
S'\xf8\xda\xbcw@\x11\x18\xc0'
tbsS'grid'
p27
(I30
I14
tp28
sS'fname'
p29
S'data_l_266.00_b_060.00_grid_030_014'
p30
sS'time'
p31
ctime
struct_time
p32
((I2014
I5
I5
I0
I23
I30
I0
I125
I1
t(dtRp33
sS'f_low'
p34
F1268.9000000000001
sS'T_Sys_Right'
p35
g4
(g6
S'\xe4\xf8\x8dp\xfd\xabo@'
tRp36
sS'f_high'
p37
F1271.9000000000001
sS'col-density'
p38
g4
(g6
S'eoJa\x1940D'
tRp39
s.