(dp1
S'n_obs'
p2
I87
sS'dispersion'
p3
cnumpy.core.multiarray
scalar
p4
(cnumpy
dtype
p5
(S'f8'
I0
I1
tRp6
(I3
S'<'
NNNI-1
I-1
I0
tbS'\x81{\x19au$)@'
tRp7
sS'b'
F24
sS'n_cal'
p8
I9
sS'vel-center'
p9
g4
(g6
S'*\xb7F\xc6\xe8\xaf\xf2\xbf'
tRp10
sS'rec-success'
p11
I01
sS'unixtime'
p12
F1399089129.264827
sS'G_Right'
p13
g4
(g6
S'\xec\x039hL\xea\xfe?'
tRp14
sS'l'
g4
(g6
S'8\xfemj"\xb9o@'
tRp15
sS'G_Left'
p16
g4
(g6
S'\x15\xf8R\x0c\xb9\x8f\xe0?'
tRp17
sS'T_Sys_Left'
p18
g4
(g6
S'\r\xc1<\xc5\x8b\xe8p@'
tRp19
sS'jd'
p20
F2456780.6612152779
sS'lst'
p21
g4
(g6
S"\x00`\xb0G'\xea$@"
tRp22
sS'vel-peaks'
p23
cnumpy.core.multiarray
_reconstruct
p24
(cnumpy
ndarray
p25
(I0
tS'b'
tRp26
(I1
(I1
tg6
I00
S'\x04J\xc6\x19\x91:\x15\xc0'
tbsS'grid'
p27
(I12
I20
tp28
sS'fname'
p29
S'data_l_253.79_b_024.00_grid_012_020'
p30
sS'time'
p31
ctime
struct_time
p32
((I2014
I5
I2
I20
I52
I9
I4
I122
I1
t(dtRp33
sS'f_low'
p34
F1268.9000000000001
sS'T_Sys_Right'
p35
g4
(g6
S'\xa4\xc7}\xb9\x1c\x8fq@'
tRp36
sS'f_high'
p37
F1271.9000000000001
sS'col-density'
p38
g4
(g6
S'\xc6\xf7\x81\xa861=D'
tRp39
s.