(dp1
S'n_obs'
p2
I87
sS'dispersion'
p3
cnumpy.core.multiarray
scalar
p4
(cnumpy
dtype
p5
(S'f8'
I0
I1
tRp6
(I3
S'<'
NNNI-1
I-1
I0
tbS'\x8d\x9b\x18>f\xaf1@'
tRp7
sS'b'
F44
sS'n_cal'
p8
I9
sS'vel-center'
p9
g4
(g6
S'\xda-\xf7\x04\xb5x\xf3\xbf'
tRp10
sS'rec-success'
p11
I01
sS'unixtime'
p12
F1399191570.8946249
sS'G_Right'
p13
g4
(g6
S']\xd76\x94\x14\x1a\x00@'
tRp14
sS'l'
g4
(g6
S'h\x885\xceh\x13t@'
tRp15
sS'G_Left'
p16
g4
(g6
S'\xc2\x10\xd4S+\xcc\xdf?'
tRp17
sS'T_Sys_Left'
p18
g4
(g6
S'\xc7\x99\xcc\xc4\xff\x1dp@'
tRp19
sS'jd'
p20
F2456781.8468749998
sS'lst'
p21
g4
(g6
S'\x00@\xd4\x04n\xfb-@'
tRp22
sS'vel-peaks'
p23
cnumpy.core.multiarray
_reconstruct
p24
(cnumpy
ndarray
p25
(I0
tS'b'
tRp26
(I1
(I2
tg6
I00
S'&\xaeWh\x1b\xbc9@\xca"\xc4\x8b\xe9\x1e\r\xc0'
tbsS'grid'
p27
(I22
I40
tp28
sS'fname'
p29
S'data_l_321.21_b_044.00_grid_022_040'
p30
sS'time'
p31
ctime
struct_time
p32
((I2014
I5
I4
I1
I19
I30
I6
I124
I1
t(dtRp33
sS'f_low'
p34
F1268.9000000000001
sS'T_Sys_Right'
p35
g4
(g6
S'\xae\xc0poi\x0fn@'
tRp36
sS'f_high'
p37
F1271.9000000000001
sS'col-density'
p38
g4
(g6
S'p\xf1p]\x93)ED'
tRp39
s.