(dp1
S'n_obs'
p2
I87
sS'dispersion'
p3
cnumpy.core.multiarray
scalar
p4
(cnumpy
dtype
p5
(S'f8'
I0
I1
tRp6
(I3
S'<'
NNNI-1
I-1
I0
tbS'5S\xfbV\x87\xc91@'
tRp7
sS'b'
F60
sS'n_cal'
p8
I9
sS'vel-center'
p9
g4
(g6
S'uj\x8fU\x94\x1c2\xc0'
tRp10
sS'rec-success'
p11
I01
sS'unixtime'
p12
F1399111436.664906
sS'G_Right'
p13
g4
(g6
S'>\xc7_{\xb0\xe5\x00@'
tRp14
sS'l'
g4
(g6
S'\x00\x00\x00\x00\x00\xa0s@'
tRp15
sS'G_Left'
p16
g4
(g6
S'u\x9d\xd6\x84\x03M\xde?'
tRp17
sS'T_Sys_Left'
p18
g4
(g6
S'\xe4\xce\xacZ\xda\x11r@'
tRp19
sS'jd'
p20
F2456780.9193981481
sS'lst'
p21
g4
(g6
S'\x00\x90\x99\x02\xb2\xab0@'
tRp22
sS'vel-peaks'
p23
cnumpy.core.multiarray
_reconstruct
p24
(cnumpy
ndarray
p25
(I0
tS'b'
tRp26
(I1
(I1
tg6
I00
S'`\x1c_\xe0\x1a\x8e\x03\xc0'
tbsS'grid'
p27
(I30
I26
tp28
sS'fname'
p29
S'data_l_314.00_b_060.00_grid_030_026'
p30
sS'time'
p31
ctime
struct_time
p32
((I2014
I5
I3
I3
I3
I56
I5
I123
I1
t(dtRp33
sS'f_low'
p34
F1268.9000000000001
sS'T_Sys_Right'
p35
g4
(g6
S'h\xb1\xb49f\xc3q@'
tRp36
sS'f_high'
p37
F1271.9000000000001
sS'col-density'
p38
g4
(g6
S'@l\xd4\xf6\x03\xdf/D'
tRp39
s.