(dp1
S'n_obs'
p2
I87
sS'dispersion'
p3
cnumpy.core.multiarray
scalar
p4
(cnumpy
dtype
p5
(S'f8'
I0
I1
tRp6
(I3
S'<'
NNNI-1
I-1
I0
tbS"'bV\x8e^\xf21@"
tRp7
sS'b'
F68
sS'n_cal'
p8
I9
sS'vel-center'
p9
g4
(g6
S'\xe2\xbd\xb8\x03\xe5\xb94\xc0'
tRp10
sS'rec-success'
p11
I01
sS'unixtime'
p12
F1399279608.6540771
sS'G_Right'
p13
g4
(g6
S'\x80$v\xd3L\xcc\xf5?'
tRp14
sS'l'
g4
(g6
S'\x84_\xc9L\x13!q@'
tRp15
sS'G_Left'
p16
g4
(g6
S'\xc5\xc3{\x03\x04}\xe7?'
tRp17
sS'T_Sys_Left'
p18
g4
(g6
S'd[\xa5\rWxn@'
tRp19
sS'jd'
p20
F2456782.8658333332
sS'lst'
p21
g4
(g6
S'\x00 \xb0\xc7\xab\x06/@'
tRp22
sS'vel-peaks'
p23
cnumpy.core.multiarray
_reconstruct
p24
(cnumpy
ndarray
p25
(I0
tS'b'
tRp26
(I1
(I0
tg6
I00
S''
tbsS'grid'
p27
(I34
I12
tp28
sS'fname'
p29
S'data_l_274.07_b_068.00_grid_034_012'
p30
sS'time'
p31
ctime
struct_time
p32
((I2014
I5
I5
I1
I46
I48
I0
I125
I1
t(dtRp33
sS'f_low'
p34
F1268.9000000000001
sS'T_Sys_Right'
p35
g4
(g6
S'\x9b\x07\xe6\x014Gn@'
tRp36
sS'f_high'
p37
F1271.9000000000001
sS'col-density'
p38
g4
(g6
S'\xb9\xb7\x17\xaaN\t%D'
tRp39
s.