(dp1
S'n_obs'
p2
I87
sS'dispersion'
p3
cnumpy.core.multiarray
scalar
p4
(cnumpy
dtype
p5
(S'f8'
I0
I1
tRp6
(I3
S'<'
NNNI-1
I-1
I0
tbS'Zk~\xd9\x86\xb6+@'
tRp7
sS'b'
F52
sS'n_cal'
p8
I9
sS'vel-center'
p9
g4
(g6
S'*d\xf9\xe9\x05R1\xc0'
tRp10
sS'rec-success'
p11
I01
sS'unixtime'
p12
F1399104524.453918
sS'G_Right'
p13
g4
(g6
S'\x8b\x7f"\xcf\xe32\x01@'
tRp14
sS'l'
g4
(g6
S'\xe1m\xedL|\x97q@'
tRp15
sS'G_Left'
p16
g4
(g6
S'\x86\xac}z\x00\xc5\xdd?'
tRp17
sS'T_Sys_Left'
p18
g4
(g6
S'=K\x0e\xa6\xe9\xcck@'
tRp19
sS'jd'
p20
F2456780.8393981485
sS'lst'
p21
g4
(g6
S'\x00\xa0\x9b\xc3\xa8}-@'
tRp22
sS'vel-peaks'
p23
cnumpy.core.multiarray
_reconstruct
p24
(cnumpy
ndarray
p25
(I0
tS'b'
tRp26
(I1
(I2
tg6
I00
S'H\xe0\x8e\\n\x91\x17\xc0\x1e\xf4\nc\x1f\xf0>\xc0'
tbsS'grid'
p27
(I26
I22
tp28
sS'fname'
p29
S'data_l_281.47_b_052.00_grid_026_022'
p30
sS'time'
p31
ctime
struct_time
p32
((I2014
I5
I3
I1
I8
I44
I5
I123
I1
t(dtRp33
sS'f_low'
p34
F1268.9000000000001
sS'T_Sys_Right'
p35
g4
(g6
S'yI\xa1PV\xacq@'
tRp36
sS'f_high'
p37
F1271.9000000000001
sS'col-density'
p38
g4
(g6
S'\x89\x86h\x1dxo*D'
tRp39
s.