(dp1
S'n_obs'
p2
I87
sS'dispersion'
p3
cnumpy.core.multiarray
scalar
p4
(cnumpy
dtype
p5
(S'f8'
I0
I1
tRp6
(I3
S'<'
NNNI-1
I-1
I0
tbS'\x8d\xdc\xf1\x87~J%@'
tRp7
sS'b'
F76
sS'n_cal'
p8
I9
sS'vel-center'
p9
g4
(g6
S'5S\x0c\x1b9\x8dG\xc0'
tRp10
sS'rec-success'
p11
I01
sS'unixtime'
p12
F1399282021.077539
sS'G_Right'
p13
g4
(g6
S'K\r\xd8\x80\xfd\xd3\xf7?'
tRp14
sS'l'
F210
sS'G_Left'
p15
g4
(g6
S'\xb0\x90\x07@\xbc|\xe5?'
tRp16
sS'T_Sys_Left'
p17
g4
(g6
S'\x19\x97\xb4\xc46$n@'
tRp18
sS'jd'
p19
F2456782.8937615743
sS'lst'
p20
g4
(g6
S'\x00\x90\xe7{e/0@'
tRp21
sS'vel-peaks'
p22
cnumpy.core.multiarray
_reconstruct
p23
(cnumpy
ndarray
p24
(I0
tS'b'
tRp25
(I1
(I0
tg6
I00
S''
tbsS'grid'
p26
(I38
I0
tp27
sS'fname'
p28
S'data_l_210.00_b_076.00_grid_038_000'
p29
sS'time'
p30
ctime
struct_time
p31
((I2014
I5
I5
I2
I27
I1
I0
I125
I1
t(dtRp32
sS'f_low'
p33
F1268.9000000000001
sS'T_Sys_Right'
p34
g4
(g6
S"N\xe0#'\x18\x19o@"
tRp35
sS'f_high'
p36
F1271.9000000000001
sS'col-density'
p37
g4
(g6
S'\xa1\xa1,9xV&D'
tRp38
s.