(dp1
S'n_obs'
p2
I87
sS'dispersion'
p3
cnumpy.core.multiarray
scalar
p4
(cnumpy
dtype
p5
(S'f8'
I0
I1
tRp6
(I3
S'<'
NNNI-1
I-1
I0
tbS'PS\xae[\x98\xa5%@'
tRp7
sS'b'
F56
sS'n_cal'
p8
I9
sS'vel-center'
p9
g4
(g6
S'PQ\xdf>\xbc\x85\x15\xc0'
tRp10
sS'rec-success'
p11
I01
sS'unixtime'
p12
F1399110922.863425
sS'G_Right'
p13
g4
(g6
S'\xf2\x11\xfe\xd78\xce\x00@'
tRp14
sS'l'
g4
(g6
S'\x00\xa3v\x83\x89z\x1d@'
tRp15
sS'G_Left'
p16
g4
(g6
S'K\xa4\xc8pSw\xde?'
tRp17
sS'T_Sys_Left'
p18
g4
(g6
S'!t\x08\xee\xd3[q@'
tRp19
sS'jd'
p20
F2456780.9134490741
sS'lst'
p21
g4
(g6
S'\x00\xb0\x9cN\x0b\x870@'
tRp22
sS'vel-peaks'
p23
cnumpy.core.multiarray
_reconstruct
p24
(cnumpy
ndarray
p25
(I0
tS'b'
tRp26
(I1
(I1
tg6
I00
S'Pq{Z>\xf6\xf1\xbf'
tbsS'grid'
p27
(I28
I44
tp28
sS'fname'
p29
S'data_l_007.37_b_056.00_grid_028_044'
p30
sS'time'
p31
ctime
struct_time
p32
((I2014
I5
I3
I2
I55
I22
I5
I123
I1
t(dtRp33
sS'f_low'
p34
F1268.9000000000001
sS'T_Sys_Right'
p35
g4
(g6
S'\xe6\xae\xbe\xde\xe7\x8bp@'
tRp36
sS'f_high'
p37
F1271.9000000000001
sS'col-density'
p38
g4
(g6
S'\xaa\xc5J\xbby\xdf/D'
tRp39
s.