(dp1
S'n_obs'
p2
I174
sS'dispersion'
p3
cnumpy.core.multiarray
scalar
p4
(cnumpy
dtype
p5
(S'f8'
I0
I1
tRp6
(I3
S'<'
NNNI-1
I-1
I0
tbS'[\x0e\xc2\x04\xf2\xc43@'
tRp7
sS'b'
F0
sS'fname'
p8
S'data_l_218.00_b_000.00_grid_000_004'
p9
sS'vel-center'
p10
g4
(g6
S'&\xc8\xb8\x11nmA@'
tRp11
sS'rec-success'
p12
I01
sS'unixtime'
p13
F1398564660
sS'G_Right'
p14
g4
(g6
S'E=c\xf2\x17\xf4\xfe?'
tRp15
sS'l'
g4
(g6
S'\x00\x00\x00\x00\x00@k@'
tRp16
sS'G_Left'
p17
g4
(g6
S'\x83\xcf\xb9h{\x8a\xe0?'
tRp18
sS'T_Sys_Left'
p19
g4
(g6
S'\x98\xe6k\xe7]\x12q@'
tRp20
sS'jd'
p21
F2456774.5909722224
sS'lst'
p22
g4
(g6
S'\x00\x80\xf3p\xc8\xbe @'
tRp23
sS'vel-peaks'
p24
cnumpy.core.multiarray
_reconstruct
p25
(cnumpy
ndarray
p26
(I0
tS'b'
tRp27
(I1
(I2
tg6
I00
S'\x02\xb4A\x11\xb0\xbfI@\xe8\xbbu\xae\xc4\xc2:@'
tbsS'grid'
p28
(I0
I4
tp29
sS'n_cal'
p30
I18
sS'time'
p31
ctime
struct_time
p32
((I2014
I4
I26
I19
I11
I0
I5
I116
I1
t(dtRp33
sS'f_low'
p34
F1268.9000000000001
sS'T_Sys_Right'
p35
g4
(g6
S'\xe5\xe4\x9c\x95\xe5\x03q@'
tRp36
sS'f_high'
p37
F1271.9000000000001
sS'col-density'
p38
g4
(g6
S'P-|<\xe5\xe5uD'
tRp39
s.