(dp1
S'n_obs'
p2
I174
sS'dispersion'
p3
cnumpy.core.multiarray
scalar
p4
(cnumpy
dtype
p5
(S'f8'
I0
I1
tRp6
(I3
S'<'
NNNI-1
I-1
I0
tbS'C\xf6\xea-\x14\x96;@'
tRp7
sS'b'
F6
sS'fname'
p8
S'data_l_229.17_b_006.00_grid_003_075'
p9
sS'vel-center'
p10
g4
(g6
S'\xa2\xc8$\xca\x02\x7f>@'
tRp11
sS'rec-success'
p12
I01
sS'unixtime'
p13
F1398659100
sS'G_Right'
p14
g4
(g6
S'\x8de\xf9\xbf4\xb0\xf8?'
tRp15
sS'l'
g4
(g6
S'\xe8\x13\x13m\x8f\xa5l@'
tRp16
sS'G_Left'
p17
g4
(g6
S'\xe9\xe7\xba\x8d\x12\xbd\xe4?'
tRp18
sS'T_Sys_Left'
p19
g4
(g6
S"\x14\xa4\xdb\xe3'/|@"
tRp20
sS'jd'
p21
F2456775.684027778
sS'lst'
p22
g4
(g6
S'\x00\xc0`\x16\x06[%@'
tRp23
sS'vel-peaks'
p24
cnumpy.core.multiarray
_reconstruct
p25
(cnumpy
ndarray
p26
(I0
tS'b'
tRp27
(I1
(I3
tg6
I00
S'\n\xb5\x99}BwQ@0\x10\xab2\xee\x9d3@\xe0\xb5\xab7\x1f\xfa\xf5?'
tbsS'grid'
p28
(I3
I75
tp29
sS'n_cal'
p30
I18
sS'time'
p31
ctime
struct_time
p32
((I2014
I4
I27
I21
I25
I0
I6
I117
I1
t(dtRp33
sS'f_low'
p34
F1268.9000000000001
sS'T_Sys_Right'
p35
g4
(g6
S'\x07\xe2W(\xb3\x98p@'
tRp36
sS'f_high'
p37
F1271.9000000000001
sS'col-density'
p38
g4
(g6
S'2>X\x1a\xa1\xffhD'
tRp39
s.