(dp1
S'n_obs'
p2
I87
sS'dispersion'
p3
cnumpy.core.multiarray
scalar
p4
(cnumpy
dtype
p5
(S'f8'
I0
I1
tRp6
(I3
S'<'
NNNI-1
I-1
I0
tbS'\x0c\xee^\x86\xc1K\x1f@'
tRp7
sS'b'
F30
sS'n_cal'
p8
I9
sS'vel-center'
p9
g4
(g6
S'A\xfc\xc7\x91Mv\xb9?'
tRp10
sS'rec-success'
p11
I01
sS'unixtime'
p12
F1399293071.668319
sS'G_Right'
p13
g4
(g6
S'\xf8u%]\x15)\xf9?'
tRp14
sS'l'
g4
(g6
S'@\xc0\x0b\xe9\xee\xe7 @'
tRp15
sS'G_Left'
p16
g4
(g6
S'\x84\x04\x05ipY\xe4?'
tRp17
sS'T_Sys_Left'
p18
g4
(g6
S'\xa99\xa7\xacH\xc3p@'
tRp19
sS'jd'
p20
F2456783.0216550925
sS'lst'
p21
g4
(g6
S'\x00 \x9aYSC3@'
tRp22
sS'vel-peaks'
p23
cnumpy.core.multiarray
_reconstruct
p24
(cnumpy
ndarray
p25
(I0
tS'b'
tRp26
(I1
(I1
tg6
I00
S'\xb0mPv\xf9\x96\xfe?'
tbsS'grid'
p27
(I15
I5
tp28
sS'fname'
p29
S'data_l_008.45_b_030.00_grid_015_005'
p30
sS'time'
p31
ctime
struct_time
p32
((I2014
I5
I5
I5
I31
I11
I0
I125
I1
t(dtRp33
sS'f_low'
p34
F1268.9000000000001
sS'T_Sys_Right'
p35
g4
(g6
S'\x9dk\x92Z\xc9\xe4o@'
tRp36
sS'f_high'
p37
F1271.9000000000001
sS'col-density'
p38
g4
(g6
S'\x02\xe2\x8d\xe7U\xa2MD'
tRp39
s.