(dp1
S'n_obs'
p2
I174
sS'dispersion'
p3
cnumpy.core.multiarray
scalar
p4
(cnumpy
dtype
p5
(S'f8'
I0
I1
tRp6
(I3
S'<'
NNNI-1
I-1
I0
tbS'\xf1;\x1e\x1bH\xaa8@'
tRp7
sS'b'
F2
sS'fname'
p8
S'data_l_227.91_b_002.00_grid_001_076'
p9
sS'vel-center'
p10
g4
(g6
S'\x84\x9a\xb2t&lB@'
tRp11
sS'rec-success'
p12
I01
sS'unixtime'
p13
F1398569280
sS'G_Right'
p14
g4
(g6
S'\xda#~<\x9a\x06\xfc?'
tRp15
sS'l'
g4
(g6
S'a@T\x01\t}l@'
tRp16
sS'G_Left'
p17
g4
(g6
S'\x89$k\xc2\xd5D\xe2?'
tRp18
sS'T_Sys_Left'
p19
g4
(g6
S'zW&[\xd3"\x82@'
tRp20
sS'jd'
p21
F2456774.6444444442
sS'lst'
p22
g4
(g6
S'\x00\xe0=\x0c\xa6Q#@'
tRp23
sS'vel-peaks'
p24
cnumpy.core.multiarray
_reconstruct
p25
(cnumpy
ndarray
p26
(I0
tS'b'
tRp27
(I1
(I5
tg6
I00
S'\xb2\x1c\xe2\xa4#\x7fP@\xadB\xb91\x9a\xccH@\x87\xa9\x8f\xac\x9b\xecB@T-\xd4\n\xf9\xbf1@\x80\xd1d\xcc\x0c\xaf\x0e@'
tbsS'grid'
p28
(I1
I76
tp29
sS'n_cal'
p30
I18
sS'time'
p31
ctime
struct_time
p32
((I2014
I4
I26
I20
I28
I0
I5
I116
I1
t(dtRp33
sS'f_low'
p34
F1268.9000000000001
sS'T_Sys_Right'
p35
g4
(g6
S'?\x14~\xed9\x95q@'
tRp36
sS'f_high'
p37
F1271.9000000000001
sS'col-density'
p38
g4
(g6
S'\x93x`\xe5\x9e\xf0yD'
tRp39
s.