(dp1
S'n_obs'
p2
I87
sS'dispersion'
p3
cnumpy.core.multiarray
scalar
p4
(cnumpy
dtype
p5
(S'f8'
I0
I1
tRp6
(I3
S'<'
NNNI-1
I-1
I0
tbS'\n\x0e\xd8?\xa5i#@'
tRp7
sS'b'
F56
sS'n_cal'
p8
I9
sS'vel-center'
p9
g4
(g6
S'\xb0=\xae\x90\xcd\x14\x14\xc0'
tRp10
sS'rec-success'
p11
I01
sS'unixtime'
p12
F1399110723.6341269
sS'G_Right'
p13
g4
(g6
S'\xf8h\x85A\xcc\x89\x01@'
tRp14
sS'l'
g4
(g6
S"\x00\xd0'\xde9\xb6\xcb?"
tRp15
sS'G_Left'
p16
g4
(g6
S'\xf1\xeb\xf3\xde{1\xdd?'
tRp17
sS'T_Sys_Left'
p18
g4
(g6
S'\xe6\xee1\xd5\x0b\xc6o@'
tRp19
sS'jd'
p20
F2456780.9111458333
sS'lst'
p21
g4
(g6
S'\x00p4\xb4\xdax0@'
tRp22
sS'vel-peaks'
p23
cnumpy.core.multiarray
_reconstruct
p24
(cnumpy
ndarray
p25
(I0
tS'b'
tRp26
(I1
(I1
tg6
I00
S'\x80:.\xe3Z\xa0\xff\xbf'
tbsS'grid'
p27
(I28
I42
tp28
sS'fname'
p29
S'data_l_000.22_b_056.00_grid_028_042'
p30
sS'time'
p31
ctime
struct_time
p32
((I2014
I5
I3
I2
I52
I3
I5
I123
I1
t(dtRp33
sS'f_low'
p34
F1268.9000000000001
sS'T_Sys_Right'
p35
g4
(g6
S'\x9d4\x9c\xc5\x1d\xfcp@'
tRp36
sS'f_high'
p37
F1271.9000000000001
sS'col-density'
p38
g4
(g6
S"\t\xa8'\x15\xe6S3D"
tRp39
s.