(dp1
S'n_obs'
p2
I87
sS'dispersion'
p3
cnumpy.core.multiarray
scalar
p4
(cnumpy
dtype
p5
(S'f8'
I0
I1
tRp6
(I3
S'<'
NNNI-1
I-1
I0
tbS'\x95\xc9\xe7\xf8\xb02@@'
tRp7
sS'b'
F2
sS'n_cal'
p8
I9
sS'vel-center'
p9
g4
(g6
S'cR\x90;\x9e\xc83@'
tRp10
sS'rec-success'
p11
I01
sS'unixtime'
p12
F1399200975.2545259
sS'G_Right'
p13
g4
(g6
S'%\xb13\xc8\xf5,\x01@'
tRp14
sS'l'
g4
(g6
S'\xa0W\x16\x1b\xb0\xff1@'
tRp15
sS'G_Left'
p16
g4
(g6
S'P\x12\xbe\x96G\xcf\xdd?'
tRp17
sS'T_Sys_Left'
p18
g4
(g6
S'\x9bl\xc2\xdd#\x9ep@'
tRp19
sS'jd'
p20
F2456781.9557291665
sS'lst'
p21
g4
(g6
S'\x00\x90\x19\x93X\x9c1@'
tRp22
sS'vel-peaks'
p23
cnumpy.core.multiarray
_reconstruct
p24
(cnumpy
ndarray
p25
(I0
tS'b'
tRp26
(I1
(I3
tg6
I00
S'\xfd\x0f#f\x05\xc75@ \xc1\x1a\xc9\xba\xb3\x13@$4\xfc\xdf\x90\x857\xc0'
tbsS'grid'
p27
(I1
I1
tp28
sS'fname'
p29
S'data_l_018.00_b_002.00_grid_001_001'
p30
sS'time'
p31
ctime
struct_time
p32
((I2014
I5
I4
I3
I56
I15
I6
I124
I1
t(dtRp33
sS'f_low'
p34
F1268.9000000000001
sS'T_Sys_Right'
p35
g4
(g6
S"\xdc\xae\xfd\xb7'\x1eq@"
tRp36
sS'f_high'
p37
F1271.9000000000001
sS'col-density'
p38
g4
(g6
S'\x1fI<=\xdb\xecxD'
tRp39
s.