(dp1
S'n_obs'
p2
I87
sS'dispersion'
p3
cnumpy.core.multiarray
scalar
p4
(cnumpy
dtype
p5
(S'f8'
I0
I1
tRp6
(I3
S'<'
NNNI-1
I-1
I0
tbS'\xd8\xd4\xed\xca\x19/+@'
tRp7
sS'b'
F64
sS'n_cal'
p8
I9
sS'vel-center'
p9
g4
(g6
S'C\x9d\xc9\xb18\xa9"\xc0'
tRp10
sS'rec-success'
p11
I01
sS'unixtime'
p12
F1399113548.49651
sS'G_Right'
p13
g4
(g6
S"\x05\xbd\x8f\xf8z'\xfe?"
tRp14
sS'l'
g4
(g6
S'l\x8f\xbd\x1d\xee\x1bu@'
tRp15
sS'G_Left'
p16
g4
(g6
S'0\x0c\xc5\xba\xb8\xfa\xe0?'
tRp17
sS'T_Sys_Left'
p18
g4
(g6
S'x)\\\x8c\xdb\xafo@'
tRp19
sS'jd'
p20
F2456780.9438425926
sS'lst'
p21
g4
(g6
S'\x00pF\x10KB1@'
tRp22
sS'vel-peaks'
p23
cnumpy.core.multiarray
_reconstruct
p24
(cnumpy
ndarray
p25
(I0
tS'b'
tRp26
(I1
(I1
tg6
I00
S'c\xeb\xd4\xf8\xfcX\xff\xbf'
tbsS'grid'
p27
(I32
I28
tp28
sS'fname'
p29
S'data_l_337.75_b_064.00_grid_032_028'
p30
sS'time'
p31
ctime
struct_time
p32
((I2014
I5
I3
I3
I39
I8
I5
I123
I1
t(dtRp33
sS'f_low'
p34
F1268.9000000000001
sS'T_Sys_Right'
p35
g4
(g6
S'%MT_\xf0\x05p@'
tRp36
sS'f_high'
p37
F1271.9000000000001
sS'col-density'
p38
g4
(g6
S'\xaa\xd2\xbf\x9d\\,/D'
tRp39
s.