(dp1
S'n_obs'
p2
I87
sS'dispersion'
p3
cnumpy.core.multiarray
scalar
p4
(cnumpy
dtype
p5
(S'f8'
I0
I1
tRp6
(I3
S'<'
NNNI-1
I-1
I0
tbS'n\x10q\xfd\xbc\x1b5@'
tRp7
sS'b'
F52
sS'n_cal'
p8
I9
sS'vel-center'
p9
g4
(g6
S'l\x9c\x1a}.\x800\xc0'
tRp10
sS'rec-success'
p11
I01
sS'unixtime'
p12
F1399269190.003957
sS'G_Right'
p13
g4
(g6
S'\x06b+\x06\x14\xf2\xfc?'
tRp14
sS'l'
F210
sS'G_Left'
p15
g4
(g6
S'\x867m37\xb0\xe1?'
tRp16
sS'T_Sys_Left'
p17
g4
(g6
S'\xa3\xf5\xd5\x14\x83\xcdn@'
tRp18
sS'jd'
p19
F2456782.7452546298
sS'lst'
p20
g4
(g6
S'\x00\xa0Gw\xf18)@'
tRp21
sS'vel-peaks'
p22
cnumpy.core.multiarray
_reconstruct
p23
(cnumpy
ndarray
p24
(I0
tS'b'
tRp25
(I1
(I1
tg6
I00
S'\x98\x07y\xa2\xf0\xee\x02\xc0'
tbsS'grid'
p26
(I26
I0
tp27
sS'fname'
p28
S'data_l_210.00_b_052.00_grid_026_000'
p29
sS'time'
p30
ctime
struct_time
p31
((I2014
I5
I4
I22
I53
I10
I6
I124
I1
t(dtRp32
sS'f_low'
p33
F1268.9000000000001
sS'T_Sys_Right'
p34
g4
(g6
S'\xe3R#\x9f*\xe5n@'
tRp35
sS'f_high'
p36
F1271.9000000000001
sS'col-density'
p37
g4
(g6
S'\x8d\x80r7*5/D'
tRp38
s.