(dp1
S'n_obs'
p2
I87
sS'dispersion'
p3
cnumpy.core.multiarray
scalar
p4
(cnumpy
dtype
p5
(S'f8'
I0
I1
tRp6
(I3
S'<'
NNNI-1
I-1
I0
tbS'\xe2\xa0ehi1+@'
tRp7
sS'b'
F20
sS'n_cal'
p8
I9
sS'vel-center'
p9
g4
(g6
S'l\xf9\xe4i\x80\xcf%@'
tRp10
sS'rec-success'
p11
I01
sS'unixtime'
p12
F1399180130.964673
sS'G_Right'
p13
g4
(g6
S'\x00\x07-fZ\xc6\xfe?'
tRp14
sS'l'
g4
(g6
S'\x08\xeaY\xf4mPk@'
tRp15
sS'G_Left'
p16
g4
(g6
S'\xba\x16\xfc\x17\x11\xa3\xe0?'
tRp17
sS'T_Sys_Left'
p18
g4
(g6
S'\xd4=\xf8.f\x86o@'
tRp19
sS'jd'
p20
F2456781.7144675925
sS'lst'
p21
g4
(g6
S"\x00`U\xf1\xf3\x9b'@"
tRp22
sS'vel-peaks'
p23
cnumpy.core.multiarray
_reconstruct
p24
(cnumpy
ndarray
p25
(I0
tS'b'
tRp26
(I1
(I1
tg6
I00
S'P\xc2\x03\xda}.\x0c@'
tbsS'grid'
p27
(I10
I4
tp28
sS'fname'
p29
S'data_l_218.51_b_020.00_grid_010_004'
p30
sS'time'
p31
ctime
struct_time
p32
((I2014
I5
I3
I22
I8
I50
I5
I123
I1
t(dtRp33
sS'f_low'
p34
F1268.9000000000001
sS'T_Sys_Right'
p35
g4
(g6
S'\xae0\x89\xf5\xb3\x84p@'
tRp36
sS'f_high'
p37
F1271.9000000000001
sS'col-density'
p38
g4
(g6
S'l\x17\xbc\xa7n\xde1D'
tRp39
s.