(dp1
S'n_obs'
p2
I87
sS'dispersion'
p3
cnumpy.core.multiarray
scalar
p4
(cnumpy
dtype
p5
(S'f8'
I0
I1
tRp6
(I3
S'<'
NNNI-1
I-1
I0
tbS'AN\x83\x8b8\xea#@'
tRp7
sS'b'
F24
sS'n_cal'
p8
I9
sS'vel-center'
p9
g4
(g6
S'\xe7J\x90X\x07k\x16@'
tRp10
sS'rec-success'
p11
I01
sS'unixtime'
p12
F1399266481.1837239
sS'G_Right'
p13
g4
(g6
S'\xb0\xbb\xadt\x02\x9f\xfb?'
tRp14
sS'l'
g4
(g6
S'D\xcc\xed\x1fW\xe4k@'
tRp15
sS'G_Left'
p16
g4
(g6
S'\xce\x87\xb73Z\x89\xe2?'
tRp17
sS'T_Sys_Left'
p18
g4
(g6
S'T\xfa\xee\xca[$n@'
tRp19
sS'jd'
p20
F2456782.7139004632
sS'lst'
p21
g4
(g6
S"\x00\xa0\xdc\xbd\x9b\xb6'@"
tRp22
sS'vel-peaks'
p23
cnumpy.core.multiarray
_reconstruct
p24
(cnumpy
ndarray
p25
(I0
tS'b'
tRp26
(I1
(I2
tg6
I00
S'T\xf6nM\x89\xbf/@P\xd6\xb7\xa6t\x92\t@'
tbsS'grid'
p27
(I12
I6
tp28
sS'fname'
p29
S'data_l_223.14_b_024.00_grid_012_006'
p30
sS'time'
p31
ctime
struct_time
p32
((I2014
I5
I4
I22
I8
I1
I6
I124
I1
t(dtRp33
sS'f_low'
p34
F1268.9000000000001
sS'T_Sys_Right'
p35
g4
(g6
S'+o\x17\xc3\xe0\x03p@'
tRp36
sS'f_high'
p37
F1271.9000000000001
sS'col-density'
p38
g4
(g6
S'T.\xb8A1\x121D'
tRp39
s.