(dp1
S'n_obs'
p2
I87
sS'dispersion'
p3
cnumpy.core.multiarray
scalar
p4
(cnumpy
dtype
p5
(S'f8'
I0
I1
tRp6
(I3
S'<'
NNNI-1
I-1
I0
tbS'A\x04\xb7\xa9$\xeb2@'
tRp7
sS'b'
F56
sS'n_cal'
p8
I9
sS'vel-center'
p9
g4
(g6
S'\xcb\xb0}+{\xba(\xc0'
tRp10
sS'rec-success'
p11
I01
sS'unixtime'
p12
F1399109115.1192851
sS'G_Right'
p13
g4
(g6
S'u qR\x12\xa9\x01@'
tRp14
sS'l'
g4
(g6
S'\xfc-}/Obs@'
tRp15
sS'G_Left'
p16
g4
(g6
S'r\xe4\xcf\x92\xc9\xfd\xdc?'
tRp17
sS'T_Sys_Left'
p18
g4
(g6
S'\x98W\xfb\r#\xb5p@'
tRp19
sS'jd'
p20
F2456780.8925347221
sS'lst'
p21
g4
(g6
S'\x00\xe0\x9b\xcf1\x060@'
tRp22
sS'vel-peaks'
p23
cnumpy.core.multiarray
_reconstruct
p24
(cnumpy
ndarray
p25
(I0
tS'b'
tRp26
(I1
(I1
tg6
I00
S'\x90h\x01|-\x03\xec\xbf'
tbsS'grid'
p27
(I28
I28
tp28
sS'fname'
p29
S'data_l_310.14_b_056.00_grid_028_028'
p30
sS'time'
p31
ctime
struct_time
p32
((I2014
I5
I3
I2
I25
I15
I5
I123
I1
t(dtRp33
sS'f_low'
p34
F1268.9000000000001
sS'T_Sys_Right'
p35
g4
(g6
S'\xc8~\xe8p\x8e]q@'
tRp36
sS'f_high'
p37
F1271.9000000000001
sS'col-density'
p38
g4
(g6
S'\xf6+\xba{x\xa82D'
tRp39
s.