(dp1
S'n_obs'
p2
I174
sS'dispersion'
p3
cnumpy.core.multiarray
scalar
p4
(cnumpy
dtype
p5
(S'f8'
I0
I1
tRp6
(I3
S'<'
NNNI-1
I-1
I0
tbS'\xdeU\xd5\xce0\x144@'
tRp7
sS'b'
F6
sS'fname'
p8
S'data_l_215.10_b_006.00_grid_003_082'
p9
sS'vel-center'
p10
g4
(g6
S'\x17\xb1\xe4F\x1e\xb7;@'
tRp11
sS'rec-success'
p12
I01
sS'unixtime'
p13
F1398744813
sS'G_Right'
p14
g4
(g6
S'\x14\x13z\xb2i\xbf\x10@'
tRp15
sS'l'
g4
(g6
S'\xf0\x0eH\xb1\x17\xe3j@'
tRp16
sS'G_Left'
p17
g4
(g6
S'Y\x8fd\xffC\x92\xce?'
tRp18
sS'T_Sys_Left'
p19
g4
(g6
S'\xa6\x04\xc0_\x13\x11D@'
tRp20
sS'jd'
p21
F2456776.6756944442
sS'lst'
p22
g4
(g6
S'\x00\xc0\xab\xa1\xfc\x15%@'
tRp23
sS'vel-peaks'
p24
cnumpy.core.multiarray
_reconstruct
p25
(cnumpy
ndarray
p26
(I0
tS'b'
tRp27
(I1
(I2
tg6
I00
S'\xea@\x10\x01\xe3XF@\x88\x0bY_\x83\xb9 @'
tbsS'grid'
p28
(I3
I82
tp29
sS'n_cal'
p30
I18
sS'time'
p31
ctime
struct_time
p32
((I2014
I4
I28
I21
I13
I33
I0
I118
I1
t(dtRp33
sS'f_low'
p34
F1268.9000000000001
sS'T_Sys_Right'
p35
g4
(g6
S'\rX\rj[\x17\x82@'
tRp36
sS'f_high'
p37
F1271.9000000000001
sS'col-density'
p38
g4
(g6
S'\x11\x0c\x8fB\xf6\x82dD'
tRp39
s.