(dp1
S'n_obs'
p2
I87
sS'dispersion'
p3
cnumpy.core.multiarray
scalar
p4
(cnumpy
dtype
p5
(S'f8'
I0
I1
tRp6
(I3
S'<'
NNNI-1
I-1
I0
tbS'\x1c\x8bK\x86\x90\x0f"@'
tRp7
sS'b'
F32
sS'n_cal'
p8
I9
sS'vel-center'
p9
g4
(g6
S'\x7f\x06\x91ul\x8b\xe8?'
tRp10
sS'rec-success'
p11
I01
sS'unixtime'
p12
F1398844586
sS'G_Right'
p13
g4
(g6
S'\xf9u\xfa\x95j\xad\xf8?'
tRp14
sS'l'
g4
(g6
S'\x00\x80oi,\xea\xed?'
tRp15
sS'G_Left'
p16
g4
(g6
S'\xa4nB\xbaj\xbf\xe4?'
tRp17
sS'T_Sys_Left'
p18
g4
(g6
S'\t\xa6\xe8\xe9\x84\x8dw@'
tRp19
sS'jd'
p20
F2456777.8308564816
sS'lst'
p21
g4
(g6
S'\x00\xe0/H{\xaf,@'
tRp22
sS'vel-peaks'
p23
cnumpy.core.multiarray
_reconstruct
p24
(cnumpy
ndarray
p25
(I0
tS'b'
tRp26
(I1
(I1
tg6
I00
S'\xb0\x0b;\xd3\xa3\xf8\xf0?'
tbsS'grid'
p27
(I16
I64
tp28
sS'fname'
p29
S'data_l_000.93_b_032.00_grid_016_064'
p30
sS'time'
p31
ctime
struct_time
p32
((I2014
I4
I30
I0
I56
I26
I2
I120
I1
t(dtRp33
sS'f_low'
p34
F1268.9000000000001
sS'T_Sys_Right'
p35
g4
(g6
S'\xb1\x87r\xfed\x9dr@'
tRp36
sS'f_high'
p37
F1271.9000000000001
sS'col-density'
p38
g4
(g6
S'\xe4\xfe\x1d\xc5\xaf\x9cRD'
tRp39
s.