(dp1
S'n_obs'
p2
I87
sS'dispersion'
p3
cnumpy.core.multiarray
scalar
p4
(cnumpy
dtype
p5
(S'f8'
I0
I1
tRp6
(I3
S'<'
NNNI-1
I-1
I0
tbS'9\xcebu\x8d]\x1b@'
tRp7
sS'b'
F24
sS'n_cal'
p8
I9
sS'vel-center'
p9
g4
(g6
S'\x1e\xf3v\xfcY\xd6\xf0\xbf'
tRp10
sS'rec-success'
p11
I01
sS'unixtime'
p12
F1399088901.3733709
sS'G_Right'
p13
g4
(g6
S'\xd8\x05)\xf1C\xa1`@'
tRp14
sS'l'
g4
(g6
S'\xccd\xc9_\x05-o@'
tRp15
sS'G_Left'
p16
g4
(g6
S'\x90y}\xca\xaf\xc9~?'
tRp17
sS'T_Sys_Left'
p18
g4
(g6
S'\x1d\xf9@\xd2\x16\x18\xf2?'
tRp19
sS'jd'
p20
F2456780.6585763888
sS'lst'
p21
g4
(g6
S'\x00\xc01S\xa3\xc9$@'
tRp22
sS'vel-peaks'
p23
cnumpy.core.multiarray
_reconstruct
p24
(cnumpy
ndarray
p25
(I0
tS'b'
tRp26
(I1
(I0
tg6
I00
S''
tbsS'grid'
p27
(I12
I18
tp28
sS'fname'
p29
S'data_l_249.41_b_024.00_grid_012_018'
p30
sS'time'
p31
ctime
struct_time
p32
((I2014
I5
I2
I20
I48
I21
I4
I122
I1
t(dtRp33
sS'f_low'
p34
F1268.9000000000001
sS'T_Sys_Right'
p35
g4
(g6
S'\xb0\xc4U\xac\x85\xb8p@'
tRp36
sS'f_high'
p37
F1271.9000000000001
sS'col-density'
p38
g4
(g6
S' \xef\xe4bF\x0b*D'
tRp39
s.