(dp1
S'n_obs'
p2
I87
sS'dispersion'
p3
cnumpy.core.multiarray
scalar
p4
(cnumpy
dtype
p5
(S'f8'
I0
I1
tRp6
(I3
S'<'
NNNI-1
I-1
I0
tbS'\xcdHa{\xfd\xeb)@'
tRp7
sS'b'
F28
sS'n_cal'
p8
I9
sS'vel-center'
p9
g4
(g6
S'-+?w\x94\xea\x07\xc0'
tRp10
sS'rec-success'
p11
I01
sS'unixtime'
p12
F1399089341.07657
sS'G_Right'
p13
g4
(g6
S'\xf4\xd2q\x1fh\x0e\x00@'
tRp14
sS'l'
g4
(g6
S'D\xb1\xe0\x8d\xb0\xe9o@'
tRp15
sS'G_Left'
p16
g4
(g6
S'08\x8e\x9bI\xe3\xdf?'
tRp17
sS'T_Sys_Left'
p18
g4
(g6
S'\xd6+\xe1]\x964q@'
tRp19
sS'jd'
p20
F2456780.6636689818
sS'lst'
p21
g4
(g6
S'\x00\xc0 \x19c\x08%@'
tRp22
sS'vel-peaks'
p23
cnumpy.core.multiarray
_reconstruct
p24
(cnumpy
ndarray
p25
(I0
tS'b'
tRp26
(I1
(I1
tg6
I00
S't*@@\\\xa4\x16\xc0'
tbsS'grid'
p27
(I14
I20
tp28
sS'fname'
p29
S'data_l_255.30_b_028.00_grid_014_020'
p30
sS'time'
p31
ctime
struct_time
p32
((I2014
I5
I2
I20
I55
I41
I4
I122
I1
t(dtRp33
sS'f_low'
p34
F1268.9000000000001
sS'T_Sys_Right'
p35
g4
(g6
S'\x16-9_bDq@'
tRp36
sS'f_high'
p37
F1271.9000000000001
sS'col-density'
p38
g4
(g6
S'\xc4\x9e4\xb3\x18X<D'
tRp39
s.