(dp1
S'n_obs'
p2
I87
sS'dispersion'
p3
cnumpy.core.multiarray
scalar
p4
(cnumpy
dtype
p5
(S'f8'
I0
I1
tRp6
(I3
S'<'
NNNI-1
I-1
I0
tbS'\xc6"Z"\x9d\xd3\'@'
tRp7
sS'b'
F20
sS'n_cal'
p8
I9
sS'vel-center'
p9
g4
(g6
S'\xfd\xed\xdc\xc5\xad\xa8\x19@'
tRp10
sS'rec-success'
p11
I01
sS'unixtime'
p12
F1399179893.985831
sS'G_Right'
p13
g4
(g6
S'\xfc+\xb6+\xe2\xd4\xfd?'
tRp14
sS'l'
g4
(g6
S'\x04\xf5,\xfa6\xc8j@'
tRp15
sS'G_Left'
p16
g4
(g6
S'\xfbe!\xd1\xbb)\xe1?'
tRp17
sS'T_Sys_Left'
p18
g4
(g6
S'\x02&mc\xba\x16p@'
tRp19
sS'jd'
p20
F2456781.711724537
sS'lst'
p21
g4
(g6
S"\x00\x80*i'z'@"
tRp22
sS'vel-peaks'
p23
cnumpy.core.multiarray
_reconstruct
p24
(cnumpy
ndarray
p25
(I0
tS'b'
tRp26
(I1
(I1
tg6
I00
S'\x90\x9b\x8b\xf4\xb47\x08@'
tbsS'grid'
p27
(I10
I2
tp28
sS'fname'
p29
S'data_l_214.26_b_020.00_grid_010_002'
p30
sS'time'
p31
ctime
struct_time
p32
((I2014
I5
I3
I22
I4
I53
I5
I123
I1
t(dtRp33
sS'f_low'
p34
F1268.9000000000001
sS'T_Sys_Right'
p35
g4
(g6
S'\xd5\xf4S%\xd1\tp@'
tRp36
sS'f_high'
p37
F1271.9000000000001
sS'col-density'
p38
g4
(g6
S'\xfa\xcf1\xc0/\xcf+D'
tRp39
s.