(dp1
S'n_obs'
p2
I87
sS'dispersion'
p3
cnumpy.core.multiarray
scalar
p4
(cnumpy
dtype
p5
(S'f8'
I0
I1
tRp6
(I3
S'<'
NNNI-1
I-1
I0
tbS'\x96c\xa94\x99M+@'
tRp7
sS'b'
F60
sS'n_cal'
p8
I9
sS'vel-center'
p9
g4
(g6
S'\xe4\xbaB\xd8\x0eP-\xc0'
tRp10
sS'rec-success'
p11
I01
sS'unixtime'
p12
F1399275282.2289569
sS'G_Right'
p13
g4
(g6
S'9\x15\x14m\xa7\xb9\xfe?'
tRp14
sS'l'
g4
(g6
S'\x00\x00\x00\x00\x00 r@'
tRp15
sS'G_Left'
p16
g4
(g6
S'#WOk\xf1\xa9\xe0?'
tRp17
sS'T_Sys_Left'
p18
g4
(g6
S'\xf3\x97\\\xa3-\no@'
tRp19
sS'jd'
p20
F2456782.8157638889
sS'lst'
p21
g4
(g6
S'\x00 h\xb1\xbb\x9d,@'
tRp22
sS'vel-peaks'
p23
cnumpy.core.multiarray
_reconstruct
p24
(cnumpy
ndarray
p25
(I0
tS'b'
tRp26
(I1
(I1
tg6
I00
S'\x16\x97\x0bh&\xc1\x18\xc0'
tbsS'grid'
p27
(I30
I20
tp28
sS'fname'
p29
S'data_l_290.00_b_060.00_grid_030_020'
p30
sS'time'
p31
ctime
struct_time
p32
((I2014
I5
I5
I0
I34
I42
I0
I125
I1
t(dtRp33
sS'f_low'
p34
F1268.9000000000001
sS'T_Sys_Right'
p35
g4
(g6
S'?\x8d\xe2\xf0\xa1\x92p@'
tRp36
sS'f_high'
p37
F1271.9000000000001
sS'col-density'
p38
g4
(g6
S'\xda6\xa0\xfe>\xc9,D'
tRp39
s.