(dp1
S'n_obs'
p2
I174
sS'dispersion'
p3
cnumpy.core.multiarray
scalar
p4
(cnumpy
dtype
p5
(S'f8'
I0
I1
tRp6
(I3
S'<'
NNNI-1
I-1
I0
tbS'L\x83\xcb\x19\xc3/5@'
tRp7
sS'b'
F2
sS'fname'
p8
S'data_l_221.90_b_002.00_grid_001_079'
p9
sS'vel-center'
p10
g4
(g6
S'\xf5\x05T2\x0b<B@'
tRp11
sS'rec-success'
p12
I01
sS'unixtime'
p13
F1398570780
sS'G_Right'
p14
g4
(g6
S'\xccO\x03\xdd\x8bu\xf7?'
tRp15
sS'l'
g4
(g6
S':\xa1|\x0b\xeb\xbck@'
tRp16
sS'G_Left'
p17
g4
(g6
S'\x05\xa49\x94=\xd3\xe5?'
tRp18
sS'T_Sys_Left'
p19
g4
(g6
S'\x08\xd6\t \xfa\xe0o@'
tRp20
sS'jd'
p21
F2456774.6618055557
sS'lst'
p22
g4
(g6
S"\x00\x80\x9d\xe8\x90'$@"
tRp23
sS'vel-peaks'
p24
cnumpy.core.multiarray
_reconstruct
p25
(cnumpy
ndarray
p26
(I0
tS'b'
tRp27
(I1
(I3
tg6
I00
S'\xe3\x95\xcd-N\xf0L@\x02L\xa5\x9a\x04t2@\xf0{Q\xcd\xe3\\\x0f@'
tbsS'grid'
p28
(I1
I79
tp29
sS'n_cal'
p30
I18
sS'time'
p31
ctime
struct_time
p32
((I2014
I4
I26
I20
I53
I0
I5
I116
I1
t(dtRp33
sS'f_low'
p34
F1268.9000000000001
sS'T_Sys_Right'
p35
g4
(g6
S'\x08|\xe0\xcd\x96\x04w@'
tRp36
sS'f_high'
p37
F1271.9000000000001
sS'col-density'
p38
g4
(g6
S':W\xa5\x05\x13\xcfsD'
tRp39
s.