(dp1
S'n_obs'
p2
I87
sS'dispersion'
p3
cnumpy.core.multiarray
scalar
p4
(cnumpy
dtype
p5
(S'f8'
I0
I1
tRp6
(I3
S'<'
NNNI-1
I-1
I0
tbS'5{\x84\xa5\xb5\x8e$@'
tRp7
sS'b'
F24
sS'fname'
p8
S'data_l_003.25_b_024.00_grid_012_070'
p9
sS'vel-center'
p10
g4
(g6
S'\xc7\xa1<n\x84t\xf7?'
tRp11
sS'rec-success'
p12
I01
sS'unixtime'
p13
F1398755319
sS'G_Right'
p14
g4
(g6
S"Ee\x04\xb4\xb1'\xfd?"
tRp15
sS'l'
g4
(g6
S'\x00q> \x1d\xfe\t@'
tRp16
sS'G_Left'
p17
g4
(g6
S'D\xf9j\xd8\xaf\x8f\xe1?'
tRp18
sS'T_Sys_Left'
p19
g4
(g6
S'\xa9\xcdT\xdb\xf4\x15z@'
tRp20
sS'jd'
p21
F2456776.7972222222
sS'lst'
p22
g4
(g6
S'\x00\xe0f\xa6h\xef*@'
tRp23
sS'vel-peaks'
p24
cnumpy.core.multiarray
_reconstruct
p25
(cnumpy
ndarray
p26
(I0
tS'b'
tRp27
(I1
(I1
tg6
I00
S'\x18\xda\xe4\x8f\xcd\xb3\x02@'
tbsS'grid'
p28
(I12
I70
tp29
sS'n_cal'
p30
I9
sS'time'
p31
ctime
struct_time
p32
((I2014
I4
I29
I0
I8
I39
I1
I119
I1
t(dtRp33
sS'f_low'
p34
F1268.9000000000001
sS'T_Sys_Right'
p35
g4
(g6
S'\xce\xdc\x90\x98\x02ee@'
tRp36
sS'f_high'
p37
F1271.9000000000001
sS'col-density'
p38
g4
(g6
S'!\x96B\xd0\x11\xaaWD'
tRp39
s.