(dp1
S'n_obs'
p2
I174
sS'dispersion'
p3
cnumpy.core.multiarray
scalar
p4
(cnumpy
dtype
p5
(S'f8'
I0
I1
tRp6
(I3
S'<'
NNNI-1
I-1
I0
tbS'\xa4(\x8f:I\xf88@'
tRp7
sS'b'
F4
sS'fname'
p8
S'data_l_230.05_b_004.00_grid_002_010'
p9
sS'vel-center'
p10
g4
(g6
S'\x80\xa4i\xef\x05wA@'
tRp11
sS'rec-success'
p12
I01
sS'unixtime'
p13
F1398650340
sS'G_Right'
p14
g4
(g6
S'\xf1q\x1f\x9c\xe2\xb8\xf9?'
tRp15
sS'l'
g4
(g6
S'<\xff\xa0\x14\x90\xc1l@'
tRp16
sS'G_Left'
p17
g4
(g6
S'u\xecI\xb0\xac\xe7\xe3?'
tRp18
sS'T_Sys_Left'
p19
g4
(g6
S'\xac\x85\xcd@\x8e\x0cv@'
tRp20
sS'jd'
p21
F2456775.5826388886
sS'lst'
p22
g4
(g6
S'\x00@>\xfc\xbey @'
tRp23
sS'vel-peaks'
p24
cnumpy.core.multiarray
_reconstruct
p25
(cnumpy
ndarray
p26
(I0
tS'b'
tRp27
(I1
(I3
tg6
I00
S'PT8l\x07vQ@\xca\x0b-(\x88\x9b5@0\x92\x17\x89\x9cp\x08@'
tbsS'grid'
p28
(I2
I10
tp29
sS'n_cal'
p30
I18
sS'time'
p31
ctime
struct_time
p32
((I2014
I4
I27
I18
I59
I0
I6
I117
I1
t(dtRp33
sS'f_low'
p34
F1268.9000000000001
sS'T_Sys_Right'
p35
g4
(g6
S'\x07\xfa\x03\x92\x8a\x1fm@'
tRp36
sS'f_high'
p37
F1271.9000000000001
sS'col-density'
p38
g4
(g6
S'\x90\x84e`\xa6\x95iD'
tRp39
s.