(dp1
S'n_obs'
p2
I87
sS'dispersion'
p3
cnumpy.core.multiarray
scalar
p4
(cnumpy
dtype
p5
(S'f8'
I0
I1
tRp6
(I3
S'<'
NNNI-1
I-1
I0
tbS'\x81\r\xcd\xa9\t\x7f+@'
tRp7
sS'b'
F56
sS'n_cal'
p8
I9
sS'vel-center'
p9
g4
(g6
S'\xa4\x99;$K\xe7,\xc0'
tRp10
sS'rec-success'
p11
I01
sS'unixtime'
p12
F1399271971.5261371
sS'G_Right'
p13
g4
(g6
S'/\x99\x97N\xd1\x12\xfe?'
tRp14
sS'l'
g4
(g6
S"\xfe\x96\xbe\x97'Ap@"
tRp15
sS'G_Left'
p16
g4
(g6
S'\x82\x06\xae@c\x06\xe1?'
tRp17
sS'T_Sys_Left'
p18
g4
(g6
S'M;\x10\xb0njp@'
tRp19
sS'jd'
p20
F2456782.7774421298
sS'lst'
p21
g4
(g6
S'\x00\xc0\xd3\xce\x8b\xc5*@'
tRp22
sS'vel-peaks'
p23
cnumpy.core.multiarray
_reconstruct
p24
(cnumpy
ndarray
p25
(I0
tS'b'
tRp26
(I1
(I1
tg6
I00
S'v\x8b\xe50\x0f\xc4"\xc0'
tbsS'grid'
p27
(I28
I14
tp28
sS'fname'
p29
S'data_l_260.07_b_056.00_grid_028_014'
p30
sS'time'
p31
ctime
struct_time
p32
((I2014
I5
I4
I23
I39
I31
I6
I124
I1
t(dtRp33
sS'f_low'
p34
F1268.9000000000001
sS'T_Sys_Right'
p35
g4
(g6
S'\x95\x8e\xf3\x1f\xff\x13p@'
tRp36
sS'f_high'
p37
F1271.9000000000001
sS'col-density'
p38
g4
(g6
S'\x0cr\xd6D\xe2\xde7D'
tRp39
s.