(dp1
S'n_obs'
p2
I87
sS'dispersion'
p3
cnumpy.core.multiarray
scalar
p4
(cnumpy
dtype
p5
(S'f8'
I0
I1
tRp6
(I3
S'<'
NNNI-1
I-1
I0
tbS's\x9bKE%\xfd!@'
tRp7
sS'b'
F22
sS'n_cal'
p8
I9
sS'vel-center'
p9
g4
(g6
S'\xd7\xce\xb7\x7f\xa5\xce\x01@'
tRp10
sS'rec-success'
p11
I01
sS'unixtime'
p12
F1399290929.7769589
sS'G_Right'
p13
g4
(g6
S'\x9a3\xfd.G\x85\xfd?'
tRp14
sS'l'
g4
(g6
S'@\x99\xe1< \x9a\x13@'
tRp15
sS'G_Left'
p16
g4
(g6
S'\x80\xbf+\xfa\x03X\xe1?'
tRp17
sS'T_Sys_Left'
p18
g4
(g6
S'\xe2\x89N\xca!\x12n@'
tRp19
sS'jd'
p20
F2456782.9968634262
sS'lst'
p21
g4
(g6
S'\x00\xc03\xab\x96\xaa2@'
tRp22
sS'vel-peaks'
p23
cnumpy.core.multiarray
_reconstruct
p24
(cnumpy
ndarray
p25
(I0
tS'b'
tRp26
(I1
(I1
tg6
I00
S'8y\xd6\x84\xe6\xf3\x06@'
tbsS'grid'
p27
(I11
I7
tp28
sS'fname'
p29
S'data_l_004.90_b_022.00_grid_011_007'
p30
sS'time'
p31
ctime
struct_time
p32
((I2014
I5
I5
I4
I55
I29
I0
I125
I1
t(dtRp33
sS'f_low'
p34
F1268.9000000000001
sS'T_Sys_Right'
p35
g4
(g6
S'Au\x17\xed\xf0\xa1p@'
tRp36
sS'f_high'
p37
F1271.9000000000001
sS'col-density'
p38
g4
(g6
S"\xfe,\xc2.'\xf9SD"
tRp39
s.