(dp1
S'n_obs'
p2
I87
sS'dispersion'
p3
cnumpy.core.multiarray
scalar
p4
(cnumpy
dtype
p5
(S'f8'
I0
I1
tRp6
(I3
S'<'
NNNI-1
I-1
I0
tbS'\xe1|U`\x87\xaf.@'
tRp7
sS'b'
F6
sS'n_cal'
p8
I9
sS'vel-center'
p9
g4
(g6
S'\xf56\x17\xbd\xb4\xc9%@'
tRp10
sS'rec-success'
p11
I01
sS'unixtime'
p12
F1399286211.186811
sS'G_Right'
p13
g4
(g6
S'0\x86M\xf2\xd6t\x00@'
tRp14
sS'l'
g4
(g6
S'\x80\x02\xd9\x1c\x14\xef+@'
tRp15
sS'G_Left'
p16
g4
(g6
S'ui\xc87\xcd\x1c\xdf?'
tRp17
sS'T_Sys_Left'
p18
g4
(g6
S'\xd7:6\xe7\xcb\x87o@'
tRp19
sS'jd'
p20
F2456782.9422569443
sS'lst'
p21
g4
(g6
S'\x00\xe0\xad\xf1*Z1@'
tRp22
sS'vel-peaks'
p23
cnumpy.core.multiarray
_reconstruct
p24
(cnumpy
ndarray
p25
(I0
tS'b'
tRp26
(I1
(I1
tg6
I00
S'\x18\xfb^9\xea=\x14@'
tbsS'grid'
p27
(I3
I3
tp28
sS'fname'
p29
S'data_l_013.97_b_006.00_grid_003_003'
p30
sS'time'
p31
ctime
struct_time
p32
((I2014
I5
I5
I3
I36
I51
I0
I125
I1
t(dtRp33
sS'f_low'
p34
F1268.9000000000001
sS'T_Sys_Right'
p35
g4
(g6
S'd\xe1\xc0\xdf\xd9up@'
tRp36
sS'f_high'
p37
F1271.9000000000001
sS'col-density'
p38
g4
(g6
S'\xa7\xe4+\xeb\x0b5gD'
tRp39
s.