(dp1
S'n_obs'
p2
I87
sS'dispersion'
p3
cnumpy.core.multiarray
scalar
p4
(cnumpy
dtype
p5
(S'f8'
I0
I1
tRp6
(I3
S'<'
NNNI-1
I-1
I0
tbS'\xce.\x8d|\x82\xe4&@'
tRp7
sS'b'
F60
sS'n_cal'
p8
I9
sS'vel-center'
p9
g4
(g6
S'J)4S\x868\x1e\xc0'
tRp10
sS'rec-success'
p11
I01
sS'unixtime'
p12
F1399113064.0329471
sS'G_Right'
p13
g4
(g6
S'\x03\xe0g\x86hy\x00@'
tRp14
sS'l'
g4
(g6
S'\x00\x00\x00\x00\x00\x00$@'
tRp15
sS'G_Left'
p16
g4
(g6
S'QN\xfag,\x14\xdf?'
tRp17
sS'T_Sys_Left'
p18
g4
(g6
S'y\xe4\xcbP\x0c\x89o@'
tRp19
sS'jd'
p20
F2456780.9382407404
sS'lst'
p21
g4
(g6
S'\x00\x10\x03\xfd\xc7\x1f1@'
tRp22
sS'vel-peaks'
p23
cnumpy.core.multiarray
_reconstruct
p24
(cnumpy
ndarray
p25
(I0
tS'b'
tRp26
(I1
(I1
tg6
I00
S'\xe4\xe0\xb7\xae0\x80\x03\xc0'
tbsS'grid'
p27
(I30
I40
tp28
sS'fname'
p29
S'data_l_010.00_b_060.00_grid_030_040'
p30
sS'time'
p31
ctime
struct_time
p32
((I2014
I5
I3
I3
I31
I4
I5
I123
I1
t(dtRp33
sS'f_low'
p34
F1268.9000000000001
sS'T_Sys_Right'
p35
g4
(g6
S'\\~\xc4\x17\xbd\x1ao@'
tRp36
sS'f_high'
p37
F1271.9000000000001
sS'col-density'
p38
g4
(g6
S'\xe9\xd1K\x19\x89\x92+D'
tRp39
s.