(dp1
S'n_obs'
p2
I87
sS'dispersion'
p3
cnumpy.core.multiarray
scalar
p4
(cnumpy
dtype
p5
(S'f8'
I0
I1
tRp6
(I3
S'<'
NNNI-1
I-1
I0
tbS'\x8d_\xd0\x87\xd6\x8d$@'
tRp7
sS'b'
F30
sS'fname'
p8
S'data_l_356.91_b_030.00_grid_015_010'
p9
sS'vel-center'
p10
g4
(g6
S'\x92\xc9\xc3g\x14Q\xf1?'
tRp11
sS'rec-success'
p12
I01
sS'unixtime'
p13
F1398753097
sS'G_Right'
p14
g4
(g6
S'I\\\x98\xdc\x07\xc8\xfa?'
tRp15
sS'l'
g4
(g6
S'\x04\xbc\x90\xee~Nv@'
tRp16
sS'G_Left'
p17
g4
(g6
S'\x9f\x1e#\x00&\x1e\xe3?'
tRp18
sS'T_Sys_Left'
p19
g4
(g6
S'\xf6\x1c"y0\xb0u@'
tRp20
sS'jd'
p21
F2456776.7715277779
sS'lst'
p22
g4
(g6
S'\x00`;\x9e\xcf\xb2)@'
tRp23
sS'vel-peaks'
p24
cnumpy.core.multiarray
_reconstruct
p25
(cnumpy
ndarray
p26
(I0
tS'b'
tRp27
(I1
(I1
tg6
I00
S'\x00\x06E\xc3\x12\n\xf7?'
tbsS'grid'
p28
(I15
I10
tp29
sS'n_cal'
p30
I9
sS'time'
p31
ctime
struct_time
p32
((I2014
I4
I28
I23
I31
I37
I0
I118
I1
t(dtRp33
sS'f_low'
p34
F1268.9000000000001
sS'T_Sys_Right'
p35
g4
(g6
S'3\xe4\xba\x8b\xdcI\x7f@'
tRp36
sS'f_high'
p37
F1271.9000000000001
sS'col-density'
p38
g4
(g6
S'^?+\xedA\xb0ZD'
tRp39
s.