(dp1
S'n_obs'
p2
I87
sS'dispersion'
p3
cnumpy.core.multiarray
scalar
p4
(cnumpy
dtype
p5
(S'f8'
I0
I1
tRp6
(I3
S'<'
NNNI-1
I-1
I0
tbS'D\xd8\xdb\x8clF$@'
tRp7
sS'b'
F44
sS'n_cal'
p8
I9
sS'vel-center'
p9
g4
(g6
S'\x05n\xd3\xf8\x00\x02\x1a\xc0'
tRp10
sS'rec-success'
p11
I01
sS'unixtime'
p12
F1399097438.177696
sS'G_Right'
p13
g4
(g6
S'\x85\x00\xf4jZ\xc9\x01@'
tRp14
sS'l'
g4
(g6
S'\xb0\x06^\x0b\x87\xcfo@'
tRp15
sS'G_Left'
p16
g4
(g6
S'\xbf]\xc9k+\xc9\xdc?'
tRp17
sS'T_Sys_Left'
p18
g4
(g6
S'\xe3\x1b\xb4\xf7\x14\x12p@'
tRp19
sS'jd'
p20
F2456780.7573842593
sS'lst'
p21
g4
(g6
S'\x00 \x8e\x03\x1d\x8b)@'
tRp22
sS'vel-peaks'
p23
cnumpy.core.multiarray
_reconstruct
p24
(cnumpy
ndarray
p25
(I0
tS'b'
tRp26
(I1
(I1
tg6
I00
S'<E\xed\xd5!\x17\x12\xc0'
tbsS'grid'
p27
(I22
I16
tp28
sS'fname'
p29
S'data_l_254.49_b_044.00_grid_022_016'
p30
sS'time'
p31
ctime
struct_time
p32
((I2014
I5
I2
I23
I10
I38
I4
I122
I1
t(dtRp33
sS'f_low'
p34
F1268.9000000000001
sS'T_Sys_Right'
p35
g4
(g6
S'\x0c\xe9\x11c\xaaop@'
tRp36
sS'f_high'
p37
F1271.9000000000001
sS'col-density'
p38
g4
(g6
S'\xa3+\x86\x02\xfa38D'
tRp39
s.