(dp1
S'n_obs'
p2
I87
sS'dispersion'
p3
cnumpy.core.multiarray
scalar
p4
(cnumpy
dtype
p5
(S'f8'
I0
I1
tRp6
(I3
S'<'
NNNI-1
I-1
I0
tbS'\xfd\x11n5\x98\n"@'
tRp7
sS'b'
F32
sS'n_cal'
p8
I9
sS'vel-center'
p9
g4
(g6
S'\xd2\x04\xd3/\xee\xff\xdc\xbf'
tRp10
sS'rec-success'
p11
I01
sS'unixtime'
p12
F1398845004
sS'G_Right'
p13
g4
(g6
S'h\xc1\xa1\xb1z\x16\xf4?'
tRp14
sS'l'
g4
(g6
S'\x80_\x97\xb9/\x9b\x16@'
tRp15
sS'G_Left'
p16
g4
(g6
S'&7r\xca\xf3|\xe9?'
tRp17
sS'T_Sys_Left'
p18
g4
(g6
S'^\x8a|\x97KW\x88@'
tRp19
sS'jd'
p20
F2456777.8356944444
sS'lst'
p21
g4
(g6
S'\x00\xc0r\xdd\x17\xeb,@'
tRp22
sS'vel-peaks'
p23
cnumpy.core.multiarray
_reconstruct
p24
(cnumpy
ndarray
p25
(I0
tS'b'
tRp26
(I1
(I1
tg6
I00
S'\xa0e\xf2{J\xde\xee?'
tbsS'grid'
p27
(I16
I66
tp28
sS'fname'
p29
S'data_l_005.65_b_032.00_grid_016_066'
p30
sS'time'
p31
ctime
struct_time
p32
((I2014
I4
I30
I1
I3
I24
I2
I120
I1
t(dtRp33
sS'f_low'
p34
F1268.9000000000001
sS'T_Sys_Right'
p35
g4
(g6
S'@`E\xfcgqg@'
tRp36
sS'f_high'
p37
F1271.9000000000001
sS'col-density'
p38
g4
(g6
S'\x97\xa5<$\x8bbZD'
tRp39
s.