(dp1
S'n_obs'
p2
I87
sS'dispersion'
p3
cnumpy.core.multiarray
scalar
p4
(cnumpy
dtype
p5
(S'f8'
I0
I1
tRp6
(I3
S'<'
NNNI-1
I-1
I0
tbS'o\xfd>\xdd\xbb3.@'
tRp7
sS'b'
F68
sS'n_cal'
p8
I9
sS'vel-center'
p9
g4
(g6
S')C\x15\xe1eu*\xc0'
tRp10
sS'rec-success'
p11
I01
sS'unixtime'
p12
F1399280288.1313341
sS'G_Right'
p13
g4
(g6
S'{\xd2%\xfc\x90\xc6\xf7?'
tRp14
sS'l'
g4
(g6
S'F\x0f.\xf3\x9c!s@'
tRp15
sS'G_Left'
p16
g4
(g6
S'\xd8~\x0f\x01\xde\x88\xe5?'
tRp17
sS'T_Sys_Left'
p18
g4
(g6
S'7/z\xc4\xa2|m@'
tRp19
sS'jd'
p20
F2456782.8737037037
sS'lst'
p21
g4
(g6
S'\x00`8\x9c\xa5g/@'
tRp22
sS'vel-peaks'
p23
cnumpy.core.multiarray
_reconstruct
p24
(cnumpy
ndarray
p25
(I0
tS'b'
tRp26
(I1
(I1
tg6
I00
S'\x0c\x13\x1cZR\xb3\t\xc0'
tbsS'grid'
p27
(I34
I18
tp28
sS'fname'
p29
S'data_l_306.10_b_068.00_grid_034_018'
p30
sS'time'
p31
ctime
struct_time
p32
((I2014
I5
I5
I1
I58
I8
I0
I125
I1
t(dtRp33
sS'f_low'
p34
F1268.9000000000001
sS'T_Sys_Right'
p35
g4
(g6
S'\xc0\x17\x9f0\xaamm@'
tRp36
sS'f_high'
p37
F1271.9000000000001
sS'col-density'
p38
g4
(g6
S'\xcbk\n\xf0\xd3[*D'
tRp39
s.