(dp1
S'n_obs'
p2
I87
sS'dispersion'
p3
cnumpy.core.multiarray
scalar
p4
(cnumpy
dtype
p5
(S'f8'
I0
I1
tRp6
(I3
S'<'
NNNI-1
I-1
I0
tbS'\x1c-=\xf9\x05\xd8#@'
tRp7
sS'b'
F48
sS'n_cal'
p8
I9
sS'vel-center'
p9
g4
(g6
S'4\xa0\x81y\x9d\xfb\r\xc0'
tRp10
sS'rec-success'
p11
I01
sS'unixtime'
p12
F1399102578.9961469
sS'G_Right'
p13
g4
(g6
S'\xea\xed\xb7\x0e\x8a\xd7\x01@'
tRp14
sS'l'
g4
(g6
S'\x80e\xf2F\x93\xce&@'
tRp15
sS'G_Left'
p16
g4
(g6
S'\xa7"06H\xb2\xdc?'
tRp17
sS'T_Sys_Left'
p18
g4
(g6
S'\xe0\xf0lX\xa5\x97n@'
tRp19
sS'jd'
p20
F2456780.816875
sS'lst'
p21
g4
(g6
S'\x00\x00p\x14#h,@'
tRp22
sS'vel-peaks'
p23
cnumpy.core.multiarray
_reconstruct
p24
(cnumpy
ndarray
p25
(I0
tS'b'
tRp26
(I1
(I1
tg6
I00
S"@'\xe3O\x84\xde\t\xc0"
tbsS'grid'
p27
(I24
I54
tp28
sS'fname'
p29
S'data_l_011.40_b_048.00_grid_024_054'
p30
sS'time'
p31
ctime
struct_time
p32
((I2014
I5
I3
I0
I36
I18
I5
I123
I1
t(dtRp33
sS'f_low'
p34
F1268.9000000000001
sS'T_Sys_Right'
p35
g4
(g6
S'\xad<\xc8\xe0(\x95o@'
tRp36
sS'f_high'
p37
F1271.9000000000001
sS'col-density'
p38
g4
(g6
S'\xc0\xe6\xd7\x0ba\xc84D'
tRp39
s.