(dp1
S'n_obs'
p2
I87
sS'dispersion'
p3
cnumpy.core.multiarray
scalar
p4
(cnumpy
dtype
p5
(S'f8'
I0
I1
tRp6
(I3
S'<'
NNNI-1
I-1
I0
tbS'\x98\x1f\x0c\x1c\xe56*@'
tRp7
sS'b'
F56
sS'n_cal'
p8
I9
sS'vel-center'
p9
g4
(g6
S'I\xaa\xd6\x81z=/\xc0'
tRp10
sS'rec-success'
p11
I01
sS'unixtime'
p12
F1399272685.9553001
sS'G_Right'
p13
g4
(g6
S'\xbbs\x15~\x11Y\xff?'
tRp14
sS'l'
g4
(g6
S'\xb4\xd74\xb4\x81\x98q@'
tRp15
sS'G_Left'
p16
g4
(g6
S'\x82\xe3K\xb83U\xe0?'
tRp17
sS'T_Sys_Left'
p18
g4
(g6
S'*s}\xdf\x02\xb8n@'
tRp19
sS'jd'
p20
F2456782.7857060186
sS'lst'
p21
g4
(g6
S'\x00\xa0\xc2\xed^++@'
tRp22
sS'vel-peaks'
p23
cnumpy.core.multiarray
_reconstruct
p24
(cnumpy
ndarray
p25
(I0
tS'b'
tRp26
(I1
(I1
tg6
I00
S'\xee\x97T\xd0\x90O\x1e\xc0'
tbsS'grid'
p27
(I28
I20
tp28
sS'fname'
p29
S'data_l_281.53_b_056.00_grid_028_020'
p30
sS'time'
p31
ctime
struct_time
p32
((I2014
I5
I4
I23
I51
I25
I6
I124
I1
t(dtRp33
sS'f_low'
p34
F1268.9000000000001
sS'T_Sys_Right'
p35
g4
(g6
S'rD\xff\x94\xa4\xado@'
tRp36
sS'f_high'
p37
F1271.9000000000001
sS'col-density'
p38
g4
(g6
S'\xa43\xd32\xea=-D'
tRp39
s.