(dp1
S'n_obs'
p2
I87
sS'dispersion'
p3
cnumpy.core.multiarray
scalar
p4
(cnumpy
dtype
p5
(S'f8'
I0
I1
tRp6
(I3
S'<'
NNNI-1
I-1
I0
tbS'\x92| H\x94\x9c+@'
tRp7
sS'b'
F56
sS'n_cal'
p8
I9
sS'vel-center'
p9
g4
(g6
S'1\x18\xe9\x92L\n\x16\xc0'
tRp10
sS'rec-success'
p11
I01
sS'unixtime'
p12
F1399109806.4800429
sS'G_Right'
p13
g4
(g6
S'$z0\x9f\xfe\xaf\x01@'
tRp14
sS'l'
g4
(g6
S'\xb2n\xf3K\xa9\xb9t@'
tRp15
sS'G_Left'
p16
g4
(g6
S'\xa5\xfc\xab\x9dp\xf2\xdc?'
tRp17
sS'T_Sys_Left'
p18
g4
(g6
S'\xf0tk\x0c.\x1ep@'
tRp19
sS'jd'
p20
F2456780.9005324077
sS'lst'
p21
g4
(g6
S'\x00\x10\x0b\x86w70@'
tRp22
sS'vel-peaks'
p23
cnumpy.core.multiarray
_reconstruct
p24
(cnumpy
ndarray
p25
(I0
tS'b'
tRp26
(I1
(I1
tg6
I00
S'\xbe0\xb9\xe2\xacR\n\xc0'
tbsS'grid'
p27
(I28
I34
tp28
sS'fname'
p29
S'data_l_331.60_b_056.00_grid_028_034'
p30
sS'time'
p31
ctime
struct_time
p32
((I2014
I5
I3
I2
I36
I46
I5
I123
I1
t(dtRp33
sS'f_low'
p34
F1268.9000000000001
sS'T_Sys_Right'
p35
g4
(g6
S'\xd0\xbfaH\xda\x89p@'
tRp36
sS'f_high'
p37
F1271.9000000000001
sS'col-density'
p38
g4
(g6
S'\xfb\xc0\xb8\xf6\xfc\xaf5D'
tRp39
s.