(dp1
S'n_obs'
p2
I87
sS'dispersion'
p3
cnumpy.core.multiarray
scalar
p4
(cnumpy
dtype
p5
(S'f8'
I0
I1
tRp6
(I3
S'<'
NNNI-1
I-1
I0
tbS'\x19#777!0@'
tRp7
sS'b'
F76
sS'n_cal'
p8
I9
sS'vel-center'
p9
g4
(g6
S'\xf5pU\x88\x04X-\xc0'
tRp10
sS'rec-success'
p11
I01
sS'unixtime'
p12
F1399282737.6047881
sS'G_Right'
p13
g4
(g6
S'\xaf&]c\xa4\xeb\xf9?'
tRp14
sS'l'
g4
(g6
S'\x98\xbb\xb9\x05JSs@'
tRp15
sS'G_Left'
p16
g4
(g6
S'w\xf8xq\xb2\xc0\xe3?'
tRp17
sS'T_Sys_Left'
p18
g4
(g6
S'\xb5\x8d\xc8\xbdeRm@'
tRp19
sS'jd'
p20
F2456782.9020486111
sS'lst'
p21
g4
(g6
S'\x00\xe0\x83\x8dsb0@'
tRp22
sS'vel-peaks'
p23
cnumpy.core.multiarray
_reconstruct
p24
(cnumpy
ndarray
p25
(I0
tS'b'
tRp26
(I1
(I1
tg6
I00
S'\x00\x84\xb3 \x9e\xf2\xf4\xbf'
tbsS'grid'
p27
(I38
I12
tp28
sS'fname'
p29
S'data_l_309.21_b_076.00_grid_038_012'
p30
sS'time'
p31
ctime
struct_time
p32
((I2014
I5
I5
I2
I38
I57
I0
I125
I1
t(dtRp33
sS'f_low'
p34
F1268.9000000000001
sS'T_Sys_Right'
p35
g4
(g6
S'\x85\xf2\xe9\xaa\x9b\ro@'
tRp36
sS'f_high'
p37
F1271.9000000000001
sS'col-density'
p38
g4
(g6
S'X?\xb2\x87\xb6\xe6/D'
tRp39
s.