(dp1
S'n_obs'
p2
I87
sS'dispersion'
p3
cnumpy.core.multiarray
scalar
p4
(cnumpy
dtype
p5
(S'f8'
I0
I1
tRp6
(I3
S'<'
NNNI-1
I-1
I0
tbS'\xa0\xb5I{\x88\x99#@'
tRp7
sS'b'
F48
sS'n_cal'
p8
I9
sS'vel-center'
p9
g4
(g6
S'[4\xaaoG\x83\x1c\xc0'
tRp10
sS'rec-success'
p11
I01
sS'unixtime'
p12
F1399099727.5683601
sS'G_Right'
p13
g4
(g6
S'R<\xc3/\xc2\x8b\x00@'
tRp14
sS'l'
g4
(g6
S'\x0ev\xd3\x05\xe1}l@'
tRp15
sS'G_Left'
p16
g4
(g6
S'\tK\xc6\x9f\xb4\xf1\xde?'
tRp17
sS'T_Sys_Left'
p18
g4
(g6
S'<(h\xb4\xd4Rn@'
tRp19
sS'jd'
p20
F2456780.783877315
sS'lst'
p21
g4
(g6
S'\x00`l#\x8d\xd1*@'
tRp22
sS'vel-peaks'
p23
cnumpy.core.multiarray
_reconstruct
p24
(cnumpy
ndarray
p25
(I0
tS'b'
tRp26
(I1
(I1
tg6
I00
S'\xd0\xdc\x80\x92\xc1\\\x13\xc0'
tbsS'grid'
p27
(I24
I6
tp28
sS'fname'
p29
S'data_l_227.93_b_048.00_grid_024_006'
p30
sS'time'
p31
ctime
struct_time
p32
((I2014
I5
I2
I23
I48
I47
I4
I122
I1
t(dtRp33
sS'f_low'
p34
F1268.9000000000001
sS'T_Sys_Right'
p35
g4
(g6
S'<PX\xb1\x14\x89q@'
tRp36
sS'f_high'
p37
F1271.9000000000001
sS'col-density'
p38
g4
(g6
S'p\x8c\xe1\r[\x88/D'
tRp39
s.