(dp1
S'n_obs'
p2
I87
sS'dispersion'
p3
cnumpy.core.multiarray
scalar
p4
(cnumpy
dtype
p5
(S'f8'
I0
I1
tRp6
(I3
S'<'
NNNI-1
I-1
I0
tbS'\x88D{\xf6\xc6\xad(@'
tRp7
sS'b'
F16
sS'n_cal'
p8
I9
sS'vel-center'
p9
g4
(g6
S"\xf3\xf7\x06u\x1b6'@"
tRp10
sS'rec-success'
p11
I01
sS'unixtime'
p12
F1398836310
sS'G_Right'
p13
g4
(g6
S'\xc5\xc8\xd9\xaf\x8b\xc2\xfc?'
tRp14
sS'l'
g4
(g6
S'\x9a\xae\xd9\xa8\xca\xd9l@'
tRp15
sS'G_Left'
p16
g4
(g6
S'\x91\xda:$s\xcd\xe1?'
tRp17
sS'T_Sys_Left'
p18
g4
(g6
S'\x12E\xd7a\xb1\xb5t@'
tRp19
sS'jd'
p20
F2456777.7350694444
sS'lst'
p21
g4
(g6
S'\x00 \x94T:\x13(@'
tRp22
sS'vel-peaks'
p23
cnumpy.core.multiarray
_reconstruct
p24
(cnumpy
ndarray
p25
(I0
tS'b'
tRp26
(I1
(I2
tg6
I00
S'8H\x98\xe4\x1e\x0b/@\xf0h\xf9\x80P\xb3\x0b@'
tbsS'grid'
p27
(I8
I10
tp28
sS'fname'
p29
S'data_l_230.81_b_016.00_grid_008_010'
p30
sS'time'
p31
ctime
struct_time
p32
((I2014
I4
I29
I22
I38
I30
I1
I119
I1
t(dtRp33
sS'f_low'
p34
F1268.9000000000001
sS'T_Sys_Right'
p35
g4
(g6
S'\xd7\xff)\xeb\x14 s@'
tRp36
sS'f_high'
p37
F1271.9000000000001
sS'col-density'
p38
g4
(g6
S'\xc4W$\xd2\xaf\x08DD'
tRp39
s.