(dp1
S'n_obs'
p2
I87
sS'dispersion'
p3
cnumpy.core.multiarray
scalar
p4
(cnumpy
dtype
p5
(S'f8'
I0
I1
tRp6
(I3
S'<'
NNNI-1
I-1
I0
tbS'\x1eW\t\x14s\xbe/@'
tRp7
sS'b'
F60
sS'n_cal'
p8
I9
sS'vel-center'
p9
g4
(g6
S'xR\x99\xa7\xa1\x101\xc0'
tRp10
sS'rec-success'
p11
I01
sS'unixtime'
p12
F1399273897.410336
sS'G_Right'
p13
g4
(g6
S'bw[\x0e\r\x03\x00@'
tRp14
sS'l'
g4
(g6
S'\x00\x00\x00\x00\x00@n@'
tRp15
sS'G_Left'
p16
g4
(g6
S'Wb\xf0\x0c\xe7\xf9\xdf?'
tRp17
sS'T_Sys_Left'
p18
g4
(g6
S'3\x1e\xa3\xea%\xc9n@'
tRp19
sS'jd'
p20
F2456782.7997337962
sS'lst'
p21
g4
(g6
S'\x00\xc0\x9cQ7\xd8+@'
tRp22
sS'vel-peaks'
p23
cnumpy.core.multiarray
_reconstruct
p24
(cnumpy
ndarray
p25
(I0
tS'b'
tRp26
(I1
(I1
tg6
I00
S'\xc0\x1bM\x9e\xccN\x1e\xc0'
tbsS'grid'
p27
(I30
I8
tp28
sS'fname'
p29
S'data_l_242.00_b_060.00_grid_030_008'
p30
sS'time'
p31
ctime
struct_time
p32
((I2014
I5
I5
I0
I11
I37
I0
I125
I1
t(dtRp33
sS'f_low'
p34
F1268.9000000000001
sS'T_Sys_Right'
p35
g4
(g6
S'\xb9\x93\xa1\x8a\xa2.p@'
tRp36
sS'f_high'
p37
F1271.9000000000001
sS'col-density'
p38
g4
(g6
S'D\xa5$\x9c\x03\xd6-D'
tRp39
s.