(dp1
S'n_obs'
p2
I87
sS'dispersion'
p3
cnumpy.core.multiarray
scalar
p4
(cnumpy
dtype
p5
(S'f8'
I0
I1
tRp6
(I3
S'<'
NNNI-1
I-1
I0
tbS'>\xa1\xd4\x01\xef-%@'
tRp7
sS'b'
F44
sS'n_cal'
p8
I9
sS'vel-center'
p9
g4
(g6
S'\xaf\xb3VE9G\xf3\xbf'
tRp10
sS'rec-success'
p11
I01
sS'unixtime'
p12
F1399192709.680963
sS'G_Right'
p13
g4
(g6
S'\xaa\xb8&lfr\xfe?'
tRp14
sS'l'
g4
(g6
S'\x84\xea\xc2\x01C\xd0u@'
tRp15
sS'G_Left'
p16
g4
(g6
S'\x9fd\x1a\xe1\xf0\xd0\xe0?'
tRp17
sS'T_Sys_Left'
p18
g4
(g6
S'\x92v\xdc\xfc\xf9\rp@'
tRp19
sS'jd'
p20
F2456781.8600578704
sS'lst'
p21
g4
(g6
S'\x00\x80\xc8H\xdd\x9d.@'
tRp22
sS'vel-peaks'
p23
cnumpy.core.multiarray
_reconstruct
p24
(cnumpy
ndarray
p25
(I0
tS'b'
tRp26
(I1
(I1
tg6
I00
S'\xf8o\xde\xe7\xce\xa1\xf1\xbf'
tbsS'grid'
p27
(I22
I50
tp28
sS'fname'
p29
S'data_l_349.02_b_044.00_grid_022_050'
p30
sS'time'
p31
ctime
struct_time
p32
((I2014
I5
I4
I1
I38
I29
I6
I124
I1
t(dtRp33
sS'f_low'
p34
F1268.9000000000001
sS'T_Sys_Right'
p35
g4
(g6
S'Ow\xae_\x0c\xaci@'
tRp36
sS'f_high'
p37
F1271.9000000000001
sS'col-density'
p38
g4
(g6
S'\x94z\x04YHoAD'
tRp39
s.