(dp1
S'n_obs'
p2
I87
sS'dispersion'
p3
cnumpy.core.multiarray
scalar
p4
(cnumpy
dtype
p5
(S'f8'
I0
I1
tRp6
(I3
S'<'
NNNI-1
I-1
I0
tbS'\xef\xc7\xeb\xe8#~$@'
tRp7
sS'b'
F14
sS'n_cal'
p8
I9
sS'vel-center'
p9
g4
(g6
S'v!sb\x97\x90\x14@'
tRp10
sS'rec-success'
p11
I01
sS'unixtime'
p12
F1399287913.5515511
sS'G_Right'
p13
g4
(g6
S'$\xef{\xc5*\x8f\x00@'
tRp14
sS'l'
g4
(g6
S'\xc0B\x0eiS\xf01@'
tRp15
sS'G_Left'
p16
g4
(g6
S'\xbf\x1b\xb8\x07V\xeb\xde?'
tRp17
sS'T_Sys_Left'
p18
g4
(g6
S'\xab\xb8\xa8\xcd_\xf1n@'
tRp19
sS'jd'
p20
F2456782.9619560186
sS'lst'
p21
g4
(g6
S'\x00 }\xbd\x87\xd31@'
tRp22
sS'vel-peaks'
p23
cnumpy.core.multiarray
_reconstruct
p24
(cnumpy
ndarray
p25
(I0
tS'b'
tRp26
(I1
(I1
tg6
I00
S'X\x19\xc5\xc1Q\x0b\x07@'
tbsS'grid'
p27
(I7
I1
tp28
sS'fname'
p29
S'data_l_017.94_b_014.00_grid_007_001'
p30
sS'time'
p31
ctime
struct_time
p32
((I2014
I5
I5
I4
I5
I13
I0
I125
I1
t(dtRp33
sS'f_low'
p34
F1268.9000000000001
sS'T_Sys_Right'
p35
g4
(g6
S'\xc4\xbd\xcc\xf9\x10"p@'
tRp36
sS'f_high'
p37
F1271.9000000000001
sS'col-density'
p38
g4
(g6
S'\xeb%5QC\xfbVD'
tRp39
s.