(dp1
S'n_obs'
p2
I87
sS'dispersion'
p3
cnumpy.core.multiarray
scalar
p4
(cnumpy
dtype
p5
(S'f8'
I0
I1
tRp6
(I3
S'<'
NNNI-1
I-1
I0
tbS'\xd91\xce\x95R3,@'
tRp7
sS'b'
F60
sS'n_cal'
p8
I9
sS'vel-center'
p9
g4
(g6
S'\xf0\xbf\xd2\xe40w2\xc0'
tRp10
sS'rec-success'
p11
I01
sS'unixtime'
p12
F1399275058.5337019
sS'G_Right'
p13
g4
(g6
S"\x7f\xb3\x993\xa5'\xff?"
tRp14
sS'l'
g4
(g6
S'\x00\x00\x00\x00\x00\xa0q@'
tRp15
sS'G_Left'
p16
g4
(g6
S'[\x15\xc4\xa2\x1co\xe0?'
tRp17
sS'T_Sys_Left'
p18
g4
(g6
S'\xebf~Wx\xc3n@'
tRp19
sS'jd'
p20
F2456782.8131712964
sS'lst'
p21
g4
(g6
S'\x00@\xdd\xc5\xc9},@'
tRp22
sS'vel-peaks'
p23
cnumpy.core.multiarray
_reconstruct
p24
(cnumpy
ndarray
p25
(I0
tS'b'
tRp26
(I1
(I1
tg6
I00
S'\x0c\xa4j\x9dM%\x1e\xc0'
tbsS'grid'
p27
(I30
I18
tp28
sS'fname'
p29
S'data_l_282.00_b_060.00_grid_030_018'
p30
sS'time'
p31
ctime
struct_time
p32
((I2014
I5
I5
I0
I30
I58
I0
I125
I1
t(dtRp33
sS'f_low'
p34
F1268.9000000000001
sS'T_Sys_Right'
p35
g4
(g6
S'\xb7X\xd7\xf7\x9f\xd8o@'
tRp36
sS'f_high'
p37
F1271.9000000000001
sS'col-density'
p38
g4
(g6
S'\xa2\x0fg\xd65\x01)D'
tRp39
s.