(dp1
S'n_obs'
p2
I87
sS'dispersion'
p3
cnumpy.core.multiarray
scalar
p4
(cnumpy
dtype
p5
(S'f8'
I0
I1
tRp6
(I3
S'<'
NNNI-1
I-1
I0
tbS'\x17s\xbc\xd6\xd2k"@'
tRp7
sS'b'
F40
sS'n_cal'
p8
I9
sS'vel-center'
p9
g4
(g6
S'\xfb[\xa2\xcc\x8f\xa7\xe9\xbf'
tRp10
sS'rec-success'
p11
I01
sS'unixtime'
p12
F1399094339.2863541
sS'G_Right'
p13
g4
(g6
S'\xb7\xe0\xd6\x031J\x01@'
tRp14
sS'l'
g4
(g6
S"\xfa\x1a'\xeeu\x83m@"
tRp15
sS'G_Left'
p16
g4
(g6
S'\xb0\xbfN\x9b\xe1\x9c\xdd?'
tRp17
sS'T_Sys_Left'
p18
g4
(g6
S'\xa1]7\xf7\xaeLq@'
tRp19
sS'jd'
p20
F2456780.7215162036
sS'lst'
p21
g4
(g6
S"\x00\xa0\t\xf2(\xd1'@"
tRp22
sS'vel-peaks'
p23
cnumpy.core.multiarray
_reconstruct
p24
(cnumpy
ndarray
p25
(I0
tS'b'
tRp26
(I1
(I1
tg6
I00
S'\x80"h\xd3\xbe+\x05\xc0'
tbsS'grid'
p27
(I20
I10
tp28
sS'fname'
p29
S'data_l_236.11_b_040.00_grid_020_010'
p30
sS'time'
p31
ctime
struct_time
p32
((I2014
I5
I2
I22
I18
I59
I4
I122
I1
t(dtRp33
sS'f_low'
p34
F1268.9000000000001
sS'T_Sys_Right'
p35
g4
(g6
S'H\x1e\xab\xa7y\x95q@'
tRp36
sS'f_high'
p37
F1271.9000000000001
sS'col-density'
p38
g4
(g6
S'e\xff\xb5\xdf\xa6p8D'
tRp39
s.