(dp1
S'n_obs'
p2
I87
sS'dispersion'
p3
cnumpy.core.multiarray
scalar
p4
(cnumpy
dtype
p5
(S'f8'
I0
I1
tRp6
(I3
S'<'
NNNI-1
I-1
I0
tbS'\x8a\xd08\xfa\x02\xe2!@'
tRp7
sS'b'
F44
sS'n_cal'
p8
I9
sS'vel-center'
p9
g4
(g6
S'\xee\xc8spT\x1f\x13\xc0'
tRp10
sS'rec-success'
p11
I01
sS'unixtime'
p12
F1399096727.2430961
sS'G_Right'
p13
g4
(g6
S'\xf2\xad3\xc4\xba\xa1\x00@'
tRp14
sS'l'
g4
(g6
S'.\xc4\x1ag\xb4\xb9m@'
tRp15
sS'G_Left'
p16
g4
(g6
S'\x91(Y\xd4\xd3\xc8\xde?'
tRp17
sS'T_Sys_Left'
p18
g4
(g6
S'\xdae\r\xea\xfd]q@'
tRp19
sS'jd'
p20
F2456780.7491550925
sS'lst'
p21
g4
(g6
S'\x00\xc0\rk\xb7%)@'
tRp22
sS'vel-peaks'
p23
cnumpy.core.multiarray
_reconstruct
p24
(cnumpy
ndarray
p25
(I0
tS'b'
tRp26
(I1
(I1
tg6
I00
S'\x881h\xb6<u\r\xc0'
tbsS'grid'
p27
(I22
I10
tp28
sS'fname'
p29
S'data_l_237.80_b_044.00_grid_022_010'
p30
sS'time'
p31
ctime
struct_time
p32
((I2014
I5
I2
I22
I58
I47
I4
I122
I1
t(dtRp33
sS'f_low'
p34
F1268.9000000000001
sS'T_Sys_Right'
p35
g4
(g6
S'ME\xdelz\xa4l@'
tRp36
sS'f_high'
p37
F1271.9000000000001
sS'col-density'
p38
g4
(g6
S'\xc4\xac\x17!\xfb\x83-D'
tRp39
s.