(dp1
S'n_obs'
p2
I87
sS'dispersion'
p3
cnumpy.core.multiarray
scalar
p4
(cnumpy
dtype
p5
(S'f8'
I0
I1
tRp6
(I3
S'<'
NNNI-1
I-1
I0
tbS';:\xaa]g\xf4!@'
tRp7
sS'b'
F16
sS'n_cal'
p8
I9
sS'vel-center'
p9
g4
(g6
S'\x10\xff\x94\x18)J\t@'
tRp10
sS'rec-success'
p11
I01
sS'unixtime'
p12
F1399297600.117547
sS'G_Right'
p13
g4
(g6
S'\x13\xc8\xdd^\x07O\xfc?'
tRp14
sS'l'
g4
(g6
S'`\xbb\x1e\xea\xcb\x92(@'
tRp15
sS'G_Left'
p16
g4
(g6
S'\xf9\xa9\xfcS\x18\x16\xe2?'
tRp17
sS'T_Sys_Left'
p18
g4
(g6
S'\x17\xad\xc7\xc8\xb5/o@'
tRp19
sS'jd'
p20
F2456783.0740740742
sS'lst'
p21
g4
(g6
S'\x00P\xa0\x03E\x864@'
tRp22
sS'vel-peaks'
p23
cnumpy.core.multiarray
_reconstruct
p24
(cnumpy
ndarray
p25
(I0
tS'b'
tRp26
(I1
(I1
tg6
I00
S'\xc0<|\xf9\xd5\xb7\x04@'
tbsS'grid'
p27
(I8
I78
tp28
sS'fname'
p29
S'data_l_012.29_b_016.00_grid_008_078'
p30
sS'time'
p31
ctime
struct_time
p32
((I2014
I5
I5
I6
I46
I40
I0
I125
I1
t(dtRp33
sS'f_low'
p34
F1268.9000000000001
sS'T_Sys_Right'
p35
g4
(g6
S'\x12<c\xba\x8a\x84p@'
tRp36
sS'f_high'
p37
F1271.9000000000001
sS'col-density'
p38
g4
(g6
S'k\xf1;n4\x03VD'
tRp39
s.