(dp1
S'n_obs'
p2
I87
sS'dispersion'
p3
cnumpy.core.multiarray
scalar
p4
(cnumpy
dtype
p5
(S'f8'
I0
I1
tRp6
(I3
S'<'
NNNI-1
I-1
I0
tbS'M\xb7\xae\xf1\xe3g%@'
tRp7
sS'b'
F48
sS'n_cal'
p8
I9
sS'vel-center'
p9
g4
(g6
S'\t\x01\x87\x01\\\xea\x02\xc0'
tRp10
sS'rec-success'
p11
I01
sS'unixtime'
p12
F1399102283.2977059
sS'G_Right'
p13
g4
(g6
S'5h\x8d\xc8yL\x01@'
tRp14
sS'l'
g4
(g6
S'p\x13\x98\r\r[r@'
tRp15
sS'G_Left'
p16
g4
(g6
S'\xdb\x96N\x92\xf8\x98\xdd?'
tRp17
sS'T_Sys_Left'
p18
g4
(g6
S'\x13\xd6\xeb\xa0l\xc2p@'
tRp19
sS'jd'
p20
F2456780.8134606481
sS'lst'
p21
g4
(g6
S'\x00\x80\xe8\x0c\x11>,@'
tRp22
sS'vel-peaks'
p23
cnumpy.core.multiarray
_reconstruct
p24
(cnumpy
ndarray
p25
(I0
tS'b'
tRp26
(I1
(I1
tg6
I00
S'\xdc"]\xb2s\xa9\r\xc0'
tbsS'grid'
p27
(I24
I28
tp28
sS'fname'
p29
S'data_l_293.69_b_048.00_grid_024_028'
p30
sS'time'
p31
ctime
struct_time
p32
((I2014
I5
I3
I0
I31
I23
I5
I123
I1
t(dtRp33
sS'f_low'
p34
F1268.9000000000001
sS'T_Sys_Right'
p35
g4
(g6
S'<\x90\x9d\x1eb\xe2p@'
tRp36
sS'f_high'
p37
F1271.9000000000001
sS'col-density'
p38
g4
(g6
S'}?\x82/\x9e\xe33D'
tRp39
s.