(dp1
S'n_obs'
p2
I87
sS'dispersion'
p3
cnumpy.core.multiarray
scalar
p4
(cnumpy
dtype
p5
(S'f8'
I0
I1
tRp6
(I3
S'<'
NNNI-1
I-1
I0
tbS'Ph\x83\x07\xf5\xe05@'
tRp7
sS'b'
F64
sS'n_cal'
p8
I9
sS'vel-center'
p9
g4
(g6
S'\to&\xcaX\xac5\xc0'
tRp10
sS'rec-success'
p11
I01
sS'unixtime'
p12
F1399276746.740165
sS'G_Right'
p13
g4
(g6
S'\xf6v:\xafH\x1e\xf6?'
tRp14
sS'l'
g4
(g6
S'\xd0\x08\xda\xc7\xf5\xcfn@'
tRp15
sS'G_Left'
p16
g4
(g6
S'Y\xf2j!\xf4%\xe7?'
tRp17
sS'T_Sys_Left'
p18
g4
(g6
S'#u\xa3g./o@'
tRp19
sS'jd'
p20
F2456782.8327083332
sS'lst'
p21
g4
(g6
S'\x00\xa0V>\x84n-@'
tRp22
sS'vel-peaks'
p23
cnumpy.core.multiarray
_reconstruct
p24
(cnumpy
ndarray
p25
(I0
tS'b'
tRp26
(I1
(I1
tg6
I00
S'\xc8a\xf2M\xf2\xea\x1a\xc0'
tbsS'grid'
p27
(I32
I8
tp28
sS'fname'
p29
S'data_l_246.50_b_064.00_grid_032_008'
p30
sS'time'
p31
ctime
struct_time
p32
((I2014
I5
I5
I0
I59
I6
I0
I125
I1
t(dtRp33
sS'f_low'
p34
F1268.9000000000001
sS'T_Sys_Right'
p35
g4
(g6
S'\xf8\x00\xbemnun@'
tRp36
sS'f_high'
p37
F1271.9000000000001
sS'col-density'
p38
g4
(g6
S'h\x0b\xd7\x83\x92j,D'
tRp39
s.