(dp1
S'n_obs'
p2
I87
sS'dispersion'
p3
cnumpy.core.multiarray
scalar
p4
(cnumpy
dtype
p5
(S'f8'
I0
I1
tRp6
(I3
S'<'
NNNI-1
I-1
I0
tbS'\xac3\xf8\xc3\xb9\x80$@'
tRp7
sS'b'
F40
sS'n_cal'
p8
I9
sS'vel-center'
p9
g4
(g6
S'\xc2\x90\xa6L\x99/\x0c\xc0'
tRp10
sS'rec-success'
p11
I01
sS'unixtime'
p12
F1399094597.935148
sS'G_Right'
p13
g4
(g6
S'\xdc\x8d\x8cP\xd3w\x01@'
tRp14
sS'l'
g4
(g6
S')\xed.\x84\x8d\nq@'
tRp15
sS'G_Left'
p16
g4
(g6
S'\x10\xb9X#\x85O\xdd?'
tRp17
sS'T_Sys_Left'
p18
g4
(g6
S'\xc2\xa6|\xa7\x89\x05q@'
tRp19
sS'jd'
p20
F2456780.7245023148
sS'lst'
p21
g4
(g6
S"\x00\x80[(\xf4\xf5'@"
tRp22
sS'vel-peaks'
p23
cnumpy.core.multiarray
_reconstruct
p24
(cnumpy
ndarray
p25
(I0
tS'b'
tRp26
(I1
(I1
tg6
I00
S'\x9c\x0c\xa8\x0f\xe1<\x18\xc0'
tbsS'grid'
p27
(I20
I24
tp28
sS'fname'
p29
S'data_l_272.66_b_040.00_grid_020_024'
p30
sS'time'
p31
ctime
struct_time
p32
((I2014
I5
I2
I22
I23
I17
I4
I122
I1
t(dtRp33
sS'f_low'
p34
F1268.9000000000001
sS'T_Sys_Right'
p35
g4
(g6
S'\xde\x80/\r\xab\xbdq@'
tRp36
sS'f_high'
p37
F1271.9000000000001
sS'col-density'
p38
g4
(g6
S'L\r\xed\xc4\xae\xb1=D'
tRp39
s.