(dp1
S'n_obs'
p2
I87
sS'dispersion'
p3
cnumpy.core.multiarray
scalar
p4
(cnumpy
dtype
p5
(S'f8'
I0
I1
tRp6
(I3
S'<'
NNNI-1
I-1
I0
tbS'\xee\x0b-\x02\xeb\x1a*@'
tRp7
sS'b'
F76
sS'n_cal'
p8
I9
sS'vel-center'
p9
g4
(g6
S'\x9b\x11i-\xf1T*\xc0'
tRp10
sS'rec-success'
p11
I01
sS'unixtime'
p12
F1399200202.071775
sS'G_Right'
p13
g4
(g6
S'B\xc6\xceT{"\xfe?'
tRp14
sS'l'
g4
(g6
S'd\x99\x96\x08\xeflv@'
tRp15
sS'G_Left'
p16
g4
(g6
S'\x01\xb2\xf4\xbd\x89\xfd\xe0?'
tRp17
sS'T_Sys_Left'
p18
g4
(g6
S'\x00\xba\x1b\xb2\x8d\x84n@'
tRp19
sS'jd'
p20
F2456781.9467824074
sS'lst'
p21
g4
(g6
S'\x00@\xe1\x02:e1@'
tRp22
sS'vel-peaks'
p23
cnumpy.core.multiarray
_reconstruct
p24
(cnumpy
ndarray
p25
(I0
tS'b'
tRp26
(I1
(I0
tg6
I00
S''
tbsS'grid'
p27
(I38
I18
tp28
sS'fname'
p29
S'data_l_358.81_b_076.00_grid_038_018'
p30
sS'time'
p31
ctime
struct_time
p32
((I2014
I5
I4
I3
I43
I22
I6
I124
I1
t(dtRp33
sS'f_low'
p34
F1268.9000000000001
sS'T_Sys_Right'
p35
g4
(g6
S'\x19<f0\xc1\xe4n@'
tRp36
sS'f_high'
p37
F1271.9000000000001
sS'col-density'
p38
g4
(g6
S'\tO\x86\xad\x82\\+D'
tRp39
s.