(dp1
S'n_obs'
p2
I87
sS'dispersion'
p3
cnumpy.core.multiarray
scalar
p4
(cnumpy
dtype
p5
(S'f8'
I0
I1
tRp6
(I3
S'<'
NNNI-1
I-1
I0
tbS"\x893\xdeS\xdc\xd6'@"
tRp7
sS'b'
F72
sS'n_cal'
p8
I9
sS'vel-center'
p9
g4
(g6
S'\xb0\xc0\xc3\xd0T\xe3(\xc0'
tRp10
sS'rec-success'
p11
I01
sS'unixtime'
p12
F1399281066.1744111
sS'G_Right'
p13
g4
(g6
S'\xf0\xcdM\x07\xd5\x8f\xf5?'
tRp14
sS'l'
g4
(g6
S'\xe0},m\xa6\xfaq@'
tRp15
sS'G_Left'
p16
g4
(g6
S'NA\xab\xe4\xe2\xbe\xe7?'
tRp17
sS'T_Sys_Left'
p18
g4
(g6
S'\x06\xae\x94\x0fe\xe3n@'
tRp19
sS'jd'
p20
F2456782.8827083334
sS'lst'
p21
g4
(g6
S'\x00\xa0\xc1G\x99\xd6/@'
tRp22
sS'vel-peaks'
p23
cnumpy.core.multiarray
_reconstruct
p24
(cnumpy
ndarray
p25
(I0
tS'b'
tRp26
(I1
(I0
tg6
I00
S''
tbsS'grid'
p27
(I36
I12
tp28
sS'fname'
p29
S'data_l_287.67_b_072.00_grid_036_012'
p30
sS'time'
p31
ctime
struct_time
p32
((I2014
I5
I5
I2
I11
I6
I0
I125
I1
t(dtRp33
sS'f_low'
p34
F1268.9000000000001
sS'T_Sys_Right'
p35
g4
(g6
S'\x10\x10\xf0\x9d$\x08n@'
tRp36
sS'f_high'
p37
F1271.9000000000001
sS'col-density'
p38
g4
(g6
S"\xd3\x00\xd6.\xd6\xd0'D"
tRp39
s.