(dp1
S'n_obs'
p2
I87
sS'dispersion'
p3
cnumpy.core.multiarray
scalar
p4
(cnumpy
dtype
p5
(S'f8'
I0
I1
tRp6
(I3
S'<'
NNNI-1
I-1
I0
tbS'\xe4\xca\xcaRm*1@'
tRp7
sS'b'
F68
sS'n_cal'
p8
I9
sS'vel-center'
p9
g4
(g6
S'\x7f4Q`\xde\xba0\xc0'
tRp10
sS'rec-success'
p11
I01
sS'unixtime'
p12
F1399280058.809824
sS'G_Right'
p13
g4
(g6
S'\xf6\x91+d\xbb\xf2\xf5?'
tRp14
sS'l'
g4
(g6
S'\xb0\xd4af\xc4vr@'
tRp15
sS'G_Left'
p16
g4
(g6
S'[v\xc6\x0b\xe3S\xe7?'
tRp17
sS'T_Sys_Left'
p18
g4
(g6
S'\x17Q\x93\xea\x83\xe5m@'
tRp19
sS'jd'
p20
F2456782.8710416667
sS'lst'
p21
g4
(g6
S'\x00\x00p\xa3\xd8F/@'
tRp22
sS'vel-peaks'
p23
cnumpy.core.multiarray
_reconstruct
p24
(cnumpy
ndarray
p25
(I0
tS'b'
tRp26
(I1
(I1
tg6
I00
S'T\xce\x85Dj=\x0b\xc0'
tbsS'grid'
p27
(I34
I16
tp28
sS'fname'
p29
S'data_l_295.42_b_068.00_grid_034_016'
p30
sS'time'
p31
ctime
struct_time
p32
((I2014
I5
I5
I1
I54
I18
I0
I125
I1
t(dtRp33
sS'f_low'
p34
F1268.9000000000001
sS'T_Sys_Right'
p35
g4
(g6
S'\xca\xd0)\xa7&\x08n@'
tRp36
sS'f_high'
p37
F1271.9000000000001
sS'col-density'
p38
g4
(g6
S'b\x9a\xac`I/,D'
tRp39
s.