(dp1
S'n_obs'
p2
I87
sS'dispersion'
p3
cnumpy.core.multiarray
scalar
p4
(cnumpy
dtype
p5
(S'f8'
I0
I1
tRp6
(I3
S'<'
NNNI-1
I-1
I0
tbS'\xc9\xc1"AB9!@'
tRp7
sS'b'
F24
sS'n_cal'
p8
I9
sS'vel-center'
p9
g4
(g6
S'F\xbc\xdb\x01\xbay\x15@'
tRp10
sS'rec-success'
p11
I01
sS'unixtime'
p12
F1399266269.371871
sS'G_Right'
p13
g4
(g6
S'LH\xf4\x00\xd00\xfb?'
tRp14
sS'l'
g4
(g6
S'\xd82I\x15:Xk@'
tRp15
sS'G_Left'
p16
g4
(g6
S'$\r\x1a\xf1y\xd4\xe2?'
tRp17
sS'T_Sys_Left'
p18
g4
(g6
S'+Z\x8a\xb6Z\x83n@'
tRp19
sS'jd'
p20
F2456782.7114467593
sS'lst'
p21
g4
(g6
S"\x00`l\xec_\x98'@"
tRp22
sS'vel-peaks'
p23
cnumpy.core.multiarray
_reconstruct
p24
(cnumpy
ndarray
p25
(I0
tS'b'
tRp26
(I1
(I1
tg6
I00
S'\xf0\xbd\xd7OV)\x10@'
tbsS'grid'
p27
(I12
I4
tp28
sS'fname'
p29
S'data_l_218.76_b_024.00_grid_012_004'
p30
sS'time'
p31
ctime
struct_time
p32
((I2014
I5
I4
I22
I4
I29
I6
I124
I1
t(dtRp33
sS'f_low'
p34
F1268.9000000000001
sS'T_Sys_Right'
p35
g4
(g6
S'=\xd9\x95\x01\xe9\xd3n@'
tRp36
sS'f_high'
p37
F1271.9000000000001
sS'col-density'
p38
g4
(g6
S'a\xe6\xfe\xa8n\xe0(D'
tRp39
s.