(dp1
S'n_obs'
p2
I174
sS'dispersion'
p3
cnumpy.core.multiarray
scalar
p4
(cnumpy
dtype
p5
(S'f8'
I0
I1
tRp6
(I3
S'<'
NNNI-1
I-1
I0
tbS'6<D|\x13S8@'
tRp7
sS'b'
F2
sS'fname'
p8
S'data_l_233.91_b_002.00_grid_001_073'
p9
sS'vel-center'
p10
g4
(g6
S'\x9b\xfb\xae\xd6\xbe=E@'
tRp11
sS'rec-success'
p12
I01
sS'unixtime'
p13
F1398567840
sS'G_Right'
p14
g4
(g6
S'U"\x19\\]"\x05@'
tRp15
sS'l'
g4
(g6
S'\x88\xdf+\xf7&=m@'
tRp16
sS'G_Left'
p17
g4
(g6
S'\xa5\x8e\x1cA\xe19\xd8?'
tRp18
sS'T_Sys_Left'
p19
g4
(g6
S'",h\x8c\x87\x02\\@'
tRp20
sS'jd'
p21
F2456774.6277777776
sS'lst'
p22
g4
(g6
S'\x00 \xe5\xb3I\x84"@'
tRp23
sS'vel-peaks'
p24
cnumpy.core.multiarray
_reconstruct
p25
(cnumpy
ndarray
p26
(I0
tS'b'
tRp27
(I1
(I4
tg6
I00
S'\xd9\xad\x00{_]Q@\xb4\xd3\x87C\xeaIG@\xc0\xd2B\xca\x02c7@\xe0\x8a\xedC\xba\xa5\x01@'
tbsS'grid'
p28
(I1
I73
tp29
sS'n_cal'
p30
I18
sS'time'
p31
ctime
struct_time
p32
((I2014
I4
I26
I20
I4
I0
I5
I116
I1
t(dtRp33
sS'f_low'
p34
F1268.9000000000001
sS'T_Sys_Right'
p35
g4
(g6
S'\xe6\x08\xc1\xad\xcekv@'
tRp36
sS'f_high'
p37
F1271.9000000000001
sS'col-density'
p38
g4
(g6
S'\xb9\x17\x9f\xe6e\xc5qD'
tRp39
s.