(dp1
S'n_obs'
p2
I87
sS'dispersion'
p3
cnumpy.core.multiarray
scalar
p4
(cnumpy
dtype
p5
(S'f8'
I0
I1
tRp6
(I3
S'<'
NNNI-1
I-1
I0
tbS'\xb5\xa0~\xf0B\x05A@'
tRp7
sS'b'
F2
sS'n_cal'
p8
I9
sS'vel-center'
p9
g4
(g6
S'\\(\x14x\xe5\xb64@'
tRp10
sS'rec-success'
p11
I01
sS'unixtime'
p12
F1399298705.7190859
sS'G_Right'
p13
g4
(g6
S'\x9c\x02\x8fLQH\xfb?'
tRp14
sS'l'
F20
sS'G_Left'
p15
g4
(g6
S'O\xd5\xf2\xe3@\xc4\xe2?'
tRp16
sS'T_Sys_Left'
p17
g4
(g6
S'\x16\xfa{\x89\x10\x19p@'
tRp18
sS'jd'
p19
F2456783.086863426
sS'lst'
p20
g4
(g6
S'\x00\x007\x00\x10\xd54@'
tRp21
sS'vel-peaks'
p22
cnumpy.core.multiarray
_reconstruct
p23
(cnumpy
ndarray
p24
(I0
tS'b'
tRp25
(I1
(I3
tg6
I00
S')q\xf7{\x0e\xb55@@\x08\x07\xa5T/\x0e@\xf8\xee\xdeV\xffd>\xc0'
tbsS'grid'
p26
(I1
I0
tp27
sS'fname'
p28
S'data_l_020.00_b_002.00_grid_001_000'
p29
sS'time'
p30
ctime
struct_time
p31
((I2014
I5
I5
I7
I5
I5
I0
I125
I1
t(dtRp32
sS'f_low'
p33
F1268.9000000000001
sS'T_Sys_Right'
p34
g4
(g6
S'\xd5\xdf\xefadNq@'
tRp35
sS'f_high'
p36
F1271.9000000000001
sS'col-density'
p37
g4
(g6
S'\xee]\t\xa0\xa5\xb4vD'
tRp38
s.