(dp1
S'n_obs'
p2
I87
sS'dispersion'
p3
cnumpy.core.multiarray
scalar
p4
(cnumpy
dtype
p5
(S'f8'
I0
I1
tRp6
(I3
S'<'
NNNI-1
I-1
I0
tbS'\xfb\xa8-_\xe9H#@'
tRp7
sS'b'
F16
sS'n_cal'
p8
I9
sS'vel-center'
p9
g4
(g6
S'\xa6IS\xf9\xc1w\x08@'
tRp10
sS'rec-success'
p11
I01
sS'unixtime'
p12
F1399297358.2462339
sS'G_Right'
p13
g4
(g6
S"C|'e\xecr\xfb?"
tRp14
sS'l'
g4
(g6
S' &fgC@ @'
tRp15
sS'G_Left'
p16
g4
(g6
S'-\xd2\xf1\xca\x1f\xa7\xe2?'
tRp17
sS'T_Sys_Left'
p18
g4
(g6
S'A:r\xd4c\xccp@'
tRp19
sS'jd'
p20
F2456783.0712731481
sS'lst'
p21
g4
(g6
S'\x00\xa0\xfey\x03u4@'
tRp22
sS'vel-peaks'
p23
cnumpy.core.multiarray
_reconstruct
p24
(cnumpy
ndarray
p25
(I0
tS'b'
tRp26
(I1
(I1
tg6
I00
S'\x88\x19\xa34\xdb\xbc\t@'
tbsS'grid'
p27
(I8
I76
tp28
sS'fname'
p29
S'data_l_008.13_b_016.00_grid_008_076'
p30
sS'time'
p31
ctime
struct_time
p32
((I2014
I5
I5
I6
I42
I38
I0
I125
I1
t(dtRp33
sS'f_low'
p34
F1268.9000000000001
sS'T_Sys_Right'
p35
g4
(g6
S'\xc9\x11w\x1a\xa3\x1dp@'
tRp36
sS'f_high'
p37
F1271.9000000000001
sS'col-density'
p38
g4
(g6
S'n\x98\x95za\xf0WD'
tRp39
s.