(dp1
S'n_obs'
p2
I87
sS'dispersion'
p3
cnumpy.core.multiarray
scalar
p4
(cnumpy
dtype
p5
(S'f8'
I0
I1
tRp6
(I3
S'<'
NNNI-1
I-1
I0
tbS'\xc3\xe0\x9e\xa9f\xc4$@'
tRp7
sS'b'
F20
sS'n_cal'
p8
I9
sS'vel-center'
p9
g4
(g6
S'\xc8B\xdf\x927T\r@'
tRp10
sS'rec-success'
p11
I01
sS'unixtime'
p12
F1399182494.454164
sS'G_Right'
p13
g4
(g6
S'\xcc\xb1\xc7\x01\x8a/\x00@'
tRp14
sS'l'
g4
(g6
S'\x1c\xb3:\xd7\x80\xf9m@'
tRp15
sS'G_Left'
p16
g4
(g6
S'\x16)\x9a=\x03\xa2\xdf?'
tRp17
sS'T_Sys_Left'
p18
g4
(g6
S'\x03\x0e\x90Ft\xbdo@'
tRp19
sS'jd'
p20
F2456781.7418287038
sS'lst'
p21
g4
(g6
S'\x00\xc0\xc35\x16\xed(@'
tRp22
sS'vel-peaks'
p23
cnumpy.core.multiarray
_reconstruct
p24
(cnumpy
ndarray
p25
(I0
tS'b'
tRp26
(I1
(I1
tg6
I00
S'@5b\xec\x859\xeb?'
tbsS'grid'
p27
(I10
I14
tp28
sS'fname'
p29
S'data_l_239.80_b_020.00_grid_010_014'
p30
sS'time'
p31
ctime
struct_time
p32
((I2014
I5
I3
I22
I48
I14
I5
I123
I1
t(dtRp33
sS'f_low'
p34
F1268.9000000000001
sS'T_Sys_Right'
p35
g4
(g6
S'\xd3l\xb1S\xe9Jq@'
tRp36
sS'f_high'
p37
F1271.9000000000001
sS'col-density'
p38
g4
(g6
S'\xf5\x97\xb9\xcc\xde):D'
tRp39
s.