(dp1
S'n_obs'
p2
I87
sS'dispersion'
p3
cnumpy.core.multiarray
scalar
p4
(cnumpy
dtype
p5
(S'f8'
I0
I1
tRp6
(I3
S'<'
NNNI-1
I-1
I0
tbS'>\xda\xba\x8fZ\xaf2@'
tRp7
sS'b'
F12
sS'n_cal'
p8
I9
sS'vel-center'
p9
g4
(g6
S'\xf3:\xa4X\xb0\x811@'
tRp10
sS'rec-success'
p11
I01
sS'unixtime'
p12
F1399178405.674768
sS'G_Right'
p13
g4
(g6
S'(fLm#=\xfc?'
tRp14
sS'l'
g4
(g6
S'Lzz+\x94\xc8k@'
tRp15
sS'G_Left'
p16
g4
(g6
S'\x0b>\xeb\xac\x8d!\xe2?'
tRp17
sS'T_Sys_Left'
p18
g4
(g6
S'\xb8\x87b}I\xf9p@'
tRp19
sS'jd'
p20
F2456781.6945023146
sS'lst'
p21
g4
(g6
S'\x00 F\xa7\xf2\xa5&@'
tRp22
sS'vel-peaks'
p23
cnumpy.core.multiarray
_reconstruct
p24
(cnumpy
ndarray
p25
(I0
tS'b'
tRp26
(I1
(I2
tg6
I00
S'\x0c\xd4/\x94fM0@\x80xK3\xe7O\xfc?'
tbsS'grid'
p27
(I6
I6
tp28
sS'fname'
p29
S'data_l_222.27_b_012.00_grid_006_006'
p30
sS'time'
p31
ctime
struct_time
p32
((I2014
I5
I3
I21
I40
I5
I5
I123
I1
t(dtRp33
sS'f_low'
p34
F1268.9000000000001
sS'T_Sys_Right'
p35
g4
(g6
S'\x8ei\x16r\x96\x16p@'
tRp36
sS'f_high'
p37
F1271.9000000000001
sS'col-density'
p38
g4
(g6
S'\x08_\xf8\xb4m\x1cGD'
tRp39
s.