(dp1
S'n_obs'
p2
I87
sS'dispersion'
p3
cnumpy.core.multiarray
scalar
p4
(cnumpy
dtype
p5
(S'f8'
I0
I1
tRp6
(I3
S'<'
NNNI-1
I-1
I0
tbS'\xd5,\x12\xca\xe3\xb3\x1f@'
tRp7
sS'b'
F48
sS'n_cal'
p8
I9
sS'vel-center'
p9
g4
(g6
S'\\\xa4K?\xae\xa8 \xc0'
tRp10
sS'rec-success'
p11
I01
sS'unixtime'
p12
F1399101117.9554391
sS'G_Right'
p13
g4
(g6
S'\x1b\x17\xadP\xf3\x96\x00@'
tRp14
sS'l'
g4
(g6
S'\x141\xbd\x88\xd1|p@'
tRp15
sS'G_Left'
p16
g4
(g6
S'\xd8\x85dc\xd4\xdc\xde?'
tRp17
sS'T_Sys_Left'
p18
g4
(g6
S'n\x88\x10`q\xa2n@'
tRp19
sS'jd'
p20
F2456780.7999652778
sS'lst'
p21
g4
(g6
S'\x00\xe0\xef\r\xc8\x97+@'
tRp22
sS'vel-peaks'
p23
cnumpy.core.multiarray
_reconstruct
p24
(cnumpy
ndarray
p25
(I0
tS'b'
tRp26
(I1
(I1
tg6
I00
S'\x88\x9bw\xc1\x06\xaf\x1c\xc0'
tbsS'grid'
p27
(I24
I18
tp28
sS'fname'
p29
S'data_l_263.80_b_048.00_grid_024_018'
p30
sS'time'
p31
ctime
struct_time
p32
((I2014
I5
I3
I0
I11
I57
I5
I123
I1
t(dtRp33
sS'f_low'
p34
F1268.9000000000001
sS'T_Sys_Right'
p35
g4
(g6
S'\xf9\xads-K\xfbp@'
tRp36
sS'f_high'
p37
F1271.9000000000001
sS'col-density'
p38
g4
(g6
S'No\xa0\x9d`\xdf2D'
tRp39
s.