(dp1
S'n_obs'
p2
I87
sS'dispersion'
p3
cnumpy.core.multiarray
scalar
p4
(cnumpy
dtype
p5
(S'f8'
I0
I1
tRp6
(I3
S'<'
NNNI-1
I-1
I0
tbS'\x9ef\x9a\xdb\x04~%@'
tRp7
sS'b'
F14
sS'n_cal'
p8
I9
sS'vel-center'
p9
g4
(g6
S'\xbf\xf1Z\x86\x06D\x0e@'
tRp10
sS'rec-success'
p11
I01
sS'unixtime'
p12
F1399288395.7194171
sS'G_Right'
p13
g4
(g6
S'\x99t\x15\xd7\x00P\x00@'
tRp14
sS'l'
g4
(g6
S'\x80\x9b\x8e\x1aBc#@'
tRp15
sS'G_Left'
p16
g4
(g6
S'\x7f\xe2\xc8\x0e\x0fc\xdf?'
tRp17
sS'T_Sys_Left'
p18
g4
(g6
S'\x03\x19\xbd\x9c\xec\xc1n@'
tRp19
sS'jd'
p20
F2456782.9675347223
sS'lst'
p21
g4
(g6
S'\x00\x90kN\xe6\xf51@'
tRp22
sS'vel-peaks'
p23
cnumpy.core.multiarray
_reconstruct
p24
(cnumpy
ndarray
p25
(I0
tS'b'
tRp26
(I1
(I1
tg6
I00
S' \x87\xb0\nz\xe0\x0b@'
tbsS'grid'
p27
(I7
I5
tp28
sS'fname'
p29
S'data_l_009.69_b_014.00_grid_007_005'
p30
sS'time'
p31
ctime
struct_time
p32
((I2014
I5
I5
I4
I13
I15
I0
I125
I1
t(dtRp33
sS'f_low'
p34
F1268.9000000000001
sS'T_Sys_Right'
p35
g4
(g6
S'xyr\x95\x87\x1bp@'
tRp36
sS'f_high'
p37
F1271.9000000000001
sS'col-density'
p38
g4
(g6
S'\x91L\x8b0\\aYD'
tRp39
s.