(dp1
S'n_obs'
p2
I87
sS'dispersion'
p3
cnumpy.core.multiarray
scalar
p4
(cnumpy
dtype
p5
(S'f8'
I0
I1
tRp6
(I3
S'<'
NNNI-1
I-1
I0
tbS'/p\xb8\x1a1\xd9$@'
tRp7
sS'b'
F26
sS'n_cal'
p8
I9
sS'vel-center'
p9
g4
(g6
S'G\x86e\xfd\x1eB\xf1?'
tRp10
sS'rec-success'
p11
I01
sS'unixtime'
p12
F1399292110.4739759
sS'G_Right'
p13
g4
(g6
S'\x18E\x88\xfa\xf7\xe7\xfc?'
tRp14
sS'l'
g4
(g6
S'\x00\xcd\xaa\x13\xbd\xb1\x11@'
tRp15
sS'G_Left'
p16
g4
(g6
S'1\xc0\x14\xe3f\xb6\xe1?'
tRp17
sS'T_Sys_Left'
p18
g4
(g6
S'N\x87$\xcb+\xd4n@'
tRp19
sS'jd'
p20
F2456783.0105324071
sS'lst'
p21
g4
(g6
S'\x00\xb0\xf4\xfa\xcc\xfe2@'
tRp22
sS'vel-peaks'
p23
cnumpy.core.multiarray
_reconstruct
p24
(cnumpy
ndarray
p25
(I0
tS'b'
tRp26
(I1
(I1
tg6
I00
S'@\x9d(\xe6\xa3\xe2\x04@'
tbsS'grid'
p27
(I13
I7
tp28
sS'fname'
p29
S'data_l_004.42_b_026.00_grid_013_007'
p30
sS'time'
p31
ctime
struct_time
p32
((I2014
I5
I5
I5
I15
I10
I0
I125
I1
t(dtRp33
sS'f_low'
p34
F1268.9000000000001
sS'T_Sys_Right'
p35
g4
(g6
S'\xdf\xd5\x80gq\xcen@'
tRp36
sS'f_high'
p37
F1271.9000000000001
sS'col-density'
p38
g4
(g6
S'\xd1\x9c\xca\xba9\xd6QD'
tRp39
s.