(dp1
S'n_obs'
p2
I87
sS'dispersion'
p3
cnumpy.core.multiarray
scalar
p4
(cnumpy
dtype
p5
(S'f8'
I0
I1
tRp6
(I3
S'<'
NNNI-1
I-1
I0
tbS"\x15\x82Ef|8'@"
tRp7
sS'b'
F52
sS'n_cal'
p8
I9
sS'vel-center'
p9
g4
(g6
S'!\x93\xc6\x02\xdd1&\xc0'
tRp10
sS'rec-success'
p11
I01
sS'unixtime'
p12
F1399103389.8949931
sS'G_Right'
p13
g4
(g6
S'\x86\xf9\nFg\xe6\x00@'
tRp14
sS'l'
g4
(g6
S'\xb4\xbd\xebSp\x1fo@'
tRp15
sS'G_Left'
p16
g4
(g6
S'\x06pu\xc8\xbbK\xde?'
tRp17
sS'T_Sys_Left'
p18
g4
(g6
S'\x9br\xba \x81\x96p@'
tRp19
sS'jd'
p20
F2456780.8262615739
sS'lst'
p21
g4
(g6
S'\x00\xc0:\x88\xcb\xdb,@'
tRp22
sS'vel-peaks'
p23
cnumpy.core.multiarray
_reconstruct
p24
(cnumpy
ndarray
p25
(I0
tS'b'
tRp26
(I1
(I1
tg6
I00
S'\x82\x04\xa7\x1bX} \xc0'
tbsS'grid'
p27
(I26
I12
tp28
sS'fname'
p29
S'data_l_248.98_b_052.00_grid_026_012'
p30
sS'time'
p31
ctime
struct_time
p32
((I2014
I5
I3
I0
I49
I49
I5
I123
I1
t(dtRp33
sS'f_low'
p34
F1268.9000000000001
sS'T_Sys_Right'
p35
g4
(g6
S'\x1d\xd2\x89\x90\xfeLq@'
tRp36
sS'f_high'
p37
F1271.9000000000001
sS'col-density'
p38
g4
(g6
S'&\x0e\x88\xc6\xc6\x173D'
tRp39
s.