(dp1
S'n_obs'
p2
I87
sS'dispersion'
p3
cnumpy.core.multiarray
scalar
p4
(cnumpy
dtype
p5
(S'f8'
I0
I1
tRp6
(I3
S'<'
NNNI-1
I-1
I0
tbS'\x01\xe1\x99\xd0\xd3*$@'
tRp7
sS'b'
F36
sS'n_cal'
p8
I9
sS'vel-center'
p9
g4
(g6
S'\xea\xbc\xc4s:(\xfb?'
tRp10
sS'rec-success'
p11
I01
sS'unixtime'
p12
F1398849902
sS'G_Right'
p13
g4
(g6
S'\xf0L\x9e\x01\xe7\x90\x00@'
tRp14
sS'l'
g4
(g6
S'\xa0\x8b\x96\x0ekR*@'
tRp15
sS'G_Left'
p16
g4
(g6
S'\x8fA\xe3\xe5\x18\xe8\xde?'
tRp17
sS'T_Sys_Left'
p18
g4
(g6
S'\xf9;\xbb\x8a\xb5#\x80@'
tRp19
sS'jd'
p20
F2456777.892384259
sS'lst'
p21
g4
(g6
S'\x00 \x11\xdb\x9a\xa5/@'
tRp22
sS'vel-peaks'
p23
cnumpy.core.multiarray
_reconstruct
p24
(cnumpy
ndarray
p25
(I0
tS'b'
tRp26
(I1
(I1
tg6
I00
S'\x00H/\x06\x0c\xe8\x8d?'
tbsS'grid'
p27
(I18
I66
tp28
sS'fname'
p29
S'data_l_013.16_b_036.00_grid_018_066'
p30
sS'time'
p31
ctime
struct_time
p32
((I2014
I4
I30
I2
I25
I2
I2
I120
I1
t(dtRp33
sS'f_low'
p34
F1268.9000000000001
sS'T_Sys_Right'
p35
g4
(g6
S'%]\x96=<\xf5~@'
tRp36
sS'f_high'
p37
F1271.9000000000001
sS'col-density'
p38
g4
(g6
S'P\xc1X\xbe7\x82RD'
tRp39
s.