(dp1
S'n_obs'
p2
I87
sS'dispersion'
p3
cnumpy.core.multiarray
scalar
p4
(cnumpy
dtype
p5
(S'f8'
I0
I1
tRp6
(I3
S'<'
NNNI-1
I-1
I0
tbS'\xd3\xf9\x8b{K($@'
tRp7
sS'b'
F34
sS'n_cal'
p8
I9
sS'vel-center'
p9
g4
(g6
S'(\xa8I\xed\x04\x98\x01@'
tRp10
sS'rec-success'
p11
I01
sS'unixtime'
p12
F1399294016.085983
sS'G_Right'
p13
g4
(g6
S'C\x96Y1\xca\xfb\xf7?'
tRp14
sS'l'
g4
(g6
S' \xee7\x9b\x7f\x86)@'
tRp15
sS'G_Left'
p16
g4
(g6
S'\x04K\x89\n\x14Y\xe5?'
tRp17
sS'T_Sys_Left'
p18
g4
(g6
S'\xf3\xe4\x8e \xc2\x7fm@'
tRp19
sS'jd'
p20
F2456783.0325925928
sS'lst'
p21
g4
(g6
S'\x00p\xb8\xa6\xb5\x863@'
tRp22
sS'vel-peaks'
p23
cnumpy.core.multiarray
_reconstruct
p24
(cnumpy
ndarray
p25
(I0
tS'b'
tRp26
(I1
(I1
tg6
I00
S'\xc0\xff_\x1cO[\xdd?'
tbsS'grid'
p27
(I17
I3
tp28
sS'fname'
p29
S'data_l_012.76_b_034.00_grid_017_003'
p30
sS'time'
p31
ctime
struct_time
p32
((I2014
I5
I5
I5
I46
I56
I0
I125
I1
t(dtRp33
sS'f_low'
p34
F1268.9000000000001
sS'T_Sys_Right'
p35
g4
(g6
S'\xb3\xe3\x80\x83f\x14m@'
tRp36
sS'f_high'
p37
F1271.9000000000001
sS'col-density'
p38
g4
(g6
S'!d\xe1\xf9\xc3+CD'
tRp39
s.