(dp1
S'n_obs'
p2
I87
sS'dispersion'
p3
cnumpy.core.multiarray
scalar
p4
(cnumpy
dtype
p5
(S'f8'
I0
I1
tRp6
(I3
S'<'
NNNI-1
I-1
I0
tbS'\xa8\xefJQF\xd3)@'
tRp7
sS'b'
F76
sS'n_cal'
p8
I9
sS'vel-center'
p9
g4
(g6
S'\x8e\xe5\xb1\xd4\xe5h(\xc0'
tRp10
sS'rec-success'
p11
I01
sS'unixtime'
p12
F1399199976.31142
sS'G_Right'
p13
g4
(g6
S'\xc32\xc0\x94 \x80\xff?'
tRp14
sS'l'
g4
(g6
S' \xfaL\xb2bdu@'
tRp15
sS'G_Left'
p16
g4
(g6
S'\xf1\xbd\x80@\xf3@\xe0?'
tRp17
sS'T_Sys_Left'
p18
g4
(g6
S'\x8e\x01yUcmn@'
tRp19
sS'jd'
p20
F2456781.9441666668
sS'lst'
p21
g4
(g6
S'\x00\xf0\xf6\x8a\x1cU1@'
tRp22
sS'vel-peaks'
p23
cnumpy.core.multiarray
_reconstruct
p24
(cnumpy
ndarray
p25
(I0
tS'b'
tRp26
(I1
(I1
tg6
I00
S'N\xcev\xe1\xf4\xe1\xf9\xbf'
tbsS'grid'
p27
(I38
I16
tp28
sS'fname'
p29
S'data_l_342.27_b_076.00_grid_038_016'
p30
sS'time'
p31
ctime
struct_time
p32
((I2014
I5
I4
I3
I39
I36
I6
I124
I1
t(dtRp33
sS'f_low'
p34
F1268.9000000000001
sS'T_Sys_Right'
p35
g4
(g6
S'4\xe53c\x88\xf2m@'
tRp36
sS'f_high'
p37
F1271.9000000000001
sS'col-density'
p38
g4
(g6
S'g~\xf8\r\x85^(D'
tRp39
s.