(dp1
S'n_obs'
p2
I87
sS'dispersion'
p3
cnumpy.core.multiarray
scalar
p4
(cnumpy
dtype
p5
(S'f8'
I0
I1
tRp6
(I3
S'<'
NNNI-1
I-1
I0
tbS'\xd6\x9f}S\xd4\xc4#@'
tRp7
sS'b'
F12
sS'n_cal'
p8
I9
sS'vel-center'
p9
g4
(g6
S'8\xce\xe1U\x96\xb0\x13@'
tRp10
sS'rec-success'
p11
I01
sS'unixtime'
p12
F1399296884.9890299
sS'G_Right'
p13
g4
(g6
S'@\xa2\xe2\xf95\xd4\xfb?'
tRp14
sS'l'
g4
(g6
S'\x00\xeae;$&+@'
tRp15
sS'G_Left'
p16
g4
(g6
S'\x7f\xfb\xaaf\xeae\xe2?'
tRp17
sS'T_Sys_Left'
p18
g4
(g6
S'R\xb3\xadQM*o@'
tRp19
sS'jd'
p20
F2456783.0657870369
sS'lst'
p21
g4
(g6
S'\x00\xe0\xd3\xf16S4@'
tRp22
sS'vel-peaks'
p23
cnumpy.core.multiarray
_reconstruct
p24
(cnumpy
ndarray
p25
(I0
tS'b'
tRp26
(I1
(I1
tg6
I00
S'x\x1f\xa7k\xab\xa3\x0c@'
tbsS'grid'
p27
(I6
I80
tp28
sS'fname'
p29
S'data_l_013.57_b_012.00_grid_006_080'
p30
sS'time'
p31
ctime
struct_time
p32
((I2014
I5
I5
I6
I34
I44
I0
I125
I1
t(dtRp33
sS'f_low'
p34
F1268.9000000000001
sS'T_Sys_Right'
p35
g4
(g6
S'\xa1\xd16\xfe\xa7\xe4o@'
tRp36
sS'f_high'
p37
F1271.9000000000001
sS'col-density'
p38
g4
(g6
S'\xb7W.\xa0\xbe\x8eWD'
tRp39
s.