(dp1
S'n_obs'
p2
I174
sS'dispersion'
p3
cnumpy.core.multiarray
scalar
p4
(cnumpy
dtype
p5
(S'f8'
I0
I1
tRp6
(I3
S'<'
NNNI-1
I-1
I0
tbS'\x1e\xa5\x1c\xe1O\xe68@'
tRp7
sS'b'
F2
sS'fname'
p8
S'data_l_229.91_b_002.00_grid_001_075'
p9
sS'vel-center'
p10
g4
(g6
S'\xd1\x01\xed\x1a\xfa\x0cC@'
tRp11
sS'rec-success'
p12
I01
sS'unixtime'
p13
F1398568800
sS'G_Right'
p14
g4
(g6
S'p3\xf4b o\xff?'
tRp15
sS'l'
g4
(g6
S'nu\xf1\xfd\x12\xbdl@'
tRp16
sS'G_Left'
p17
g4
(g6
S'\x04\x1bB\xa7\xbdI\xe0?'
tRp18
sS'T_Sys_Left'
p19
g4
(g6
S'\xeetI+\x0b\x98m@'
tRp20
sS'jd'
p21
F2456774.638888889
sS'lst'
p22
g4
(g6
S'\x00@\x0b\xef1\r#@'
tRp23
sS'vel-peaks'
p24
cnumpy.core.multiarray
_reconstruct
p25
(cnumpy
ndarray
p26
(I0
tS'b'
tRp27
(I1
(I4
tg6
I00
S'\x01\x9b\xf7t)MQ@\xc2\x1c\x07\x9dV\xeaC@\xd0\xba\x89o+24@\x80U\x99A<\x18\x02@'
tbsS'grid'
p28
(I1
I75
tp29
sS'n_cal'
p30
I18
sS'time'
p31
ctime
struct_time
p32
((I2014
I4
I26
I20
I20
I0
I5
I116
I1
t(dtRp33
sS'f_low'
p34
F1268.9000000000001
sS'T_Sys_Right'
p35
g4
(g6
S'F\xa4\x9d\xd0\x1e\xfa\xa6@'
tRp36
sS'f_high'
p37
F1271.9000000000001
sS'col-density'
p38
g4
(g6
S'\\\xae\xccl\xbc\xc9\x99D'
tRp39
s.