(dp1
S'n_obs'
p2
I87
sS'dispersion'
p3
cnumpy.core.multiarray
scalar
p4
(cnumpy
dtype
p5
(S'f8'
I0
I1
tRp6
(I3
S'<'
NNNI-1
I-1
I0
tbS'2\xe0]\xf5\x18\xb8,@'
tRp7
sS'b'
F44
sS'n_cal'
p8
I9
sS'vel-center'
p9
g4
(g6
S'\x88\x105o\x94\xc3!\xc0'
tRp10
sS'rec-success'
p11
I01
sS'unixtime'
p12
F1399095812.1856501
sS'G_Right'
p13
g4
(g6
S'\xb9\x17?\xa9~b\x00@'
tRp14
sS'l'
g4
(g6
S'\xd6\xc0k\xe1\xf0\xf1j@'
tRp15
sS'G_Left'
p16
g4
(g6
S'A\xc6\xd5\xda\xa2?\xdf?'
tRp17
sS'T_Sys_Left'
p18
g4
(g6
S'\xe6\xfaw\x9eF7s@'
tRp19
sS'jd'
p20
F2456780.7385648149
sS'lst'
p21
g4
(g6
S'\x00\xa0\x04\x13:\xa3(@'
tRp22
sS'vel-peaks'
p23
cnumpy.core.multiarray
_reconstruct
p24
(cnumpy
ndarray
p25
(I0
tS'b'
tRp26
(I1
(I1
tg6
I00
S'\xc0\xc9\xbb\xe1Z\xf9\xeb\xbf'
tbsS'grid'
p27
(I22
I2
tp28
sS'fname'
p29
S'data_l_215.56_b_044.00_grid_022_002'
p30
sS'time'
p31
ctime
struct_time
p32
((I2014
I5
I2
I22
I43
I32
I4
I122
I1
t(dtRp33
sS'f_low'
p34
F1268.9000000000001
sS'T_Sys_Right'
p35
g4
(g6
S'\x88\x1fQE\xcc\xeep@'
tRp36
sS'f_high'
p37
F1271.9000000000001
sS'col-density'
p38
g4
(g6
S'\xb6\xf9\xa5R\xeb\xa34D'
tRp39
s.