(dp1
S'n_obs'
p2
I87
sS'dispersion'
p3
cnumpy.core.multiarray
scalar
p4
(cnumpy
dtype
p5
(S'f8'
I0
I1
tRp6
(I3
S'<'
NNNI-1
I-1
I0
tbS'\xae\xa27\xd8\xebI1@'
tRp7
sS'b'
F48
sS'n_cal'
p8
I9
sS'vel-center'
p9
g4
(g6
S')\xb0\x0c\x18\x96\x1b\x0e\xc0'
tRp10
sS'rec-success'
p11
I01
sS'unixtime'
p12
F1399195097.6381421
sS'G_Right'
p13
g4
(g6
S"N\x00C|'\xb4\xff?"
tRp14
sS'l'
g4
(g6
S'\xcc\xf5r\x92H9t@'
tRp15
sS'G_Left'
p16
g4
(g6
S'y\xff7\xfbF&\xe0?'
tRp17
sS'T_Sys_Left'
p18
g4
(g6
S'\xf2\xfda\x88)np@'
tRp19
sS'jd'
p20
F2456781.8876967593
sS'lst'
p21
g4
(g6
S'\x00\xa0\xcc\xc1k\xf2/@'
tRp22
sS'vel-peaks'
p23
cnumpy.core.multiarray
_reconstruct
p24
(cnumpy
ndarray
p25
(I0
tS'b'
tRp26
(I1
(I1
tg6
I00
S'\x18\xcd\xa4\xdd\xdf\xa1\x12\xc0'
tbsS'grid'
p27
(I24
I38
tp28
sS'fname'
p29
S'data_l_323.58_b_048.00_grid_024_038'
p30
sS'time'
p31
ctime
struct_time
p32
((I2014
I5
I4
I2
I18
I17
I6
I124
I1
t(dtRp33
sS'f_low'
p34
F1268.9000000000001
sS'T_Sys_Right'
p35
g4
(g6
S'\xdb\xa3\x95\xeb\x0b\xa5p@'
tRp36
sS'f_high'
p37
F1271.9000000000001
sS'col-density'
p38
g4
(g6
S'\x8a\xb7\xaeu\xe6\xff>D'
tRp39
s.