(dp1
S'n_obs'
p2
I87
sS'dispersion'
p3
cnumpy.core.multiarray
scalar
p4
(cnumpy
dtype
p5
(S'f8'
I0
I1
tRp6
(I3
S'<'
NNNI-1
I-1
I0
tbS'_\xd2\x88t\xea!"@'
tRp7
sS'b'
F18
sS'n_cal'
p8
I9
sS'vel-center'
p9
g4
(g6
S'\x84\x05\xa0Fs,\x06@'
tRp10
sS'rec-success'
p11
I01
sS'unixtime'
p12
F1399289781.237469
sS'G_Right'
p13
g4
(g6
S'$\xc3\xcc\xab\x06\x04\xff?'
tRp14
sS'l'
g4
(g6
S'\x80]K\xd0<\x1e\x15@'
tRp15
sS'G_Left'
p16
g4
(g6
S'\xf1l\x021\xfc\x81\xe0?'
tRp17
sS'T_Sys_Left'
p18
g4
(g6
S'\xab\xbbL\xf1\x9e\x04o@'
tRp19
sS'jd'
p20
F2456782.983576389
sS'lst'
p21
g4
(g6
S'\x00\x90c\xbf\xbaX2@'
tRp22
sS'vel-peaks'
p23
cnumpy.core.multiarray
_reconstruct
p24
(cnumpy
ndarray
p25
(I0
tS'b'
tRp26
(I1
(I1
tg6
I00
S'\xd0C\xa0!\xb5:\n@'
tbsS'grid'
p27
(I9
I7
tp28
sS'fname'
p29
S'data_l_005.28_b_018.00_grid_009_007'
p30
sS'time'
p31
ctime
struct_time
p32
((I2014
I5
I5
I4
I36
I21
I0
I125
I1
t(dtRp33
sS'f_low'
p34
F1268.9000000000001
sS'T_Sys_Right'
p35
g4
(g6
S'\x83\xa2\x82h`tp@'
tRp36
sS'f_high'
p37
F1271.9000000000001
sS'col-density'
p38
g4
(g6
S',\x92\xa2\xf4O\xb7VD'
tRp39
s.