(dp1
S'n_obs'
p2
I87
sS'dispersion'
p3
cnumpy.core.multiarray
scalar
p4
(cnumpy
dtype
p5
(S'f8'
I0
I1
tRp6
(I3
S'<'
NNNI-1
I-1
I0
tbS'\xc9\xbe\x9e\xd9F\xc6%@'
tRp7
sS'b'
F44
sS'n_cal'
p8
I9
sS'vel-center'
p9
g4
(g6
S'\xce\x1b\x90!\x03>\x03\xc0'
tRp10
sS'rec-success'
p11
I01
sS'unixtime'
p12
F1399192256.6962211
sS'G_Right'
p13
g4
(g6
S'O\xb4\xdb,ad\xff?'
tRp14
sS'l'
g4
(g6
S'\xac)W R\x1eu@'
tRp15
sS'G_Left'
p16
g4
(g6
S'+\xd4E$QO\xe0?'
tRp17
sS'T_Sys_Left'
p18
g4
(g6
S'\x13/\xf9!\x96Gp@'
tRp19
sS'jd'
p20
F2456781.8548148149
sS'lst'
p21
g4
(g6
S'\x00\x00\x9a\xe6B].@'
tRp22
sS'vel-peaks'
p23
cnumpy.core.multiarray
_reconstruct
p24
(cnumpy
ndarray
p25
(I0
tS'b'
tRp26
(I1
(I1
tg6
I00
S'\xfc\xd7!uVN\x0b\xc0'
tbsS'grid'
p27
(I22
I46
tp28
sS'fname'
p29
S'data_l_337.90_b_044.00_grid_022_046'
p30
sS'time'
p31
ctime
struct_time
p32
((I2014
I5
I4
I1
I30
I56
I6
I124
I1
t(dtRp33
sS'f_low'
p34
F1268.9000000000001
sS'T_Sys_Right'
p35
g4
(g6
S'\xeb2H\x06\x7f\xc0k@'
tRp36
sS'f_high'
p37
F1271.9000000000001
sS'col-density'
p38
g4
(g6
S'\x14N\x9c\x10\x99\xa4CD'
tRp39
s.