(dp1
S'n_obs'
p2
I87
sS'dispersion'
p3
cnumpy.core.multiarray
scalar
p4
(cnumpy
dtype
p5
(S'f8'
I0
I1
tRp6
(I3
S'<'
NNNI-1
I-1
I0
tbS'\x8a\xc1\xea\xe9\x03\n!@'
tRp7
sS'b'
F20
sS'n_cal'
p8
I9
sS'vel-center'
p9
g4
(g6
S'd\xa3\xf7\xb8l\xc7\xe5?'
tRp10
sS'rec-success'
p11
I01
sS'unixtime'
p12
F1399265430.5110421
sS'G_Right'
p13
g4
(g6
S'\x8f\x1b;y\xdf\xf4\xff?'
tRp14
sS'l'
g4
(g6
S' \xa8g\xd1\xb7\x81n@'
tRp15
sS'G_Left'
p16
g4
(g6
S'\xbe\xbeM3\x92\x05\xe0?'
tRp17
sS'T_Sys_Left'
p18
g4
(g6
S'l\xeb{\xacV\xa9q@'
tRp19
sS'jd'
p20
F2456782.7017361112
sS'lst'
p21
g4
(g6
S"\x00 \x18;\xb9 '@"
tRp22
sS'vel-peaks'
p23
cnumpy.core.multiarray
_reconstruct
p24
(cnumpy
ndarray
p25
(I0
tS'b'
tRp26
(I1
(I1
tg6
I00
S'\x00\xfa\x96\x9f\x1dd\x06\xc0'
tbsS'grid'
p27
(I10
I16
tp28
sS'fname'
p29
S'data_l_244.05_b_020.00_grid_010_016'
p30
sS'time'
p31
ctime
struct_time
p32
((I2014
I5
I4
I21
I50
I30
I6
I124
I1
t(dtRp33
sS'f_low'
p34
F1268.9000000000001
sS'T_Sys_Right'
p35
g4
(g6
S'\xea\x0cC\xb3Y^p@'
tRp36
sS'f_high'
p37
F1271.9000000000001
sS'col-density'
p38
g4
(g6
S"\x95\x01'>\xa9\xe1@D"
tRp39
s.