(dp1
S'n_obs'
p2
I174
sS'dispersion'
p3
cnumpy.core.multiarray
scalar
p4
(cnumpy
dtype
p5
(S'f8'
I0
I1
tRp6
(I3
S'<'
NNNI-1
I-1
I0
tbS'Z\xc4\xe4\x94\x9b\x936@'
tRp7
sS'b'
F4
sS'fname'
p8
S'data_l_222.03_b_004.00_grid_002_006'
p9
sS'vel-center'
p10
g4
(g6
S'\x91\x00%s=]A@'
tRp11
sS'rec-success'
p12
I01
sS'unixtime'
p13
F1398648180
sS'G_Right'
p14
g4
(g6
S'n\xca\xfc}\x1c.\xfc?'
tRp15
sS'l'
g4
(g6
S'$\x99`\x0c\xf0\xc0k@'
tRp16
sS'G_Left'
p17
g4
(g6
S'\xe8\xbaL\xca8+\xe2?'
tRp18
sS'T_Sys_Left'
p19
g4
(g6
S'`h\xa3\x98xhq@'
tRp20
sS'jd'
p21
F2456775.5576388887
sS'lst'
p22
g4
(g6
S'\x00@r\xefh\x8b\x1e@'
tRp23
sS'vel-peaks'
p24
cnumpy.core.multiarray
_reconstruct
p25
(cnumpy
ndarray
p26
(I0
tS'b'
tRp27
(I1
(I3
tg6
I00
S'\xfc\xba\xc6b\xc6eM@\x9a\x1fK\xb4E\xfd3@\xe0;B\x15\xcf\x83\xf4?'
tbsS'grid'
p28
(I2
I6
tp29
sS'n_cal'
p30
I18
sS'time'
p31
ctime
struct_time
p32
((I2014
I4
I27
I18
I23
I0
I6
I117
I1
t(dtRp33
sS'f_low'
p34
F1268.9000000000001
sS'T_Sys_Right'
p35
g4
(g6
S'\xb2\x1c\xd9\xaf$Nv@'
tRp36
sS'f_high'
p37
F1271.9000000000001
sS'col-density'
p38
g4
(g6
S'LU\x80\xe1\xf2\xf8jD'
tRp39
s.