(dp1
S'n_obs'
p2
I87
sS'dispersion'
p3
cnumpy.core.multiarray
scalar
p4
(cnumpy
dtype
p5
(S'f8'
I0
I1
tRp6
(I3
S'<'
NNNI-1
I-1
I0
tbS'N\xf3\x858`\xd2&@'
tRp7
sS'b'
F56
sS'n_cal'
p8
I9
sS'vel-center'
p9
g4
(g6
S'e\x06\xa0\xa3\x8e\x1e\x12\xc0'
tRp10
sS'rec-success'
p11
I01
sS'unixtime'
p12
F1399111183.609215
sS'G_Right'
p13
g4
(g6
S'\x1cSF2Q_\x01@'
tRp14
sS'l'
g4
(g6
S'\xc0\x03\xfe\x9b\xb0\x0b-@'
tRp15
sS'G_Left'
p16
g4
(g6
S'\xceO\xf1\xd6\xdex\xdd?'
tRp17
sS'T_Sys_Left'
p18
g4
(g6
S'\xc0\xa4E\x92\xd7Jo@'
tRp19
sS'jd'
p20
F2456780.9164699074
sS'lst'
p21
g4
(g6
S'\x00\xe0\xfc\xac\xa7\x990@'
tRp22
sS'vel-peaks'
p23
cnumpy.core.multiarray
_reconstruct
p24
(cnumpy
ndarray
p25
(I0
tS'b'
tRp26
(I1
(I1
tg6
I00
S'\xe8\xa3s\xa0\xfb\xe9\xfc\xbf'
tbsS'grid'
p27
(I28
I46
tp28
sS'fname'
p29
S'data_l_014.52_b_056.00_grid_028_046'
p30
sS'time'
p31
ctime
struct_time
p32
((I2014
I5
I3
I2
I59
I43
I5
I123
I1
t(dtRp33
sS'f_low'
p34
F1268.9000000000001
sS'T_Sys_Right'
p35
g4
(g6
S'nYD\x96\x06wp@'
tRp36
sS'f_high'
p37
F1271.9000000000001
sS'col-density'
p38
g4
(g6
S'\xcc\xf2\x88\xf7\x1fC2D'
tRp39
s.