(dp1
S'n_obs'
p2
I87
sS'dispersion'
p3
cnumpy.core.multiarray
scalar
p4
(cnumpy
dtype
p5
(S'f8'
I0
I1
tRp6
(I3
S'<'
NNNI-1
I-1
I0
tbS'\xdan\\\x18pG+@'
tRp7
sS'b'
F48
sS'n_cal'
p8
I9
sS'vel-center'
p9
g4
(g6
S'U\x12*!\xe1a#\xc0'
tRp10
sS'rec-success'
p11
I01
sS'unixtime'
p12
F1399099238.232754
sS'G_Right'
p13
g4
(g6
S'\xa0\xf6\x029\xc0\xa1\x00@'
tRp14
sS'l'
g4
(g6
S"Z'\xf1\x01K\xffj@"
tRp15
sS'G_Left'
p16
g4
(g6
S'\x19 \xf1\xba\xc9\xc8\xde?'
tRp17
sS'T_Sys_Left'
p18
g4
(g6
S'\x82hY\x93\x02Ip@'
tRp19
sS'jd'
p20
F2456780.7782175923
sS'lst'
p21
g4
(g6
S'\x00 \xcdq\xd0\x8b*@'
tRp22
sS'vel-peaks'
p23
cnumpy.core.multiarray
_reconstruct
p24
(cnumpy
ndarray
p25
(I0
tS'b'
tRp26
(I1
(I1
tg6
I00
S'\xc0Mx\xfc\xc3\xbc\xf7\xbf'
tbsS'grid'
p27
(I24
I2
tp28
sS'fname'
p29
S'data_l_215.98_b_048.00_grid_024_002'
p30
sS'time'
p31
ctime
struct_time
p32
((I2014
I5
I2
I23
I40
I38
I4
I122
I1
t(dtRp33
sS'f_low'
p34
F1268.9000000000001
sS'T_Sys_Right'
p35
g4
(g6
S'\x83*\xec\x1eOEp@'
tRp36
sS'f_high'
p37
F1271.9000000000001
sS'col-density'
p38
g4
(g6
S'\x11p\x1c(6\xe6.D'
tRp39
s.