(dp1
S'n_obs'
p2
I87
sS'dispersion'
p3
cnumpy.core.multiarray
scalar
p4
(cnumpy
dtype
p5
(S'f8'
I0
I1
tRp6
(I3
S'<'
NNNI-1
I-1
I0
tbS'\x17\xcaGh\x19\xba1@'
tRp7
sS'b'
F64
sS'n_cal'
p8
I9
sS'vel-center'
p9
g4
(g6
S'\x9e\xf9P\xa3\xc3\xc41\xc0'
tRp10
sS'rec-success'
p11
I01
sS'unixtime'
p12
F1399277224.191714
sS'G_Right'
p13
g4
(g6
S'K\xc3\xc1\xce\xb2\x85\xfa?'
tRp14
sS'l'
g4
(g6
S'\x9c\x86\xe3U\xf8\x8bp@'
tRp15
sS'G_Left'
p16
g4
(g6
S'l\x9ceG\xf6M\xe3?'
tRp17
sS'T_Sys_Left'
p18
g4
(g6
S'\xd5\x81M\xdaP,o@'
tRp19
sS'jd'
p20
F2456782.8382407408
sS'lst'
p21
g4
(g6
S'\x00\xe0\x9fW\xaf\xb2-@'
tRp22
sS'vel-peaks'
p23
cnumpy.core.multiarray
_reconstruct
p24
(cnumpy
ndarray
p25
(I0
tS'b'
tRp26
(I1
(I1
tg6
I00
S'\x98\xf6glk\xb8\x0c\xc0'
tbsS'grid'
p27
(I32
I12
tp28
sS'fname'
p29
S'data_l_264.75_b_064.00_grid_032_012'
p30
sS'time'
p31
ctime
struct_time
p32
((I2014
I5
I5
I1
I7
I4
I0
I125
I1
t(dtRp33
sS'f_low'
p34
F1268.9000000000001
sS'T_Sys_Right'
p35
g4
(g6
S'A\xb6Z!\x90\xc4o@'
tRp36
sS'f_high'
p37
F1271.9000000000001
sS'col-density'
p38
g4
(g6
S'\x03\x8b\xb7\x8a\xa4\x8a.D'
tRp39
s.