(dp1
S'n_obs'
p2
I87
sS'dispersion'
p3
cnumpy.core.multiarray
scalar
p4
(cnumpy
dtype
p5
(S'f8'
I0
I1
tRp6
(I3
S'<'
NNNI-1
I-1
I0
tbS'}\x16\xae!E\x0b\x16@'
tRp7
sS'b'
F52
sS'n_cal'
p8
I9
sS'vel-center'
p9
g4
(g6
S'f\xc2\xed\xf7\xa5>\x14\xc0'
tRp10
sS'rec-success'
p11
I01
sS'unixtime'
p12
F1399105539.4752221
sS'G_Right'
p13
g4
(g6
S'\xd6\xc8\x98\xb6\x9b\xe3\x00@'
tRp14
sS'l'
g4
(g6
S'\x19\xad\xe6hL7s@'
tRp15
sS'G_Left'
p16
g4
(g6
S'\x90 \xd5\\\xbfP\xde?'
tRp17
sS'T_Sys_Left'
p18
g4
(g6
S'\xd3\xf0I\xbb\x040p@'
tRp19
sS'jd'
p20
F2456780.8511458333
sS'lst'
p21
g4
(g6
S'\x00@\xef\xf6h\x0e.@'
tRp22
sS'vel-peaks'
p23
cnumpy.core.multiarray
_reconstruct
p24
(cnumpy
ndarray
p25
(I0
tS'b'
tRp26
(I1
(I0
tg6
I00
S''
tbsS'grid'
p27
(I26
I30
tp28
sS'fname'
p29
S'data_l_307.46_b_052.00_grid_026_030'
p30
sS'time'
p31
ctime
struct_time
p32
((I2014
I5
I3
I1
I25
I39
I5
I123
I1
t(dtRp33
sS'f_low'
p34
F1268.9000000000001
sS'T_Sys_Right'
p35
g4
(g6
S'D\x8b\xc3X\xcd\x95l@'
tRp36
sS'f_high'
p37
F1271.9000000000001
sS'col-density'
p38
g4
(g6
S']R*\x10\xcd\x0b\x18D'
tRp39
s.