(dp1
S'n_obs'
p2
I87
sS'dispersion'
p3
cnumpy.core.multiarray
scalar
p4
(cnumpy
dtype
p5
(S'f8'
I0
I1
tRp6
(I3
S'<'
NNNI-1
I-1
I0
tbS"y!\xd1\x8d\xdc\xb7'@"
tRp7
sS'b'
F12
sS'n_cal'
p8
I9
sS'vel-center'
p9
g4
(g6
S'\xd5 n&VZ @'
tRp10
sS'rec-success'
p11
I01
sS'unixtime'
p12
F1399263729.0018461
sS'G_Right'
p13
g4
(g6
S'\xb9M/\x87\x01\x07\xff?'
tRp14
sS'l'
g4
(g6
S'\\\x1dse\x04\xd4m@'
tRp15
sS'G_Left'
p16
g4
(g6
S'OrxRf\x80\xe0?'
tRp17
sS'T_Sys_Left'
p18
g4
(g6
S'\x05R8QG p@'
tRp19
sS'jd'
p20
F2456782.6820486113
sS'lst'
p21
g4
(g6
S'\x00\xe0\xfe%$.&@'
tRp22
sS'vel-peaks'
p23
cnumpy.core.multiarray
_reconstruct
p24
(cnumpy
ndarray
p25
(I0
tS'b'
tRp26
(I1
(I1
tg6
I00
S'\x00\xbd\xac\xfe\xed{\xfd?'
tbsS'grid'
p27
(I6
I14
tp28
sS'fname'
p29
S'data_l_238.63_b_012.00_grid_006_014'
p30
sS'time'
p31
ctime
struct_time
p32
((I2014
I5
I4
I21
I22
I9
I6
I124
I1
t(dtRp33
sS'f_low'
p34
F1268.9000000000001
sS'T_Sys_Right'
p35
g4
(g6
S'\xbd7\x01T\x16fq@'
tRp36
sS'f_high'
p37
F1271.9000000000001
sS'col-density'
p38
g4
(g6
S'W\x01\xf3\xf7\xf1y@D'
tRp39
s.