(dp1
S'n_obs'
p2
I87
sS'dispersion'
p3
cnumpy.core.multiarray
scalar
p4
(cnumpy
dtype
p5
(S'f8'
I0
I1
tRp6
(I3
S'<'
NNNI-1
I-1
I0
tbS'\x18E\xc5\xf0\xb9\xe9!@'
tRp7
sS'b'
F26
sS'n_cal'
p8
I9
sS'vel-center'
p9
g4
(g6
S'\nqV\xf8#\xb1\x03@'
tRp10
sS'rec-success'
p11
I01
sS'unixtime'
p12
F1399291417.714756
sS'G_Right'
p13
g4
(g6
S'3i\xb4d\xf5k\xfb?'
tRp14
sS'l'
g4
(g6
S'\xc0b\xd8\tY\xc61@'
tRp15
sS'G_Left'
p16
g4
(g6
S'>\xcf\xd3\xa0\xdc\xab\xe2?'
tRp17
sS'T_Sys_Left'
p18
g4
(g6
S'\xc9S\xc3m\xf8\x93n@'
tRp19
sS'jd'
p20
F2456783.002511574
sS'lst'
p21
g4
(g6
S'\x00\xc0\x90\xc2b\xcd2@'
tRp22
sS'vel-peaks'
p23
cnumpy.core.multiarray
_reconstruct
p24
(cnumpy
ndarray
p25
(I0
tS'b'
tRp26
(I1
(I1
tg6
I00
S'\xc8\x18\x1beP\x88\x06@'
tbsS'grid'
p27
(I13
I1
tp28
sS'fname'
p29
S'data_l_017.77_b_026.00_grid_013_001'
p30
sS'time'
p31
ctime
struct_time
p32
((I2014
I5
I5
I5
I3
I37
I0
I125
I1
t(dtRp33
sS'f_low'
p34
F1268.9000000000001
sS'T_Sys_Right'
p35
g4
(g6
S'\xbd\xdb\xc2\xe7^\xd4o@'
tRp36
sS'f_high'
p37
F1271.9000000000001
sS'col-density'
p38
g4
(g6
S'\xc7\x98\x7fpR\x0eDD'
tRp39
s.