(dp1
S'n_obs'
p2
I87
sS'dispersion'
p3
cnumpy.core.multiarray
scalar
p4
(cnumpy
dtype
p5
(S'f8'
I0
I1
tRp6
(I3
S'<'
NNNI-1
I-1
I0
tbS'\x9er7K\x94\x8b-@'
tRp7
sS'b'
F56
sS'n_cal'
p8
I9
sS'vel-center'
p9
g4
(g6
S'Z\x06\x8a\xbf&\xaa \xc0'
tRp10
sS'rec-success'
p11
I01
sS'unixtime'
p12
F1399109566.6841381
sS'G_Right'
p13
g4
(g6
S'\xe7\x06\x8c\x0c\xe2\xd0\x01@'
tRp14
sS'l'
g4
(g6
S' Y!\xed5Gt@'
tRp15
sS'G_Left'
p16
g4
(g6
S'eY+\xe2\x00\xbd\xdc?'
tRp17
sS'T_Sys_Left'
p18
g4
(g6
S'\xa3\xd7\x90\xfa6\xedn@'
tRp19
sS'jd'
p20
F2456780.8977546296
sS'lst'
p21
g4
(g6
S'\x00@\x8e~Z&0@'
tRp22
sS'vel-peaks'
p23
cnumpy.core.multiarray
_reconstruct
p24
(cnumpy
ndarray
p25
(I0
tS'b'
tRp26
(I1
(I1
tg6
I00
S'j:\xa6\xc4W-\x04\xc0'
tbsS'grid'
p27
(I28
I32
tp28
sS'fname'
p29
S'data_l_324.45_b_056.00_grid_028_032'
p30
sS'time'
p31
ctime
struct_time
p32
((I2014
I5
I3
I2
I32
I46
I5
I123
I1
t(dtRp33
sS'f_low'
p34
F1268.9000000000001
sS'T_Sys_Right'
p35
g4
(g6
S'\xd1\xf9\x84N\x089p@'
tRp36
sS'f_high'
p37
F1271.9000000000001
sS'col-density'
p38
g4
(g6
S'\xb0\x85!\xa4\x8e\x121D'
tRp39
s.