(dp1
S'n_obs'
p2
I87
sS'dispersion'
p3
cnumpy.core.multiarray
scalar
p4
(cnumpy
dtype
p5
(S'f8'
I0
I1
tRp6
(I3
S'<'
NNNI-1
I-1
I0
tbS'~\xa8W1\x9c10@'
tRp7
sS'b'
F44
sS'n_cal'
p8
I9
sS'vel-center'
p9
g4
(g6
S'\xb9\xf3|/\xadd\xf7\xbf'
tRp10
sS'rec-success'
p11
I01
sS'unixtime'
p12
F1399191340.9398329
sS'G_Right'
p13
g4
(g6
S'M\xfb\xa2.\xfd\x10\x00@'
tRp14
sS'l'
g4
(g6
S'\xfc\xa7\x7f]p\xbas@'
tRp15
sS'G_Left'
p16
g4
(g6
S'4\xd1\x9a\x90)\xde\xdf?'
tRp17
sS'T_Sys_Left'
p18
g4
(g6
S'Tke\xc4\xb5Tp@'
tRp19
sS'jd'
p20
F2456781.8442129632
sS'lst'
p21
g4
(g6
S'\x00 l\x0c\xa1\xda-@'
tRp22
sS'vel-peaks'
p23
cnumpy.core.multiarray
_reconstruct
p24
(cnumpy
ndarray
p25
(I0
tS'b'
tRp26
(I1
(I2
tg6
I00
S'\xcc\x9aZ\x85g\x90:@\xa4\xbc\xd9.km\x11\xc0'
tbsS'grid'
p27
(I22
I38
tp28
sS'fname'
p29
S'data_l_315.65_b_044.00_grid_022_038'
p30
sS'time'
p31
ctime
struct_time
p32
((I2014
I5
I4
I1
I15
I40
I6
I124
I1
t(dtRp33
sS'f_low'
p34
F1268.9000000000001
sS'T_Sys_Right'
p35
g4
(g6
S'\x90/=\xb3=\x0bp@'
tRp36
sS'f_high'
p37
F1271.9000000000001
sS'col-density'
p38
g4
(g6
S'm{\x14\x18%\xcbCD'
tRp39
s.