(dp1
S'n_obs'
p2
I87
sS'dispersion'
p3
cnumpy.core.multiarray
scalar
p4
(cnumpy
dtype
p5
(S'f8'
I0
I1
tRp6
(I3
S'<'
NNNI-1
I-1
I0
tbS'\x84b\xb6\xcd\x89\xa1(@'
tRp7
sS'b'
F60
sS'n_cal'
p8
I9
sS'vel-center'
p9
g4
(g6
S'ru\x0b+}\xa1\x1f\xc0'
tRp10
sS'rec-success'
p11
I01
sS'unixtime'
p12
F1399111897.3179159
sS'G_Right'
p13
g4
(g6
S'M+\x188t\x03\x01@'
tRp14
sS'l'
g4
(g6
S'\x00\x00\x00\x00\x00\xa0t@'
tRp15
sS'G_Left'
p16
g4
(g6
S'\x03\x07\xa5\xda\x00\x18\xde?'
tRp17
sS'T_Sys_Left'
p18
g4
(g6
S'\x0b\xf6,\xd2Z\xf8o@'
tRp19
sS'jd'
p20
F2456780.9247337962
sS'lst'
p21
g4
(g6
S'\x00Pt<\x91\xcc0@'
tRp22
sS'vel-peaks'
p23
cnumpy.core.multiarray
_reconstruct
p24
(cnumpy
ndarray
p25
(I0
tS'b'
tRp26
(I1
(I1
tg6
I00
S"*'*\xf1\xc1\x8e\xfd\xbf"
tbsS'grid'
p27
(I30
I30
tp28
sS'fname'
p29
S'data_l_330.00_b_060.00_grid_030_030'
p30
sS'time'
p31
ctime
struct_time
p32
((I2014
I5
I3
I3
I11
I37
I5
I123
I1
t(dtRp33
sS'f_low'
p34
F1268.9000000000001
sS'T_Sys_Right'
p35
g4
(g6
S'\xd9\xb4\x8d\x01l\x85q@'
tRp36
sS'f_high'
p37
F1271.9000000000001
sS'col-density'
p38
g4
(g6
S'.\xd2\x95=\x97\xa3-D'
tRp39
s.