(dp1
S'n_obs'
p2
I87
sS'dispersion'
p3
cnumpy.core.multiarray
scalar
p4
(cnumpy
dtype
p5
(S'f8'
I0
I1
tRp6
(I3
S'<'
NNNI-1
I-1
I0
tbS'\xd0+\xc3\xac\xc2\x122@'
tRp7
sS'b'
F68
sS'n_cal'
p8
I9
sS'vel-center'
p9
g4
(g6
S'\x04\x9b_\x17Tp7\xc0'
tRp10
sS'rec-success'
p11
I01
sS'unixtime'
p12
F1399278670.5280221
sS'G_Right'
p13
g4
(g6
S' r\xdc\xc5\xbdP\xf4?'
tRp14
sS'l'
g4
(g6
S',u\x98\x19\xb1\x95k@'
tRp15
sS'G_Left'
p16
g4
(g6
S'\x99\x9a\x13\n\xdb3\xe9?'
tRp17
sS'T_Sys_Left'
p18
g4
(g6
S'\xda\x1c/y<)o@'
tRp19
sS'jd'
p20
F2456782.854976852
sS'lst'
p21
g4
(g6
S'\x00@6\xbd\xe6\x80.@'
tRp22
sS'vel-peaks'
p23
cnumpy.core.multiarray
_reconstruct
p24
(cnumpy
ndarray
p25
(I0
tS'b'
tRp26
(I1
(I0
tg6
I00
S''
tbsS'grid'
p27
(I34
I2
tp28
sS'fname'
p29
S'data_l_220.68_b_068.00_grid_034_002'
p30
sS'time'
p31
ctime
struct_time
p32
((I2014
I5
I5
I1
I31
I10
I0
I125
I1
t(dtRp33
sS'f_low'
p34
F1268.9000000000001
sS'T_Sys_Right'
p35
g4
(g6
S'Qh\x06N\x11\x13n@'
tRp36
sS'f_high'
p37
F1271.9000000000001
sS'col-density'
p38
g4
(g6
S'\x88\x0b\x17\x16:f\x1cD'
tRp39
s.