(dp1
S'n_obs'
p2
I87
sS'dispersion'
p3
cnumpy.core.multiarray
scalar
p4
(cnumpy
dtype
p5
(S'f8'
I0
I1
tRp6
(I3
S'<'
NNNI-1
I-1
I0
tbS'\x94\x95\xc9+\xf1[$@'
tRp7
sS'b'
F48
sS'n_cal'
p8
I9
sS'vel-center'
p9
g4
(g6
S'\x9d\x9bL\x1a\xb0{\t\xc0'
tRp10
sS'rec-success'
p11
I01
sS'unixtime'
p12
F1399196234.2948289
sS'G_Right'
p13
g4
(g6
S'-n**\xbd\xb7\xfa?'
tRp14
sS'l'
g4
(g6
S'(\xd8M\x17\x84\x17v@'
tRp15
sS'G_Left'
p16
g4
(g6
S'B\xac\x92S\xce)\xe3?'
tRp17
sS'T_Sys_Left'
p18
g4
(g6
S'\x16\x96\xb4\xba\xf0\x92p@'
tRp19
sS'jd'
p20
F2456781.9008564814
sS'lst'
p21
g4
(g6
S'\x00`\x8b\x00IJ0@'
tRp22
sS'vel-peaks'
p23
cnumpy.core.multiarray
_reconstruct
p24
(cnumpy
ndarray
p25
(I0
tS'b'
tRp26
(I1
(I1
tg6
I00
S'\xc0\xe2\xa4\xbdd\xf2\xd5\xbf'
tbsS'grid'
p27
(I24
I48
tp28
sS'fname'
p29
S'data_l_353.47_b_048.00_grid_024_048'
p30
sS'time'
p31
ctime
struct_time
p32
((I2014
I5
I4
I2
I37
I14
I6
I124
I1
t(dtRp33
sS'f_low'
p34
F1268.9000000000001
sS'T_Sys_Right'
p35
g4
(g6
S'q\x13\x0f\xf7\xa0\x13p@'
tRp36
sS'f_high'
p37
F1271.9000000000001
sS'col-density'
p38
g4
(g6
S'\x82\rYr\xdd|@D'
tRp39
s.