(dp1
S'n_obs'
p2
I87
sS'dispersion'
p3
cnumpy.core.multiarray
scalar
p4
(cnumpy
dtype
p5
(S'f8'
I0
I1
tRp6
(I3
S'<'
NNNI-1
I-1
I0
tbS'\x86,\x85\x05\xc3\x1b3@'
tRp7
sS'b'
F8
sS'n_cal'
p8
I9
sS'vel-center'
p9
g4
(g6
S'\\8~\t\xbd\xea3@'
tRp10
sS'rec-success'
p11
I01
sS'unixtime'
p12
F1399176398.030349
sS'G_Right'
p13
g4
(g6
S'2\xf7V\x0f\x91\xdf\xfd?'
tRp14
sS'l'
F210
sS'G_Left'
p15
g4
(g6
S'\xd7\xfb\x97\x8c\x98#\xe1?'
tRp16
sS'T_Sys_Left'
p17
g4
(g6
S'\xa7\xe7\xe6Yc\xe9m@'
tRp18
sS'jd'
p19
F2456781.6712731482
sS'lst'
p20
g4
(g6
S'\x00\xa0\xaf\xf2\xb9\x87%@'
tRp21
sS'vel-peaks'
p22
cnumpy.core.multiarray
_reconstruct
p23
(cnumpy
ndarray
p24
(I0
tS'b'
tRp25
(I1
(I2
tg6
I00
S'\x92Vg\xc94\x07C@\xd8\x1a\xcb\xb0$\xd6#@'
tbsS'grid'
p26
(I4
I0
tp27
sS'fname'
p28
S'data_l_210.00_b_008.00_grid_004_000'
p29
sS'time'
p30
ctime
struct_time
p31
((I2014
I5
I3
I21
I6
I38
I5
I123
I1
t(dtRp32
sS'f_low'
p33
F1268.9000000000001
sS'T_Sys_Right'
p34
g4
(g6
S'E\xfc\x86\xc7x\x02p@'
tRp35
sS'f_high'
p36
F1271.9000000000001
sS'col-density'
p37
g4
(g6
S'`\xe0\xddd\xed\xb0XD'
tRp38
s.