(dp1
S'n_obs'
p2
I174
sS'dispersion'
p3
cnumpy.core.multiarray
scalar
p4
(cnumpy
dtype
p5
(S'f8'
I0
I1
tRp6
(I3
S'<'
NNNI-1
I-1
I0
tbS'g)\x8a-\x91\xbc4@'
tRp7
sS'b'
F2
sS'fname'
p8
S'data_l_219.90_b_002.00_grid_001_080'
p9
sS'vel-center'
p10
g4
(g6
S'\xdb\x9f9\xd66\xcaA@'
tRp11
sS'rec-success'
p12
I01
sS'unixtime'
p13
F1398571260
sS'G_Right'
p14
g4
(g6
S"zT\x93X\x8d'\xfb?"
tRp15
sS'l'
g4
(g6
S'-l\xdf\x0e\xe1|k@'
tRp16
sS'G_Left'
p17
g4
(g6
S'\x0c2\x15\xd9\xe5\xda\xe2?'
tRp18
sS'T_Sys_Left'
p19
g4
(g6
S'\x82\xda\x1f\xc2ZY\xa1@'
tRp20
sS'jd'
p21
F2456774.6673611109
sS'lst'
p22
g4
(g6
S'\x00 \xd0\x05\x05l$@'
tRp23
sS'vel-peaks'
p24
cnumpy.core.multiarray
_reconstruct
p25
(cnumpy
ndarray
p26
(I0
tS'b'
tRp27
(I1
(I2
tg6
I00
S'\x9a\xa4\x82\x93\x18\x0cK@L\xc7\x12C\xc0\xda4@'
tbsS'grid'
p28
(I1
I80
tp29
sS'n_cal'
p30
I18
sS'time'
p31
ctime
struct_time
p32
((I2014
I4
I26
I21
I1
I0
I5
I116
I1
t(dtRp33
sS'f_low'
p34
F1268.9000000000001
sS'T_Sys_Right'
p35
g4
(g6
S'dS\x11\xbe\xd6a`@'
tRp36
sS'f_high'
p37
F1271.9000000000001
sS'col-density'
p38
g4
(g6
S'\x05\x1b\x1bN\x19\x93\x93D'
tRp39
s.