(dp1
S'n_obs'
p2
I87
sS'dispersion'
p3
cnumpy.core.multiarray
scalar
p4
(cnumpy
dtype
p5
(S'f8'
I0
I1
tRp6
(I3
S'<'
NNNI-1
I-1
I0
tbS'\xbc\xc8\x01{\xc5x!@'
tRp7
sS'b'
F26
sS'n_cal'
p8
I9
sS'vel-center'
p9
g4
(g6
S'\x8b\xb3.\x02\xa1=\xe7?'
tRp10
sS'rec-success'
p11
I01
sS'unixtime'
p12
F1399291870.6996651
sS'G_Right'
p13
g4
(g6
S'\xae?\x825B{\xfd?'
tRp14
sS'l'
g4
(g6
S'\x80\xdbsbz\xbf!@'
tRp15
sS'G_Left'
p16
g4
(g6
S'\xa9\xf7s\xf0\xe8]\xe1?'
tRp17
sS'T_Sys_Left'
p18
g4
(g6
S'82O@I\x02o@'
tRp19
sS'jd'
p20
F2456783.0077546295
sS'lst'
p21
g4
(g6
S'\x00\x00\xa8\xf3\xaf\xed2@'
tRp22
sS'vel-peaks'
p23
cnumpy.core.multiarray
_reconstruct
p24
(cnumpy
ndarray
p25
(I0
tS'b'
tRp26
(I1
(I1
tg6
I00
S'0\xc3\x91n&g\x02@'
tbsS'grid'
p27
(I13
I5
tp28
sS'fname'
p29
S'data_l_008.87_b_026.00_grid_013_005'
p30
sS'time'
p31
ctime
struct_time
p32
((I2014
I5
I5
I5
I11
I10
I0
I125
I1
t(dtRp33
sS'f_low'
p34
F1268.9000000000001
sS'T_Sys_Right'
p35
g4
(g6
S'\xca\x83\x08\xf6\x92\xdco@'
tRp36
sS'f_high'
p37
F1271.9000000000001
sS'col-density'
p38
g4
(g6
S'<P\x94E\x10\xedPD'
tRp39
s.