(dp1
S'n_obs'
p2
I87
sS'dispersion'
p3
cnumpy.core.multiarray
scalar
p4
(cnumpy
dtype
p5
(S'f8'
I0
I1
tRp6
(I3
S'<'
NNNI-1
I-1
I0
tbS'\x18\x01\xc1&\xf8I!@'
tRp7
sS'b'
F22
sS'n_cal'
p8
I9
sS'vel-center'
p9
g4
(g6
S'W\x0c\xf7~\xa89\x01@'
tRp10
sS'rec-success'
p11
I01
sS'unixtime'
p12
F1399290701.886507
sS'G_Right'
p13
g4
(g6
S'\x9a\x93\x9c\xa3\xba1\xfe?'
tRp14
sS'l'
g4
(g6
S'\xe0\xff+\xf1\xe6m"@'
tRp15
sS'G_Left'
p16
g4
(g6
S'\xb1\xb9AW\xf5\xf4\xe0?'
tRp17
sS'T_Sys_Left'
p18
g4
(g6
S'\xa9n\xed7"\xc6n@'
tRp19
sS'jd'
p20
F2456782.9942245372
sS'lst'
p21
g4
(g6
S'\x00`\xf4\xb0T\x9a2@'
tRp22
sS'vel-peaks'
p23
cnumpy.core.multiarray
_reconstruct
p24
(cnumpy
ndarray
p25
(I0
tS'b'
tRp26
(I1
(I1
tg6
I00
S'\x10\x93\x04\xcd-\x0e\x08@'
tbsS'grid'
p27
(I11
I5
tp28
sS'fname'
p29
S'data_l_009.21_b_022.00_grid_011_005'
p30
sS'time'
p31
ctime
struct_time
p32
((I2014
I5
I5
I4
I51
I41
I0
I125
I1
t(dtRp33
sS'f_low'
p34
F1268.9000000000001
sS'T_Sys_Right'
p35
g4
(g6
S'\xbe\xdeX^\x96\xc9p@'
tRp36
sS'f_high'
p37
F1271.9000000000001
sS'col-density'
p38
g4
(g6
S'\xbfy\x99+\xc7\xbcRD'
tRp39
s.