(dp1
S'n_obs'
p2
I87
sS'dispersion'
p3
cnumpy.core.multiarray
scalar
p4
(cnumpy
dtype
p5
(S'f8'
I0
I1
tRp6
(I3
S'<'
NNNI-1
I-1
I0
tbS'\xbf\x14\x1d\xef\xd0\r$@'
tRp7
sS'b'
F44
sS'n_cal'
p8
I9
sS'vel-center'
p9
g4
(g6
S'\x14\xe1Fwo\x99\x1b\xc0'
tRp10
sS'rec-success'
p11
I01
sS'unixtime'
p12
F1399096262.3742809
sS'G_Right'
p13
g4
(g6
S'\xf9N\xdd\xf2C\x85\x01@'
tRp14
sS'l'
g4
(g6
S'\x82BC\xa4\xd2Ul@'
tRp15
sS'G_Left'
p16
g4
(g6
S',\x85\xad5\t9\xdd?'
tRp17
sS'T_Sys_Left'
p18
g4
(g6
S'\xe6pk\xb3[sp@'
tRp19
sS'jd'
p20
F2456780.7437731484
sS'lst'
p21
g4
(g6
S'\x00\x80\xc4\xeef\xe3(@'
tRp22
sS'vel-peaks'
p23
cnumpy.core.multiarray
_reconstruct
p24
(cnumpy
ndarray
p25
(I0
tS'b'
tRp26
(I1
(I1
tg6
I00
S'p\x0e\xe6E\xa3\x86\r\xc0'
tbsS'grid'
p27
(I22
I6
tp28
sS'fname'
p29
S'data_l_226.68_b_044.00_grid_022_006'
p30
sS'time'
p31
ctime
struct_time
p32
((I2014
I5
I2
I22
I51
I2
I4
I122
I1
t(dtRp33
sS'f_low'
p34
F1268.9000000000001
sS'T_Sys_Right'
p35
g4
(g6
S'N\xf3\xcf\xe0\x8d\xa1o@'
tRp36
sS'f_high'
p37
F1271.9000000000001
sS'col-density'
p38
g4
(g6
S'0\xb6\xb7\xec;\x9e0D'
tRp39
s.