(dp1
S'n_obs'
p2
I87
sS'dispersion'
p3
cnumpy.core.multiarray
scalar
p4
(cnumpy
dtype
p5
(S'f8'
I0
I1
tRp6
(I3
S'<'
NNNI-1
I-1
I0
tbS'\x1d\xef,\x15}\x9d+@'
tRp7
sS'b'
F12
sS'n_cal'
p8
I9
sS'vel-center'
p9
g4
(g6
S'\x00\x8d\\\xee\xa32+@'
tRp10
sS'rec-success'
p11
I01
sS'unixtime'
p12
F1398835501
sS'G_Right'
p13
g4
(g6
S'\xe3\xd4C\x8f\x16\x05\xfc?'
tRp14
sS'l'
g4
(g6
S'\xd4\xcbvHL\xcel@'
tRp15
sS'G_Left'
p16
g4
(g6
S'G8\r\x86\xd2E\xe2?'
tRp17
sS'T_Sys_Left'
p18
g4
(g6
S'\xb3\x96\xc4\xd1;\xcfp@'
tRp19
sS'jd'
p20
F2456777.7257060185
sS'lst'
p21
g4
(g6
S"\x00 \x13\xe5\xda\x9f'@"
tRp22
sS'vel-peaks'
p23
cnumpy.core.multiarray
_reconstruct
p24
(cnumpy
ndarray
p25
(I0
tS'b'
tRp26
(I1
(I2
tg6
I00
S'\xa4\x96\xb8B\x1b\xa91@\xa0uf%\x1cA\xfe?'
tbsS'grid'
p27
(I6
I10
tp28
sS'fname'
p29
S'data_l_230.45_b_012.00_grid_006_010'
p30
sS'time'
p31
ctime
struct_time
p32
((I2014
I4
I29
I22
I25
I1
I1
I119
I1
t(dtRp33
sS'f_low'
p34
F1268.9000000000001
sS'T_Sys_Right'
p35
g4
(g6
S')\x9bW\xf0\npv@'
tRp36
sS'f_high'
p37
F1271.9000000000001
sS'col-density'
p38
g4
(g6
S'nF&\xf9\xe8\xd5ID'
tRp39
s.