(dp1
S'n_obs'
p2
I87
sS'dispersion'
p3
cnumpy.core.multiarray
scalar
p4
(cnumpy
dtype
p5
(S'f8'
I0
I1
tRp6
(I3
S'<'
NNNI-1
I-1
I0
tbS'\xd5\xfd\x1c\xbdU\xd3!@'
tRp7
sS'b'
F30
sS'n_cal'
p8
I9
sS'vel-center'
p9
g4
(g6
S'0\xc6\xa6\xb9]\x1d\xf8?'
tRp10
sS'rec-success'
p11
I01
sS'unixtime'
p12
F1399292818.612107
sS'G_Right'
p13
g4
(g6
S'\x97\x83a98X\xf9?'
tRp14
sS'l'
g4
(g6
S'\xc0\xd9\xd3\x8b\xc2$*@'
tRp15
sS'G_Left'
p16
g4
(g6
S'\xa4\xd4\xf2\xd6\x973\xe4?'
tRp17
sS'T_Sys_Left'
p18
g4
(g6
S' \xca\xe4Z\xb7(o@'
tRp19
sS'jd'
p20
F2456783.0187268518
sS'lst'
p21
g4
(g6
S'\x00\x90\xfd\x03I13@'
tRp22
sS'vel-peaks'
p23
cnumpy.core.multiarray
_reconstruct
p24
(cnumpy
ndarray
p25
(I0
tS'b'
tRp26
(I1
(I1
tg6
I00
S'\x10_$O\xe0H\n@'
tbsS'grid'
p27
(I15
I3
tp28
sS'fname'
p29
S'data_l_013.07_b_030.00_grid_015_003'
p30
sS'time'
p31
ctime
struct_time
p32
((I2014
I5
I5
I5
I26
I58
I0
I125
I1
t(dtRp33
sS'f_low'
p34
F1268.9000000000001
sS'T_Sys_Right'
p35
g4
(g6
S'\xbek\xb0\x13\x86\x06p@'
tRp36
sS'f_high'
p37
F1271.9000000000001
sS'col-density'
p38
g4
(g6
S'\xa4{\xbaM\x99\xfcFD'
tRp39
s.