(dp1
S'n_obs'
p2
I87
sS'dispersion'
p3
cnumpy.core.multiarray
scalar
p4
(cnumpy
dtype
p5
(S'f8'
I0
I1
tRp6
(I3
S'<'
NNNI-1
I-1
I0
tbS'cF\x9d\xdbEr)@'
tRp7
sS'b'
F40
sS'n_cal'
p8
I9
sS'vel-center'
p9
g4
(g6
S'\xf4\x07r\xe4\x9c]\xf2?'
tRp10
sS'rec-success'
p11
I01
sS'unixtime'
p12
F1399187979.9046659
sS'G_Right'
p13
g4
(g6
S'\xfaj\n\xdb\x8a{\x00@'
tRp14
sS'l'
g4
(g6
S'\x01\x1fR\xa7w\xfas@'
tRp15
sS'G_Left'
p16
g4
(g6
S'\xf7F@E&\x10\xdf?'
tRp17
sS'T_Sys_Left'
p18
g4
(g6
S'\xdf\xfd_\x9b\xcc\to@'
tRp19
sS'jd'
p20
F2456781.8053124999
sS'lst'
p21
g4
(g6
S'\x00\x00\xa2\xbbO\xfb+@'
tRp22
sS'vel-peaks'
p23
cnumpy.core.multiarray
_reconstruct
p24
(cnumpy
ndarray
p25
(I0
tS'b'
tRp26
(I1
(I1
tg6
I00
S'S\xdb\x98q\x1c`\x06\xc0'
tbsS'grid'
p27
(I20
I42
tp28
sS'fname'
p29
S'data_l_319.65_b_040.00_grid_020_042'
p30
sS'time'
p31
ctime
struct_time
p32
((I2014
I5
I4
I0
I19
I39
I6
I124
I1
t(dtRp33
sS'f_low'
p34
F1268.9000000000001
sS'T_Sys_Right'
p35
g4
(g6
S'p\x06;\xfa&Wp@'
tRp36
sS'f_high'
p37
F1271.9000000000001
sS'col-density'
p38
g4
(g6
S'\xb2\x02\x0cf\xa0\x81BD'
tRp39
s.