(dp1
S'n_obs'
p2
I174
sS'dispersion'
p3
cnumpy.core.multiarray
scalar
p4
(cnumpy
dtype
p5
(S'f8'
I0
I1
tRp6
(I3
S'<'
NNNI-1
I-1
I0
tbS'\xb1\xd4\x14\x1d\xc2\xe16@'
tRp7
sS'b'
F2
sS'fname'
p8
S'data_l_223.90_b_002.00_grid_001_078'
p9
sS'vel-center'
p10
g4
(g6
S'\xe1\xbb\xf1X\x8e\x97B@'
tRp11
sS'rec-success'
p12
I01
sS'unixtime'
p13
F1398570300
sS'G_Right'
p14
g4
(g6
S'\x04d]\xefS\xeb\xf7?'
tRp15
sS'l'
g4
(g6
S'G\xd6\x19\x08\xf5\xfck@'
tRp16
sS'G_Left'
p17
g4
(g6
S'\xc5\xfa\x95E\xc5g\xe5?'
tRp18
sS'T_Sys_Left'
p19
g4
(g6
S'\xf9\xf4#$6\xa5\x89@'
tRp20
sS'jd'
p21
F2456774.65625
sS'lst'
p22
g4
(g6
S'\x00`\n\xcb\x1c\xe3#@'
tRp23
sS'vel-peaks'
p24
cnumpy.core.multiarray
_reconstruct
p25
(cnumpy
ndarray
p26
(I0
tS'b'
tRp27
(I1
(I4
tg6
I00
S'F\x18w\xda\x19\x14M@\xa4r\xeaS\xd9\xcaA@\xc4\xa91p\xdfD2@\xb01\x7f[\xd6-\n@'
tbsS'grid'
p28
(I1
I78
tp29
sS'n_cal'
p30
I18
sS'time'
p31
ctime
struct_time
p32
((I2014
I4
I26
I20
I45
I0
I5
I116
I1
t(dtRp33
sS'f_low'
p34
F1268.9000000000001
sS'T_Sys_Right'
p35
g4
(g6
S'\x15\xb5U\xc5\x82\rp@'
tRp36
sS'f_high'
p37
F1271.9000000000001
sS'col-density'
p38
g4
(g6
S'\xa8\x1f\xad\x95m)\x81D'
tRp39
s.