(dp1
S'n_obs'
p2
I87
sS'dispersion'
p3
cnumpy.core.multiarray
scalar
p4
(cnumpy
dtype
p5
(S'f8'
I0
I1
tRp6
(I3
S'<'
NNNI-1
I-1
I0
tbS'(\xfd\x11tn\xa90@'
tRp7
sS'b'
F48
sS'n_cal'
p8
I9
sS'vel-center'
p9
g4
(g6
S'3\xe2\xfe\xe1Pc\x14\xc0'
tRp10
sS'rec-success'
p11
I01
sS'unixtime'
p12
F1399195325.5290561
sS'G_Right'
p13
g4
(g6
S'\xe1R\xf2Z\xd8L\x00@'
tRp14
sS'l'
g4
(g6
S'x\x89k\x13\xee\x98t@'
tRp15
sS'G_Left'
p16
g4
(g6
S'\x8f\xe0\xcf\xd7#i\xdf?'
tRp17
sS'T_Sys_Left'
p18
g4
(g6
S'?\xc3\xf3g_7q@'
tRp19
sS'jd'
p20
F2456781.8903356483
sS'lst'
p21
g4
(g6
S'\x00\xb0%\xdbw\t0@'
tRp22
sS'vel-peaks'
p23
cnumpy.core.multiarray
_reconstruct
p24
(cnumpy
ndarray
p25
(I0
tS'b'
tRp26
(I1
(I2
tg6
I00
S'\xadz\r"yS3@\x16\xbd\x93v#\xae\r\xc0'
tbsS'grid'
p27
(I24
I40
tp28
sS'fname'
p29
S'data_l_329.56_b_048.00_grid_024_040'
p30
sS'time'
p31
ctime
struct_time
p32
((I2014
I5
I4
I2
I22
I5
I6
I124
I1
t(dtRp33
sS'f_low'
p34
F1268.9000000000001
sS'T_Sys_Right'
p35
g4
(g6
S'HH{O\xb0\x1ap@'
tRp36
sS'f_high'
p37
F1271.9000000000001
sS'col-density'
p38
g4
(g6
S'\xde]\x13\x84\xb7\xb3=D'
tRp39
s.