(dp1
S'n_obs'
p2
I87
sS'dispersion'
p3
cnumpy.core.multiarray
scalar
p4
(cnumpy
dtype
p5
(S'f8'
I0
I1
tRp6
(I3
S'<'
NNNI-1
I-1
I0
tbS'\x83\xe7\xb9C\x8bX\x1e@'
tRp7
sS'b'
F28
sS'n_cal'
p8
I9
sS'vel-center'
p9
g4
(g6
S'\xb0Las\x83:\xe5?'
tRp10
sS'rec-success'
p11
I01
sS'unixtime'
p12
F1398842047
sS'G_Right'
p13
g4
(g6
S'\x12\x9b5\x9e\xd2\xa8\xf9?'
tRp14
sS'l'
g4
(g6
S'\xc0\xc3&\t\x9f\x1e!@'
tRp15
sS'G_Left'
p16
g4
(g6
S'5\xe4\x9a\x82"\xf4\xe3?'
tRp17
sS'T_Sys_Left'
p18
g4
(g6
S'\xba&t\xf9:,q@'
tRp19
sS'jd'
p20
F2456777.8014699072
sS'lst'
p21
g4
(g6
S'\x00\xe0\x86\x03dE+@'
tRp22
sS'vel-peaks'
p23
cnumpy.core.multiarray
_reconstruct
p24
(cnumpy
ndarray
p25
(I0
tS'b'
tRp26
(I1
(I1
tg6
I00
S'\x00\x81\xb8\xa5S\xf0\xe6?'
tbsS'grid'
p27
(I14
I70
tp28
sS'fname'
p29
S'data_l_008.56_b_028.00_grid_014_070'
p30
sS'time'
p31
ctime
struct_time
p32
((I2014
I4
I30
I0
I14
I7
I2
I120
I1
t(dtRp33
sS'f_low'
p34
F1268.9000000000001
sS'T_Sys_Right'
p35
g4
(g6
S'QWL\xf5\x84\x8e_@'
tRp36
sS'f_high'
p37
F1271.9000000000001
sS'col-density'
p38
g4
(g6
S'Rh#9\x01\x89FD'
tRp39
s.