(dp1
S'n_obs'
p2
I87
sS'dispersion'
p3
cnumpy.core.multiarray
scalar
p4
(cnumpy
dtype
p5
(S'f8'
I0
I1
tRp6
(I3
S'<'
NNNI-1
I-1
I0
tbS'\xdf\xc6\xd5\x19\xdf\xfc @'
tRp7
sS'b'
F24
sS'n_cal'
p8
I9
sS'vel-center'
p9
g4
(g6
S'\x18ke\xd9\x91Q\x15@'
tRp10
sS'rec-success'
p11
I01
sS'unixtime'
p12
F1399266034.4904921
sS'G_Right'
p13
g4
(g6
S'\xc9\xde\x84\\a\xe6\xfb?'
tRp14
sS'l'
g4
(g6
S'l\x99\xa4\n\x1d\xccj@'
tRp15
sS'G_Left'
p16
g4
(g6
S'\xaf\xab\xb5 \xefY\xe2?'
tRp17
sS'T_Sys_Left'
p18
g4
(g6
S'}\x15\xad\xfaI\xc4n@'
tRp19
sS'jd'
p20
F2456782.7087268517
sS'lst'
p21
g4
(g6
S"\x00\x80\x8bh\xdcv'@"
tRp22
sS'vel-peaks'
p23
cnumpy.core.multiarray
_reconstruct
p24
(cnumpy
ndarray
p25
(I0
tS'b'
tRp26
(I1
(I1
tg6
I00
S'0)5[\xb7\xff\t@'
tbsS'grid'
p27
(I12
I2
tp28
sS'fname'
p29
S'data_l_214.38_b_024.00_grid_012_002'
p30
sS'time'
p31
ctime
struct_time
p32
((I2014
I5
I4
I22
I0
I34
I6
I124
I1
t(dtRp33
sS'f_low'
p34
F1268.9000000000001
sS'T_Sys_Right'
p35
g4
(g6
S'9\x89,\x8b\x97\xabo@'
tRp36
sS'f_high'
p37
F1271.9000000000001
sS'col-density'
p38
g4
(g6
S'\xb7|\x93\xb9\x02\xf1)D'
tRp39
s.