(dp1
S'n_obs'
p2
I174
sS'dispersion'
p3
cnumpy.core.multiarray
scalar
p4
(cnumpy
dtype
p5
(S'f8'
I0
I1
tRp6
(I3
S'<'
NNNI-1
I-1
I0
tbS'\xce>\xea\xf5\x8a\x194@'
tRp7
sS'b'
F6
sS'fname'
p8
S'data_l_213.09_b_006.00_grid_003_083'
p9
sS'vel-center'
p10
g4
(g6
S'\xa4\x1d\x13\xfbj88@'
tRp11
sS'rec-success'
p12
I01
sS'unixtime'
p13
F1398745316
sS'G_Right'
p14
g4
(g6
S'\xceU\x9f0\xf2W\xf7?'
tRp15
sS'l'
g4
(g6
S'\xa8\xe9\xe1q\xbd\xa2j@'
tRp16
sS'G_Left'
p17
g4
(g6
S'\xb9\x8d\xcd\\\xea\xee\xe5?'
tRp18
sS'T_Sys_Left'
p19
g4
(g6
S'Y\xd3\xaa\x12\xdb3f@'
tRp20
sS'jd'
p21
F2456776.6812499999
sS'lst'
p22
g4
(g6
S'\x00\xc0>\xbfpZ%@'
tRp23
sS'vel-peaks'
p24
cnumpy.core.multiarray
_reconstruct
p25
(cnumpy
ndarray
p26
(I0
tS'b'
tRp27
(I1
(I2
tg6
I00
S'r\x1du\xaa\xdbAF@\xe0g\x94\x1b\xd1%#@'
tbsS'grid'
p28
(I3
I83
tp29
sS'n_cal'
p30
I18
sS'time'
p31
ctime
struct_time
p32
((I2014
I4
I28
I21
I21
I56
I0
I118
I1
t(dtRp33
sS'f_low'
p34
F1268.9000000000001
sS'T_Sys_Right'
p35
g4
(g6
S'\x1e}%\xc0\x11@h@'
tRp36
sS'f_high'
p37
F1271.9000000000001
sS'col-density'
p38
g4
(g6
S"v$ \x01'>\\D"
tRp39
s.