(dp1
S'n_obs'
p2
I87
sS'dispersion'
p3
cnumpy.core.multiarray
scalar
p4
(cnumpy
dtype
p5
(S'f8'
I0
I1
tRp6
(I3
S'<'
NNNI-1
I-1
I0
tbS'\x08X\x82\x9b\xa8|#@'
tRp7
sS'b'
F20
sS'n_cal'
p8
I9
sS'vel-center'
p9
g4
(g6
S'\xd6~\xe2\\\xaa\xf9\x17@'
tRp10
sS'rec-success'
p11
I01
sS'unixtime'
p12
F1399265013.1783409
sS'G_Right'
p13
g4
(g6
S'\xa6\xfb:!\xcc\x86\xfe?'
tRp14
sS'l'
g4
(g6
S'\x14\xc9\xe0\xe2\x12\xe9l@'
tRp15
sS'G_Left'
p16
g4
(g6
S'Y\xce!e\xb4\xc5\xe0?'
tRp17
sS'T_Sys_Left'
p18
g4
(g6
S'IS?4\xb7\x8bp@'
tRp19
sS'jd'
p20
F2456782.6969097219
sS'lst'
p21
g4
(g6
S"\x00 \x9a'A\xe5&@"
tRp22
sS'vel-peaks'
p23
cnumpy.core.multiarray
_reconstruct
p24
(cnumpy
ndarray
p25
(I0
tS'b'
tRp26
(I1
(I1
tg6
I00
S'\x005\xd5SfP\x06@'
tbsS'grid'
p27
(I10
I10
tp28
sS'fname'
p29
S'data_l_231.28_b_020.00_grid_010_010'
p30
sS'time'
p31
ctime
struct_time
p32
((I2014
I5
I4
I21
I43
I33
I6
I124
I1
t(dtRp33
sS'f_low'
p34
F1268.9000000000001
sS'T_Sys_Right'
p35
g4
(g6
S'\x16\xbc\xfd\xadC\xf6o@'
tRp36
sS'f_high'
p37
F1271.9000000000001
sS'col-density'
p38
g4
(g6
S'\xa8\xb4\xa2@\xe0\x914D'
tRp39
s.