(dp1
S'n_obs'
p2
I87
sS'dispersion'
p3
cnumpy.core.multiarray
scalar
p4
(cnumpy
dtype
p5
(S'f8'
I0
I1
tRp6
(I3
S'<'
NNNI-1
I-1
I0
tbS'\xf6\x02h\x9f\x87\xbe/@'
tRp7
sS'b'
F56
sS'n_cal'
p8
I9
sS'vel-center'
p9
g4
(g6
S'\xdb\x17`\x92\x84\x061\xc0'
tRp10
sS'rec-success'
p11
I01
sS'unixtime'
p12
F1399272237.8638949
sS'G_Right'
p13
g4
(g6
S'\xfew9\x028R\xfe?'
tRp14
sS'l'
g4
(g6
S'\x90\xac\x90\xf6\x9a\xb3p@'
tRp15
sS'G_Left'
p16
g4
(g6
S'\xfd\r;\xeb\xc9\xe2\xe0?'
tRp17
sS'T_Sys_Left'
p18
g4
(g6
S'\x84\xbcb\xd5\xa3\x16n@'
tRp19
sS'jd'
p20
F2456782.7805208331
sS'lst'
p21
g4
(g6
S'\x00\x80L\x16{\xeb*@'
tRp22
sS'vel-peaks'
p23
cnumpy.core.multiarray
_reconstruct
p24
(cnumpy
ndarray
p25
(I0
tS'b'
tRp26
(I1
(I1
tg6
I00
S'\xa49\xdd\xb4\x08\xc7\x1f\xc0'
tbsS'grid'
p27
(I28
I16
tp28
sS'fname'
p29
S'data_l_267.23_b_056.00_grid_028_016'
p30
sS'time'
p31
ctime
struct_time
p32
((I2014
I5
I4
I23
I43
I57
I6
I124
I1
t(dtRp33
sS'f_low'
p34
F1268.9000000000001
sS'T_Sys_Right'
p35
g4
(g6
S'W\xbd\x00\xe5\x03\x8co@'
tRp36
sS'f_high'
p37
F1271.9000000000001
sS'col-density'
p38
g4
(g6
S'\x05y\xf2Y\x98\xc11D'
tRp39
s.