(dp1
S'n_obs'
p2
I87
sS'dispersion'
p3
cnumpy.core.multiarray
scalar
p4
(cnumpy
dtype
p5
(S'f8'
I0
I1
tRp6
(I3
S'<'
NNNI-1
I-1
I0
tbS'\xea\xf6\x9bt\xc2\xa1/@'
tRp7
sS'b'
F48
sS'n_cal'
p8
I9
sS'vel-center'
p9
g4
(g6
S'\xf3\xfdY\xe1\xd4\x08\x1d\xc0'
tRp10
sS'rec-success'
p11
I01
sS'unixtime'
p12
F1399194615.2936201
sS'G_Right'
p13
g4
(g6
S'Y\x15\xf0\xca\xfd\xc9\xff?'
tRp14
sS'l'
g4
(g6
S't\xce\x81\x90\xfdys@'
tRp15
sS'G_Left'
p16
g4
(g6
S'\x92\xb2\xb0\xfb.\x1b\xe0?'
tRp17
sS'T_Sys_Left'
p18
g4
(g6
S'J\xf6\xe7s\xe4Yp@'
tRp19
sS'jd'
p20
F2456781.8821180556
sS'lst'
p21
g4
(g6
S'\x00\xc0\xef\x9f\xae\xad/@'
tRp22
sS'vel-peaks'
p23
cnumpy.core.multiarray
_reconstruct
p24
(cnumpy
ndarray
p25
(I0
tS'b'
tRp26
(I1
(I1
tg6
I00
S'KJt\xaf\xef!\x0e\xc0'
tbsS'grid'
p27
(I24
I34
tp28
sS'fname'
p29
S'data_l_311.62_b_048.00_grid_024_034'
p30
sS'time'
p31
ctime
struct_time
p32
((I2014
I5
I4
I2
I10
I15
I6
I124
I1
t(dtRp33
sS'f_low'
p34
F1268.9000000000001
sS'T_Sys_Right'
p35
g4
(g6
S'\xfeMou\x08Kp@'
tRp36
sS'f_high'
p37
F1271.9000000000001
sS'col-density'
p38
g4
(g6
S'\x96\xd77v\xdc\xcf:D'
tRp39
s.