(dp1
S'n_obs'
p2
I174
sS'dispersion'
p3
cnumpy.core.multiarray
scalar
p4
(cnumpy
dtype
p5
(S'f8'
I0
I1
tRp6
(I3
S'<'
NNNI-1
I-1
I0
tbS'\xc8|\xd7\x95^\x032@'
tRp7
sS'b'
F0
sS'fname'
p8
S'data_l_212.00_b_000.00_grid_000_001'
p9
sS'vel-center'
p10
g4
(g6
S'\n\xa1>\xfc*\xd9<@'
tRp11
sS'rec-success'
p12
I01
sS'unixtime'
p13
F1398563160
sS'G_Right'
p14
g4
(g6
S'\x8d,\x9b\xbf\xb4\xa7\xfb?'
tRp15
sS'l'
g4
(g6
S'\x00\x00\x00\x00\x00\x80j@'
tRp16
sS'G_Left'
p17
g4
(g6
S'\x93\xa9\x12\xf9\x85\x83\xe2?'
tRp18
sS'T_Sys_Left'
p19
g4
(g6
S'\xd4;\xd2\x91M,t@'
tRp20
sS'jd'
p21
F2456774.5736111109
sS'lst'
p22
g4
(g6
S'\x00\x00()\xbb\xd1\x1f@'
tRp23
sS'vel-peaks'
p24
cnumpy.core.multiarray
_reconstruct
p25
(cnumpy
ndarray
p26
(I0
tS'b'
tRp27
(I1
(I3
tg6
I00
S'C\x18G\xec\x0e\x1cF@\xc6\nC\x8a\xdf\x1e8@\x84\xdc\x8f\xd2\xee,#@'
tbsS'grid'
p28
(I0
I1
tp29
sS'n_cal'
p30
I18
sS'time'
p31
ctime
struct_time
p32
((I2014
I4
I26
I18
I46
I0
I5
I116
I1
t(dtRp33
sS'f_low'
p34
F1268.9000000000001
sS'T_Sys_Right'
p35
g4
(g6
S'\xa0\x0b!\x91\xacTq@'
tRp36
sS'f_high'
p37
F1271.9000000000001
sS'col-density'
p38
g4
(g6
S'\xe0\x82\xbd\xaa\xd0\xdbvD'
tRp39
s.