(dp1
S'n_obs'
p2
I87
sS'b'
F30
sS'fname'
p3
S'data_l_001.52_b_030.00_grid_015_008'
p4
sS'l'
cnumpy.core.multiarray
scalar
p5
(cnumpy
dtype
p6
(S'f8'
I0
I1
tRp7
(I3
S'<'
NNNI-1
I-1
I0
tbS'\x00\xd0\xfc\xa6\x8be\xf8?'
tRp8
sS'rec-success'
p9
I01
sS'grid'
p10
(I15
I8
tp11
sS'n_cal'
p12
I9
sS'time'
p13
ctime
struct_time
p14
((I2014
I4
I28
I23
I47
I4
I0
I118
I1
t(dtRp15
sS'f_low'
p16
F1268.9000000000001
sS'f_high'
p17
F1271.9000000000001
s.