(dp1
S'n_obs'
p2
I174
sS'b'
F2
sS'fname'
p3
S'data_l_217.90_b_002.00_grid_001_081'
p4
sS'l'
cnumpy.core.multiarray
scalar
p5
(cnumpy
dtype
p6
(S'f8'
I0
I1
tRp7
(I3
S'<'
NNNI-1
I-1
I0
tbS' 7B\x12\xd7<k@'
tRp8
sS'rec-success'
p9
I01
sS'grid'
p10
(I1
I81
tp11
sS'n_cal'
p12
I18
sS'f_low'
p13
F1268.9000000000001
sS'f_high'
p14
F1271.9000000000001
s.