(dp1
S'n_obs'
p2
I87
sS'b'
F24
sS'fname'
p3
S'data_l_003.25_b_024.00_grid_012_070'
p4
sS'l'
cnumpy.core.multiarray
scalar
p5
(cnumpy
dtype
p6
(S'f8'
I0
I1
tRp7
(I3
S'<'
NNNI-1
I-1
I0
tbS'\x00q> \x1d\xfe\t@'
tRp8
sS'rec-success'
p9
I01
sS'grid'
p10
(I12
I70
tp11
sS'n_cal'
p12
I9
sS'time'
p13
ctime
struct_time
p14
((I2014
I4
I29
I0
I8
I39
I1
I119
I1
t(dtRp15
sS'f_low'
p16
F1268.9000000000001
sS'f_high'
p17
F1271.9000000000001
s.