(dp1
S'n_obs'
p2
I174
sS'b'
F6
sS'fname'
p3
S'data_l_213.09_b_006.00_grid_003_083'
p4
sS'l'
cnumpy.core.multiarray
scalar
p5
(cnumpy
dtype
p6
(S'f8'
I0
I1
tRp7
(I3
S'<'
NNNI-1
I-1
I0
tbS'\xa8\xe9\xe1q\xbd\xa2j@'
tRp8
sS'rec-success'
p9
I01
sS'grid'
p10
(I3
I83
tp11
sS'n_cal'
p12
I18
sS'time'
p13
ctime
struct_time
p14
((I2014
I4
I28
I21
I21
I56
I0
I118
I1
t(dtRp15
sS'f_low'
p16
F1268.9000000000001
sS'f_high'
p17
F1271.9000000000001
s.